	.text
	.file	"generated/descriptor-moremethods-split-10-classes-50-methods-calls-test/descriptor-moremethods-split-10-classes-50-methods-calls-test.cpp"
	.globl	_ZN15CSSPropertyAPI17method1Ev # -- Begin function _ZN15CSSPropertyAPI17method1Ev
	.p2align	4, 0x90
	.type	_ZN15CSSPropertyAPI17method1Ev,@function
_ZN15CSSPropertyAPI17method1Ev:         # @_ZN15CSSPropertyAPI17method1Ev
	.cfi_startproc
# BB#0:                                 # %entry
	addl	$2, increment_me(%rip)
	retq
.Lfunc_end0:
	.size	_ZN15CSSPropertyAPI17method1Ev, .Lfunc_end0-_ZN15CSSPropertyAPI17method1Ev
	.cfi_endproc
                                        # -- End function
	.globl	_ZN15CSSPropertyAPI17method2Ev # -- Begin function _ZN15CSSPropertyAPI17method2Ev
	.p2align	4, 0x90
	.type	_ZN15CSSPropertyAPI17method2Ev,@function
_ZN15CSSPropertyAPI17method2Ev:         # @_ZN15CSSPropertyAPI17method2Ev
	.cfi_startproc
# BB#0:                                 # %entry
	addl	$3, increment_me(%rip)
	retq
.Lfunc_end1:
	.size	_ZN15CSSPropertyAPI17method2Ev, .Lfunc_end1-_ZN15CSSPropertyAPI17method2Ev
	.cfi_endproc
                                        # -- End function
	.globl	_ZN15CSSPropertyAPI17method3Ev # -- Begin function _ZN15CSSPropertyAPI17method3Ev
	.p2align	4, 0x90
	.type	_ZN15CSSPropertyAPI17method3Ev,@function
_ZN15CSSPropertyAPI17method3Ev:         # @_ZN15CSSPropertyAPI17method3Ev
	.cfi_startproc
# BB#0:                                 # %entry
	addl	$4, increment_me(%rip)
	retq
.Lfunc_end2:
	.size	_ZN15CSSPropertyAPI17method3Ev, .Lfunc_end2-_ZN15CSSPropertyAPI17method3Ev
	.cfi_endproc
                                        # -- End function
	.globl	_ZN15CSSPropertyAPI17method4Ev # -- Begin function _ZN15CSSPropertyAPI17method4Ev
	.p2align	4, 0x90
	.type	_ZN15CSSPropertyAPI17method4Ev,@function
_ZN15CSSPropertyAPI17method4Ev:         # @_ZN15CSSPropertyAPI17method4Ev
	.cfi_startproc
# BB#0:                                 # %entry
	addl	$5, increment_me(%rip)
	retq
.Lfunc_end3:
	.size	_ZN15CSSPropertyAPI17method4Ev, .Lfunc_end3-_ZN15CSSPropertyAPI17method4Ev
	.cfi_endproc
                                        # -- End function
	.globl	_ZN15CSSPropertyAPI17method5Ev # -- Begin function _ZN15CSSPropertyAPI17method5Ev
	.p2align	4, 0x90
	.type	_ZN15CSSPropertyAPI17method5Ev,@function
_ZN15CSSPropertyAPI17method5Ev:         # @_ZN15CSSPropertyAPI17method5Ev
	.cfi_startproc
# BB#0:                                 # %entry
	addl	$6, increment_me(%rip)
	retq
.Lfunc_end4:
	.size	_ZN15CSSPropertyAPI17method5Ev, .Lfunc_end4-_ZN15CSSPropertyAPI17method5Ev
	.cfi_endproc
                                        # -- End function
	.globl	_ZN15CSSPropertyAPI17method6Ev # -- Begin function _ZN15CSSPropertyAPI17method6Ev
	.p2align	4, 0x90
	.type	_ZN15CSSPropertyAPI17method6Ev,@function
_ZN15CSSPropertyAPI17method6Ev:         # @_ZN15CSSPropertyAPI17method6Ev
	.cfi_startproc
# BB#0:                                 # %entry
	addl	$7, increment_me(%rip)
	retq
.Lfunc_end5:
	.size	_ZN15CSSPropertyAPI17method6Ev, .Lfunc_end5-_ZN15CSSPropertyAPI17method6Ev
	.cfi_endproc
                                        # -- End function
	.globl	_ZN15CSSPropertyAPI17method7Ev # -- Begin function _ZN15CSSPropertyAPI17method7Ev
	.p2align	4, 0x90
	.type	_ZN15CSSPropertyAPI17method7Ev,@function
_ZN15CSSPropertyAPI17method7Ev:         # @_ZN15CSSPropertyAPI17method7Ev
	.cfi_startproc
# BB#0:                                 # %entry
	addl	$8, increment_me(%rip)
	retq
.Lfunc_end6:
	.size	_ZN15CSSPropertyAPI17method7Ev, .Lfunc_end6-_ZN15CSSPropertyAPI17method7Ev
	.cfi_endproc
                                        # -- End function
	.globl	_ZN15CSSPropertyAPI17method8Ev # -- Begin function _ZN15CSSPropertyAPI17method8Ev
	.p2align	4, 0x90
	.type	_ZN15CSSPropertyAPI17method8Ev,@function
_ZN15CSSPropertyAPI17method8Ev:         # @_ZN15CSSPropertyAPI17method8Ev
	.cfi_startproc
# BB#0:                                 # %entry
	addl	$9, increment_me(%rip)
	retq
.Lfunc_end7:
	.size	_ZN15CSSPropertyAPI17method8Ev, .Lfunc_end7-_ZN15CSSPropertyAPI17method8Ev
	.cfi_endproc
                                        # -- End function
	.globl	_ZN15CSSPropertyAPI17method9Ev # -- Begin function _ZN15CSSPropertyAPI17method9Ev
	.p2align	4, 0x90
	.type	_ZN15CSSPropertyAPI17method9Ev,@function
_ZN15CSSPropertyAPI17method9Ev:         # @_ZN15CSSPropertyAPI17method9Ev
	.cfi_startproc
# BB#0:                                 # %entry
	addl	$10, increment_me(%rip)
	retq
.Lfunc_end8:
	.size	_ZN15CSSPropertyAPI17method9Ev, .Lfunc_end8-_ZN15CSSPropertyAPI17method9Ev
	.cfi_endproc
                                        # -- End function
	.globl	_ZN15CSSPropertyAPI18method10Ev # -- Begin function _ZN15CSSPropertyAPI18method10Ev
	.p2align	4, 0x90
	.type	_ZN15CSSPropertyAPI18method10Ev,@function
_ZN15CSSPropertyAPI18method10Ev:        # @_ZN15CSSPropertyAPI18method10Ev
	.cfi_startproc
# BB#0:                                 # %entry
	addl	$11, increment_me(%rip)
	retq
.Lfunc_end9:
	.size	_ZN15CSSPropertyAPI18method10Ev, .Lfunc_end9-_ZN15CSSPropertyAPI18method10Ev
	.cfi_endproc
                                        # -- End function
	.globl	_ZN15CSSPropertyAPI18method11Ev # -- Begin function _ZN15CSSPropertyAPI18method11Ev
	.p2align	4, 0x90
	.type	_ZN15CSSPropertyAPI18method11Ev,@function
_ZN15CSSPropertyAPI18method11Ev:        # @_ZN15CSSPropertyAPI18method11Ev
	.cfi_startproc
# BB#0:                                 # %entry
	addl	$12, increment_me(%rip)
	retq
.Lfunc_end10:
	.size	_ZN15CSSPropertyAPI18method11Ev, .Lfunc_end10-_ZN15CSSPropertyAPI18method11Ev
	.cfi_endproc
                                        # -- End function
	.globl	_ZN15CSSPropertyAPI18method12Ev # -- Begin function _ZN15CSSPropertyAPI18method12Ev
	.p2align	4, 0x90
	.type	_ZN15CSSPropertyAPI18method12Ev,@function
_ZN15CSSPropertyAPI18method12Ev:        # @_ZN15CSSPropertyAPI18method12Ev
	.cfi_startproc
# BB#0:                                 # %entry
	addl	$13, increment_me(%rip)
	retq
.Lfunc_end11:
	.size	_ZN15CSSPropertyAPI18method12Ev, .Lfunc_end11-_ZN15CSSPropertyAPI18method12Ev
	.cfi_endproc
                                        # -- End function
	.globl	_ZN15CSSPropertyAPI18method13Ev # -- Begin function _ZN15CSSPropertyAPI18method13Ev
	.p2align	4, 0x90
	.type	_ZN15CSSPropertyAPI18method13Ev,@function
_ZN15CSSPropertyAPI18method13Ev:        # @_ZN15CSSPropertyAPI18method13Ev
	.cfi_startproc
# BB#0:                                 # %entry
	addl	$14, increment_me(%rip)
	retq
.Lfunc_end12:
	.size	_ZN15CSSPropertyAPI18method13Ev, .Lfunc_end12-_ZN15CSSPropertyAPI18method13Ev
	.cfi_endproc
                                        # -- End function
	.globl	_ZN15CSSPropertyAPI18method14Ev # -- Begin function _ZN15CSSPropertyAPI18method14Ev
	.p2align	4, 0x90
	.type	_ZN15CSSPropertyAPI18method14Ev,@function
_ZN15CSSPropertyAPI18method14Ev:        # @_ZN15CSSPropertyAPI18method14Ev
	.cfi_startproc
# BB#0:                                 # %entry
	addl	$15, increment_me(%rip)
	retq
.Lfunc_end13:
	.size	_ZN15CSSPropertyAPI18method14Ev, .Lfunc_end13-_ZN15CSSPropertyAPI18method14Ev
	.cfi_endproc
                                        # -- End function
	.globl	_ZN15CSSPropertyAPI18method15Ev # -- Begin function _ZN15CSSPropertyAPI18method15Ev
	.p2align	4, 0x90
	.type	_ZN15CSSPropertyAPI18method15Ev,@function
_ZN15CSSPropertyAPI18method15Ev:        # @_ZN15CSSPropertyAPI18method15Ev
	.cfi_startproc
# BB#0:                                 # %entry
	addl	$16, increment_me(%rip)
	retq
.Lfunc_end14:
	.size	_ZN15CSSPropertyAPI18method15Ev, .Lfunc_end14-_ZN15CSSPropertyAPI18method15Ev
	.cfi_endproc
                                        # -- End function
	.globl	_ZN15CSSPropertyAPI18method16Ev # -- Begin function _ZN15CSSPropertyAPI18method16Ev
	.p2align	4, 0x90
	.type	_ZN15CSSPropertyAPI18method16Ev,@function
_ZN15CSSPropertyAPI18method16Ev:        # @_ZN15CSSPropertyAPI18method16Ev
	.cfi_startproc
# BB#0:                                 # %entry
	addl	$17, increment_me(%rip)
	retq
.Lfunc_end15:
	.size	_ZN15CSSPropertyAPI18method16Ev, .Lfunc_end15-_ZN15CSSPropertyAPI18method16Ev
	.cfi_endproc
                                        # -- End function
	.globl	_ZN15CSSPropertyAPI18method17Ev # -- Begin function _ZN15CSSPropertyAPI18method17Ev
	.p2align	4, 0x90
	.type	_ZN15CSSPropertyAPI18method17Ev,@function
_ZN15CSSPropertyAPI18method17Ev:        # @_ZN15CSSPropertyAPI18method17Ev
	.cfi_startproc
# BB#0:                                 # %entry
	addl	$18, increment_me(%rip)
	retq
.Lfunc_end16:
	.size	_ZN15CSSPropertyAPI18method17Ev, .Lfunc_end16-_ZN15CSSPropertyAPI18method17Ev
	.cfi_endproc
                                        # -- End function
	.globl	_ZN15CSSPropertyAPI18method18Ev # -- Begin function _ZN15CSSPropertyAPI18method18Ev
	.p2align	4, 0x90
	.type	_ZN15CSSPropertyAPI18method18Ev,@function
_ZN15CSSPropertyAPI18method18Ev:        # @_ZN15CSSPropertyAPI18method18Ev
	.cfi_startproc
# BB#0:                                 # %entry
	addl	$19, increment_me(%rip)
	retq
.Lfunc_end17:
	.size	_ZN15CSSPropertyAPI18method18Ev, .Lfunc_end17-_ZN15CSSPropertyAPI18method18Ev
	.cfi_endproc
                                        # -- End function
	.globl	_ZN15CSSPropertyAPI18method19Ev # -- Begin function _ZN15CSSPropertyAPI18method19Ev
	.p2align	4, 0x90
	.type	_ZN15CSSPropertyAPI18method19Ev,@function
_ZN15CSSPropertyAPI18method19Ev:        # @_ZN15CSSPropertyAPI18method19Ev
	.cfi_startproc
# BB#0:                                 # %entry
	addl	$20, increment_me(%rip)
	retq
.Lfunc_end18:
	.size	_ZN15CSSPropertyAPI18method19Ev, .Lfunc_end18-_ZN15CSSPropertyAPI18method19Ev
	.cfi_endproc
                                        # -- End function
	.globl	_ZN15CSSPropertyAPI18method20Ev # -- Begin function _ZN15CSSPropertyAPI18method20Ev
	.p2align	4, 0x90
	.type	_ZN15CSSPropertyAPI18method20Ev,@function
_ZN15CSSPropertyAPI18method20Ev:        # @_ZN15CSSPropertyAPI18method20Ev
	.cfi_startproc
# BB#0:                                 # %entry
	addl	$21, increment_me(%rip)
	retq
.Lfunc_end19:
	.size	_ZN15CSSPropertyAPI18method20Ev, .Lfunc_end19-_ZN15CSSPropertyAPI18method20Ev
	.cfi_endproc
                                        # -- End function
	.globl	_ZN15CSSPropertyAPI18method21Ev # -- Begin function _ZN15CSSPropertyAPI18method21Ev
	.p2align	4, 0x90
	.type	_ZN15CSSPropertyAPI18method21Ev,@function
_ZN15CSSPropertyAPI18method21Ev:        # @_ZN15CSSPropertyAPI18method21Ev
	.cfi_startproc
# BB#0:                                 # %entry
	addl	$22, increment_me(%rip)
	retq
.Lfunc_end20:
	.size	_ZN15CSSPropertyAPI18method21Ev, .Lfunc_end20-_ZN15CSSPropertyAPI18method21Ev
	.cfi_endproc
                                        # -- End function
	.globl	_ZN15CSSPropertyAPI18method22Ev # -- Begin function _ZN15CSSPropertyAPI18method22Ev
	.p2align	4, 0x90
	.type	_ZN15CSSPropertyAPI18method22Ev,@function
_ZN15CSSPropertyAPI18method22Ev:        # @_ZN15CSSPropertyAPI18method22Ev
	.cfi_startproc
# BB#0:                                 # %entry
	addl	$23, increment_me(%rip)
	retq
.Lfunc_end21:
	.size	_ZN15CSSPropertyAPI18method22Ev, .Lfunc_end21-_ZN15CSSPropertyAPI18method22Ev
	.cfi_endproc
                                        # -- End function
	.globl	_ZN15CSSPropertyAPI18method23Ev # -- Begin function _ZN15CSSPropertyAPI18method23Ev
	.p2align	4, 0x90
	.type	_ZN15CSSPropertyAPI18method23Ev,@function
_ZN15CSSPropertyAPI18method23Ev:        # @_ZN15CSSPropertyAPI18method23Ev
	.cfi_startproc
# BB#0:                                 # %entry
	addl	$24, increment_me(%rip)
	retq
.Lfunc_end22:
	.size	_ZN15CSSPropertyAPI18method23Ev, .Lfunc_end22-_ZN15CSSPropertyAPI18method23Ev
	.cfi_endproc
                                        # -- End function
	.globl	_ZN15CSSPropertyAPI18method24Ev # -- Begin function _ZN15CSSPropertyAPI18method24Ev
	.p2align	4, 0x90
	.type	_ZN15CSSPropertyAPI18method24Ev,@function
_ZN15CSSPropertyAPI18method24Ev:        # @_ZN15CSSPropertyAPI18method24Ev
	.cfi_startproc
# BB#0:                                 # %entry
	addl	$25, increment_me(%rip)
	retq
.Lfunc_end23:
	.size	_ZN15CSSPropertyAPI18method24Ev, .Lfunc_end23-_ZN15CSSPropertyAPI18method24Ev
	.cfi_endproc
                                        # -- End function
	.globl	_ZN15CSSPropertyAPI18method25Ev # -- Begin function _ZN15CSSPropertyAPI18method25Ev
	.p2align	4, 0x90
	.type	_ZN15CSSPropertyAPI18method25Ev,@function
_ZN15CSSPropertyAPI18method25Ev:        # @_ZN15CSSPropertyAPI18method25Ev
	.cfi_startproc
# BB#0:                                 # %entry
	addl	$26, increment_me(%rip)
	retq
.Lfunc_end24:
	.size	_ZN15CSSPropertyAPI18method25Ev, .Lfunc_end24-_ZN15CSSPropertyAPI18method25Ev
	.cfi_endproc
                                        # -- End function
	.globl	_ZN15CSSPropertyAPI18method26Ev # -- Begin function _ZN15CSSPropertyAPI18method26Ev
	.p2align	4, 0x90
	.type	_ZN15CSSPropertyAPI18method26Ev,@function
_ZN15CSSPropertyAPI18method26Ev:        # @_ZN15CSSPropertyAPI18method26Ev
	.cfi_startproc
# BB#0:                                 # %entry
	addl	$27, increment_me(%rip)
	retq
.Lfunc_end25:
	.size	_ZN15CSSPropertyAPI18method26Ev, .Lfunc_end25-_ZN15CSSPropertyAPI18method26Ev
	.cfi_endproc
                                        # -- End function
	.globl	_ZN15CSSPropertyAPI18method27Ev # -- Begin function _ZN15CSSPropertyAPI18method27Ev
	.p2align	4, 0x90
	.type	_ZN15CSSPropertyAPI18method27Ev,@function
_ZN15CSSPropertyAPI18method27Ev:        # @_ZN15CSSPropertyAPI18method27Ev
	.cfi_startproc
# BB#0:                                 # %entry
	addl	$28, increment_me(%rip)
	retq
.Lfunc_end26:
	.size	_ZN15CSSPropertyAPI18method27Ev, .Lfunc_end26-_ZN15CSSPropertyAPI18method27Ev
	.cfi_endproc
                                        # -- End function
	.globl	_ZN15CSSPropertyAPI18method28Ev # -- Begin function _ZN15CSSPropertyAPI18method28Ev
	.p2align	4, 0x90
	.type	_ZN15CSSPropertyAPI18method28Ev,@function
_ZN15CSSPropertyAPI18method28Ev:        # @_ZN15CSSPropertyAPI18method28Ev
	.cfi_startproc
# BB#0:                                 # %entry
	addl	$29, increment_me(%rip)
	retq
.Lfunc_end27:
	.size	_ZN15CSSPropertyAPI18method28Ev, .Lfunc_end27-_ZN15CSSPropertyAPI18method28Ev
	.cfi_endproc
                                        # -- End function
	.globl	_ZN15CSSPropertyAPI18method29Ev # -- Begin function _ZN15CSSPropertyAPI18method29Ev
	.p2align	4, 0x90
	.type	_ZN15CSSPropertyAPI18method29Ev,@function
_ZN15CSSPropertyAPI18method29Ev:        # @_ZN15CSSPropertyAPI18method29Ev
	.cfi_startproc
# BB#0:                                 # %entry
	addl	$30, increment_me(%rip)
	retq
.Lfunc_end28:
	.size	_ZN15CSSPropertyAPI18method29Ev, .Lfunc_end28-_ZN15CSSPropertyAPI18method29Ev
	.cfi_endproc
                                        # -- End function
	.globl	_ZN15CSSPropertyAPI18method30Ev # -- Begin function _ZN15CSSPropertyAPI18method30Ev
	.p2align	4, 0x90
	.type	_ZN15CSSPropertyAPI18method30Ev,@function
_ZN15CSSPropertyAPI18method30Ev:        # @_ZN15CSSPropertyAPI18method30Ev
	.cfi_startproc
# BB#0:                                 # %entry
	addl	$31, increment_me(%rip)
	retq
.Lfunc_end29:
	.size	_ZN15CSSPropertyAPI18method30Ev, .Lfunc_end29-_ZN15CSSPropertyAPI18method30Ev
	.cfi_endproc
                                        # -- End function
	.globl	_ZN15CSSPropertyAPI18method31Ev # -- Begin function _ZN15CSSPropertyAPI18method31Ev
	.p2align	4, 0x90
	.type	_ZN15CSSPropertyAPI18method31Ev,@function
_ZN15CSSPropertyAPI18method31Ev:        # @_ZN15CSSPropertyAPI18method31Ev
	.cfi_startproc
# BB#0:                                 # %entry
	addl	$32, increment_me(%rip)
	retq
.Lfunc_end30:
	.size	_ZN15CSSPropertyAPI18method31Ev, .Lfunc_end30-_ZN15CSSPropertyAPI18method31Ev
	.cfi_endproc
                                        # -- End function
	.globl	_ZN15CSSPropertyAPI18method32Ev # -- Begin function _ZN15CSSPropertyAPI18method32Ev
	.p2align	4, 0x90
	.type	_ZN15CSSPropertyAPI18method32Ev,@function
_ZN15CSSPropertyAPI18method32Ev:        # @_ZN15CSSPropertyAPI18method32Ev
	.cfi_startproc
# BB#0:                                 # %entry
	addl	$33, increment_me(%rip)
	retq
.Lfunc_end31:
	.size	_ZN15CSSPropertyAPI18method32Ev, .Lfunc_end31-_ZN15CSSPropertyAPI18method32Ev
	.cfi_endproc
                                        # -- End function
	.globl	_ZN15CSSPropertyAPI18method33Ev # -- Begin function _ZN15CSSPropertyAPI18method33Ev
	.p2align	4, 0x90
	.type	_ZN15CSSPropertyAPI18method33Ev,@function
_ZN15CSSPropertyAPI18method33Ev:        # @_ZN15CSSPropertyAPI18method33Ev
	.cfi_startproc
# BB#0:                                 # %entry
	addl	$34, increment_me(%rip)
	retq
.Lfunc_end32:
	.size	_ZN15CSSPropertyAPI18method33Ev, .Lfunc_end32-_ZN15CSSPropertyAPI18method33Ev
	.cfi_endproc
                                        # -- End function
	.globl	_ZN15CSSPropertyAPI18method34Ev # -- Begin function _ZN15CSSPropertyAPI18method34Ev
	.p2align	4, 0x90
	.type	_ZN15CSSPropertyAPI18method34Ev,@function
_ZN15CSSPropertyAPI18method34Ev:        # @_ZN15CSSPropertyAPI18method34Ev
	.cfi_startproc
# BB#0:                                 # %entry
	addl	$35, increment_me(%rip)
	retq
.Lfunc_end33:
	.size	_ZN15CSSPropertyAPI18method34Ev, .Lfunc_end33-_ZN15CSSPropertyAPI18method34Ev
	.cfi_endproc
                                        # -- End function
	.globl	_ZN15CSSPropertyAPI18method35Ev # -- Begin function _ZN15CSSPropertyAPI18method35Ev
	.p2align	4, 0x90
	.type	_ZN15CSSPropertyAPI18method35Ev,@function
_ZN15CSSPropertyAPI18method35Ev:        # @_ZN15CSSPropertyAPI18method35Ev
	.cfi_startproc
# BB#0:                                 # %entry
	addl	$36, increment_me(%rip)
	retq
.Lfunc_end34:
	.size	_ZN15CSSPropertyAPI18method35Ev, .Lfunc_end34-_ZN15CSSPropertyAPI18method35Ev
	.cfi_endproc
                                        # -- End function
	.globl	_ZN15CSSPropertyAPI18method36Ev # -- Begin function _ZN15CSSPropertyAPI18method36Ev
	.p2align	4, 0x90
	.type	_ZN15CSSPropertyAPI18method36Ev,@function
_ZN15CSSPropertyAPI18method36Ev:        # @_ZN15CSSPropertyAPI18method36Ev
	.cfi_startproc
# BB#0:                                 # %entry
	addl	$37, increment_me(%rip)
	retq
.Lfunc_end35:
	.size	_ZN15CSSPropertyAPI18method36Ev, .Lfunc_end35-_ZN15CSSPropertyAPI18method36Ev
	.cfi_endproc
                                        # -- End function
	.globl	_ZN15CSSPropertyAPI18method37Ev # -- Begin function _ZN15CSSPropertyAPI18method37Ev
	.p2align	4, 0x90
	.type	_ZN15CSSPropertyAPI18method37Ev,@function
_ZN15CSSPropertyAPI18method37Ev:        # @_ZN15CSSPropertyAPI18method37Ev
	.cfi_startproc
# BB#0:                                 # %entry
	addl	$38, increment_me(%rip)
	retq
.Lfunc_end36:
	.size	_ZN15CSSPropertyAPI18method37Ev, .Lfunc_end36-_ZN15CSSPropertyAPI18method37Ev
	.cfi_endproc
                                        # -- End function
	.globl	_ZN15CSSPropertyAPI18method38Ev # -- Begin function _ZN15CSSPropertyAPI18method38Ev
	.p2align	4, 0x90
	.type	_ZN15CSSPropertyAPI18method38Ev,@function
_ZN15CSSPropertyAPI18method38Ev:        # @_ZN15CSSPropertyAPI18method38Ev
	.cfi_startproc
# BB#0:                                 # %entry
	addl	$39, increment_me(%rip)
	retq
.Lfunc_end37:
	.size	_ZN15CSSPropertyAPI18method38Ev, .Lfunc_end37-_ZN15CSSPropertyAPI18method38Ev
	.cfi_endproc
                                        # -- End function
	.globl	_ZN15CSSPropertyAPI18method39Ev # -- Begin function _ZN15CSSPropertyAPI18method39Ev
	.p2align	4, 0x90
	.type	_ZN15CSSPropertyAPI18method39Ev,@function
_ZN15CSSPropertyAPI18method39Ev:        # @_ZN15CSSPropertyAPI18method39Ev
	.cfi_startproc
# BB#0:                                 # %entry
	addl	$40, increment_me(%rip)
	retq
.Lfunc_end38:
	.size	_ZN15CSSPropertyAPI18method39Ev, .Lfunc_end38-_ZN15CSSPropertyAPI18method39Ev
	.cfi_endproc
                                        # -- End function
	.globl	_ZN15CSSPropertyAPI18method40Ev # -- Begin function _ZN15CSSPropertyAPI18method40Ev
	.p2align	4, 0x90
	.type	_ZN15CSSPropertyAPI18method40Ev,@function
_ZN15CSSPropertyAPI18method40Ev:        # @_ZN15CSSPropertyAPI18method40Ev
	.cfi_startproc
# BB#0:                                 # %entry
	addl	$41, increment_me(%rip)
	retq
.Lfunc_end39:
	.size	_ZN15CSSPropertyAPI18method40Ev, .Lfunc_end39-_ZN15CSSPropertyAPI18method40Ev
	.cfi_endproc
                                        # -- End function
	.globl	_ZN15CSSPropertyAPI18method41Ev # -- Begin function _ZN15CSSPropertyAPI18method41Ev
	.p2align	4, 0x90
	.type	_ZN15CSSPropertyAPI18method41Ev,@function
_ZN15CSSPropertyAPI18method41Ev:        # @_ZN15CSSPropertyAPI18method41Ev
	.cfi_startproc
# BB#0:                                 # %entry
	addl	$42, increment_me(%rip)
	retq
.Lfunc_end40:
	.size	_ZN15CSSPropertyAPI18method41Ev, .Lfunc_end40-_ZN15CSSPropertyAPI18method41Ev
	.cfi_endproc
                                        # -- End function
	.globl	_ZN15CSSPropertyAPI18method42Ev # -- Begin function _ZN15CSSPropertyAPI18method42Ev
	.p2align	4, 0x90
	.type	_ZN15CSSPropertyAPI18method42Ev,@function
_ZN15CSSPropertyAPI18method42Ev:        # @_ZN15CSSPropertyAPI18method42Ev
	.cfi_startproc
# BB#0:                                 # %entry
	addl	$43, increment_me(%rip)
	retq
.Lfunc_end41:
	.size	_ZN15CSSPropertyAPI18method42Ev, .Lfunc_end41-_ZN15CSSPropertyAPI18method42Ev
	.cfi_endproc
                                        # -- End function
	.globl	_ZN15CSSPropertyAPI18method43Ev # -- Begin function _ZN15CSSPropertyAPI18method43Ev
	.p2align	4, 0x90
	.type	_ZN15CSSPropertyAPI18method43Ev,@function
_ZN15CSSPropertyAPI18method43Ev:        # @_ZN15CSSPropertyAPI18method43Ev
	.cfi_startproc
# BB#0:                                 # %entry
	addl	$44, increment_me(%rip)
	retq
.Lfunc_end42:
	.size	_ZN15CSSPropertyAPI18method43Ev, .Lfunc_end42-_ZN15CSSPropertyAPI18method43Ev
	.cfi_endproc
                                        # -- End function
	.globl	_ZN15CSSPropertyAPI18method44Ev # -- Begin function _ZN15CSSPropertyAPI18method44Ev
	.p2align	4, 0x90
	.type	_ZN15CSSPropertyAPI18method44Ev,@function
_ZN15CSSPropertyAPI18method44Ev:        # @_ZN15CSSPropertyAPI18method44Ev
	.cfi_startproc
# BB#0:                                 # %entry
	addl	$45, increment_me(%rip)
	retq
.Lfunc_end43:
	.size	_ZN15CSSPropertyAPI18method44Ev, .Lfunc_end43-_ZN15CSSPropertyAPI18method44Ev
	.cfi_endproc
                                        # -- End function
	.globl	_ZN15CSSPropertyAPI18method45Ev # -- Begin function _ZN15CSSPropertyAPI18method45Ev
	.p2align	4, 0x90
	.type	_ZN15CSSPropertyAPI18method45Ev,@function
_ZN15CSSPropertyAPI18method45Ev:        # @_ZN15CSSPropertyAPI18method45Ev
	.cfi_startproc
# BB#0:                                 # %entry
	addl	$46, increment_me(%rip)
	retq
.Lfunc_end44:
	.size	_ZN15CSSPropertyAPI18method45Ev, .Lfunc_end44-_ZN15CSSPropertyAPI18method45Ev
	.cfi_endproc
                                        # -- End function
	.globl	_ZN15CSSPropertyAPI18method46Ev # -- Begin function _ZN15CSSPropertyAPI18method46Ev
	.p2align	4, 0x90
	.type	_ZN15CSSPropertyAPI18method46Ev,@function
_ZN15CSSPropertyAPI18method46Ev:        # @_ZN15CSSPropertyAPI18method46Ev
	.cfi_startproc
# BB#0:                                 # %entry
	addl	$47, increment_me(%rip)
	retq
.Lfunc_end45:
	.size	_ZN15CSSPropertyAPI18method46Ev, .Lfunc_end45-_ZN15CSSPropertyAPI18method46Ev
	.cfi_endproc
                                        # -- End function
	.globl	_ZN15CSSPropertyAPI18method47Ev # -- Begin function _ZN15CSSPropertyAPI18method47Ev
	.p2align	4, 0x90
	.type	_ZN15CSSPropertyAPI18method47Ev,@function
_ZN15CSSPropertyAPI18method47Ev:        # @_ZN15CSSPropertyAPI18method47Ev
	.cfi_startproc
# BB#0:                                 # %entry
	addl	$48, increment_me(%rip)
	retq
.Lfunc_end46:
	.size	_ZN15CSSPropertyAPI18method47Ev, .Lfunc_end46-_ZN15CSSPropertyAPI18method47Ev
	.cfi_endproc
                                        # -- End function
	.globl	_ZN15CSSPropertyAPI18method48Ev # -- Begin function _ZN15CSSPropertyAPI18method48Ev
	.p2align	4, 0x90
	.type	_ZN15CSSPropertyAPI18method48Ev,@function
_ZN15CSSPropertyAPI18method48Ev:        # @_ZN15CSSPropertyAPI18method48Ev
	.cfi_startproc
# BB#0:                                 # %entry
	addl	$49, increment_me(%rip)
	retq
.Lfunc_end47:
	.size	_ZN15CSSPropertyAPI18method48Ev, .Lfunc_end47-_ZN15CSSPropertyAPI18method48Ev
	.cfi_endproc
                                        # -- End function
	.globl	_ZN15CSSPropertyAPI18method49Ev # -- Begin function _ZN15CSSPropertyAPI18method49Ev
	.p2align	4, 0x90
	.type	_ZN15CSSPropertyAPI18method49Ev,@function
_ZN15CSSPropertyAPI18method49Ev:        # @_ZN15CSSPropertyAPI18method49Ev
	.cfi_startproc
# BB#0:                                 # %entry
	addl	$50, increment_me(%rip)
	retq
.Lfunc_end48:
	.size	_ZN15CSSPropertyAPI18method49Ev, .Lfunc_end48-_ZN15CSSPropertyAPI18method49Ev
	.cfi_endproc
                                        # -- End function
	.globl	_ZN15CSSPropertyAPI18method50Ev # -- Begin function _ZN15CSSPropertyAPI18method50Ev
	.p2align	4, 0x90
	.type	_ZN15CSSPropertyAPI18method50Ev,@function
_ZN15CSSPropertyAPI18method50Ev:        # @_ZN15CSSPropertyAPI18method50Ev
	.cfi_startproc
# BB#0:                                 # %entry
	addl	$51, increment_me(%rip)
	retq
.Lfunc_end49:
	.size	_ZN15CSSPropertyAPI18method50Ev, .Lfunc_end49-_ZN15CSSPropertyAPI18method50Ev
	.cfi_endproc
                                        # -- End function
	.globl	_ZN15CSSPropertyAPI27method1Ev # -- Begin function _ZN15CSSPropertyAPI27method1Ev
	.p2align	4, 0x90
	.type	_ZN15CSSPropertyAPI27method1Ev,@function
_ZN15CSSPropertyAPI27method1Ev:         # @_ZN15CSSPropertyAPI27method1Ev
	.cfi_startproc
# BB#0:                                 # %entry
	addl	$3, increment_me(%rip)
	retq
.Lfunc_end50:
	.size	_ZN15CSSPropertyAPI27method1Ev, .Lfunc_end50-_ZN15CSSPropertyAPI27method1Ev
	.cfi_endproc
                                        # -- End function
	.globl	_ZN15CSSPropertyAPI27method2Ev # -- Begin function _ZN15CSSPropertyAPI27method2Ev
	.p2align	4, 0x90
	.type	_ZN15CSSPropertyAPI27method2Ev,@function
_ZN15CSSPropertyAPI27method2Ev:         # @_ZN15CSSPropertyAPI27method2Ev
	.cfi_startproc
# BB#0:                                 # %entry
	addl	$4, increment_me(%rip)
	retq
.Lfunc_end51:
	.size	_ZN15CSSPropertyAPI27method2Ev, .Lfunc_end51-_ZN15CSSPropertyAPI27method2Ev
	.cfi_endproc
                                        # -- End function
	.globl	_ZN15CSSPropertyAPI27method3Ev # -- Begin function _ZN15CSSPropertyAPI27method3Ev
	.p2align	4, 0x90
	.type	_ZN15CSSPropertyAPI27method3Ev,@function
_ZN15CSSPropertyAPI27method3Ev:         # @_ZN15CSSPropertyAPI27method3Ev
	.cfi_startproc
# BB#0:                                 # %entry
	addl	$5, increment_me(%rip)
	retq
.Lfunc_end52:
	.size	_ZN15CSSPropertyAPI27method3Ev, .Lfunc_end52-_ZN15CSSPropertyAPI27method3Ev
	.cfi_endproc
                                        # -- End function
	.globl	_ZN15CSSPropertyAPI27method4Ev # -- Begin function _ZN15CSSPropertyAPI27method4Ev
	.p2align	4, 0x90
	.type	_ZN15CSSPropertyAPI27method4Ev,@function
_ZN15CSSPropertyAPI27method4Ev:         # @_ZN15CSSPropertyAPI27method4Ev
	.cfi_startproc
# BB#0:                                 # %entry
	addl	$6, increment_me(%rip)
	retq
.Lfunc_end53:
	.size	_ZN15CSSPropertyAPI27method4Ev, .Lfunc_end53-_ZN15CSSPropertyAPI27method4Ev
	.cfi_endproc
                                        # -- End function
	.globl	_ZN15CSSPropertyAPI27method5Ev # -- Begin function _ZN15CSSPropertyAPI27method5Ev
	.p2align	4, 0x90
	.type	_ZN15CSSPropertyAPI27method5Ev,@function
_ZN15CSSPropertyAPI27method5Ev:         # @_ZN15CSSPropertyAPI27method5Ev
	.cfi_startproc
# BB#0:                                 # %entry
	addl	$7, increment_me(%rip)
	retq
.Lfunc_end54:
	.size	_ZN15CSSPropertyAPI27method5Ev, .Lfunc_end54-_ZN15CSSPropertyAPI27method5Ev
	.cfi_endproc
                                        # -- End function
	.globl	_ZN15CSSPropertyAPI27method6Ev # -- Begin function _ZN15CSSPropertyAPI27method6Ev
	.p2align	4, 0x90
	.type	_ZN15CSSPropertyAPI27method6Ev,@function
_ZN15CSSPropertyAPI27method6Ev:         # @_ZN15CSSPropertyAPI27method6Ev
	.cfi_startproc
# BB#0:                                 # %entry
	addl	$8, increment_me(%rip)
	retq
.Lfunc_end55:
	.size	_ZN15CSSPropertyAPI27method6Ev, .Lfunc_end55-_ZN15CSSPropertyAPI27method6Ev
	.cfi_endproc
                                        # -- End function
	.globl	_ZN15CSSPropertyAPI27method7Ev # -- Begin function _ZN15CSSPropertyAPI27method7Ev
	.p2align	4, 0x90
	.type	_ZN15CSSPropertyAPI27method7Ev,@function
_ZN15CSSPropertyAPI27method7Ev:         # @_ZN15CSSPropertyAPI27method7Ev
	.cfi_startproc
# BB#0:                                 # %entry
	addl	$9, increment_me(%rip)
	retq
.Lfunc_end56:
	.size	_ZN15CSSPropertyAPI27method7Ev, .Lfunc_end56-_ZN15CSSPropertyAPI27method7Ev
	.cfi_endproc
                                        # -- End function
	.globl	_ZN15CSSPropertyAPI27method8Ev # -- Begin function _ZN15CSSPropertyAPI27method8Ev
	.p2align	4, 0x90
	.type	_ZN15CSSPropertyAPI27method8Ev,@function
_ZN15CSSPropertyAPI27method8Ev:         # @_ZN15CSSPropertyAPI27method8Ev
	.cfi_startproc
# BB#0:                                 # %entry
	addl	$10, increment_me(%rip)
	retq
.Lfunc_end57:
	.size	_ZN15CSSPropertyAPI27method8Ev, .Lfunc_end57-_ZN15CSSPropertyAPI27method8Ev
	.cfi_endproc
                                        # -- End function
	.globl	_ZN15CSSPropertyAPI27method9Ev # -- Begin function _ZN15CSSPropertyAPI27method9Ev
	.p2align	4, 0x90
	.type	_ZN15CSSPropertyAPI27method9Ev,@function
_ZN15CSSPropertyAPI27method9Ev:         # @_ZN15CSSPropertyAPI27method9Ev
	.cfi_startproc
# BB#0:                                 # %entry
	addl	$11, increment_me(%rip)
	retq
.Lfunc_end58:
	.size	_ZN15CSSPropertyAPI27method9Ev, .Lfunc_end58-_ZN15CSSPropertyAPI27method9Ev
	.cfi_endproc
                                        # -- End function
	.globl	_ZN15CSSPropertyAPI28method10Ev # -- Begin function _ZN15CSSPropertyAPI28method10Ev
	.p2align	4, 0x90
	.type	_ZN15CSSPropertyAPI28method10Ev,@function
_ZN15CSSPropertyAPI28method10Ev:        # @_ZN15CSSPropertyAPI28method10Ev
	.cfi_startproc
# BB#0:                                 # %entry
	addl	$12, increment_me(%rip)
	retq
.Lfunc_end59:
	.size	_ZN15CSSPropertyAPI28method10Ev, .Lfunc_end59-_ZN15CSSPropertyAPI28method10Ev
	.cfi_endproc
                                        # -- End function
	.globl	_ZN15CSSPropertyAPI28method11Ev # -- Begin function _ZN15CSSPropertyAPI28method11Ev
	.p2align	4, 0x90
	.type	_ZN15CSSPropertyAPI28method11Ev,@function
_ZN15CSSPropertyAPI28method11Ev:        # @_ZN15CSSPropertyAPI28method11Ev
	.cfi_startproc
# BB#0:                                 # %entry
	addl	$13, increment_me(%rip)
	retq
.Lfunc_end60:
	.size	_ZN15CSSPropertyAPI28method11Ev, .Lfunc_end60-_ZN15CSSPropertyAPI28method11Ev
	.cfi_endproc
                                        # -- End function
	.globl	_ZN15CSSPropertyAPI28method12Ev # -- Begin function _ZN15CSSPropertyAPI28method12Ev
	.p2align	4, 0x90
	.type	_ZN15CSSPropertyAPI28method12Ev,@function
_ZN15CSSPropertyAPI28method12Ev:        # @_ZN15CSSPropertyAPI28method12Ev
	.cfi_startproc
# BB#0:                                 # %entry
	addl	$14, increment_me(%rip)
	retq
.Lfunc_end61:
	.size	_ZN15CSSPropertyAPI28method12Ev, .Lfunc_end61-_ZN15CSSPropertyAPI28method12Ev
	.cfi_endproc
                                        # -- End function
	.globl	_ZN15CSSPropertyAPI28method13Ev # -- Begin function _ZN15CSSPropertyAPI28method13Ev
	.p2align	4, 0x90
	.type	_ZN15CSSPropertyAPI28method13Ev,@function
_ZN15CSSPropertyAPI28method13Ev:        # @_ZN15CSSPropertyAPI28method13Ev
	.cfi_startproc
# BB#0:                                 # %entry
	addl	$15, increment_me(%rip)
	retq
.Lfunc_end62:
	.size	_ZN15CSSPropertyAPI28method13Ev, .Lfunc_end62-_ZN15CSSPropertyAPI28method13Ev
	.cfi_endproc
                                        # -- End function
	.globl	_ZN15CSSPropertyAPI28method14Ev # -- Begin function _ZN15CSSPropertyAPI28method14Ev
	.p2align	4, 0x90
	.type	_ZN15CSSPropertyAPI28method14Ev,@function
_ZN15CSSPropertyAPI28method14Ev:        # @_ZN15CSSPropertyAPI28method14Ev
	.cfi_startproc
# BB#0:                                 # %entry
	addl	$16, increment_me(%rip)
	retq
.Lfunc_end63:
	.size	_ZN15CSSPropertyAPI28method14Ev, .Lfunc_end63-_ZN15CSSPropertyAPI28method14Ev
	.cfi_endproc
                                        # -- End function
	.globl	_ZN15CSSPropertyAPI28method15Ev # -- Begin function _ZN15CSSPropertyAPI28method15Ev
	.p2align	4, 0x90
	.type	_ZN15CSSPropertyAPI28method15Ev,@function
_ZN15CSSPropertyAPI28method15Ev:        # @_ZN15CSSPropertyAPI28method15Ev
	.cfi_startproc
# BB#0:                                 # %entry
	addl	$17, increment_me(%rip)
	retq
.Lfunc_end64:
	.size	_ZN15CSSPropertyAPI28method15Ev, .Lfunc_end64-_ZN15CSSPropertyAPI28method15Ev
	.cfi_endproc
                                        # -- End function
	.globl	_ZN15CSSPropertyAPI28method16Ev # -- Begin function _ZN15CSSPropertyAPI28method16Ev
	.p2align	4, 0x90
	.type	_ZN15CSSPropertyAPI28method16Ev,@function
_ZN15CSSPropertyAPI28method16Ev:        # @_ZN15CSSPropertyAPI28method16Ev
	.cfi_startproc
# BB#0:                                 # %entry
	addl	$18, increment_me(%rip)
	retq
.Lfunc_end65:
	.size	_ZN15CSSPropertyAPI28method16Ev, .Lfunc_end65-_ZN15CSSPropertyAPI28method16Ev
	.cfi_endproc
                                        # -- End function
	.globl	_ZN15CSSPropertyAPI28method17Ev # -- Begin function _ZN15CSSPropertyAPI28method17Ev
	.p2align	4, 0x90
	.type	_ZN15CSSPropertyAPI28method17Ev,@function
_ZN15CSSPropertyAPI28method17Ev:        # @_ZN15CSSPropertyAPI28method17Ev
	.cfi_startproc
# BB#0:                                 # %entry
	addl	$19, increment_me(%rip)
	retq
.Lfunc_end66:
	.size	_ZN15CSSPropertyAPI28method17Ev, .Lfunc_end66-_ZN15CSSPropertyAPI28method17Ev
	.cfi_endproc
                                        # -- End function
	.globl	_ZN15CSSPropertyAPI28method18Ev # -- Begin function _ZN15CSSPropertyAPI28method18Ev
	.p2align	4, 0x90
	.type	_ZN15CSSPropertyAPI28method18Ev,@function
_ZN15CSSPropertyAPI28method18Ev:        # @_ZN15CSSPropertyAPI28method18Ev
	.cfi_startproc
# BB#0:                                 # %entry
	addl	$20, increment_me(%rip)
	retq
.Lfunc_end67:
	.size	_ZN15CSSPropertyAPI28method18Ev, .Lfunc_end67-_ZN15CSSPropertyAPI28method18Ev
	.cfi_endproc
                                        # -- End function
	.globl	_ZN15CSSPropertyAPI28method19Ev # -- Begin function _ZN15CSSPropertyAPI28method19Ev
	.p2align	4, 0x90
	.type	_ZN15CSSPropertyAPI28method19Ev,@function
_ZN15CSSPropertyAPI28method19Ev:        # @_ZN15CSSPropertyAPI28method19Ev
	.cfi_startproc
# BB#0:                                 # %entry
	addl	$21, increment_me(%rip)
	retq
.Lfunc_end68:
	.size	_ZN15CSSPropertyAPI28method19Ev, .Lfunc_end68-_ZN15CSSPropertyAPI28method19Ev
	.cfi_endproc
                                        # -- End function
	.globl	_ZN15CSSPropertyAPI28method20Ev # -- Begin function _ZN15CSSPropertyAPI28method20Ev
	.p2align	4, 0x90
	.type	_ZN15CSSPropertyAPI28method20Ev,@function
_ZN15CSSPropertyAPI28method20Ev:        # @_ZN15CSSPropertyAPI28method20Ev
	.cfi_startproc
# BB#0:                                 # %entry
	addl	$22, increment_me(%rip)
	retq
.Lfunc_end69:
	.size	_ZN15CSSPropertyAPI28method20Ev, .Lfunc_end69-_ZN15CSSPropertyAPI28method20Ev
	.cfi_endproc
                                        # -- End function
	.globl	_ZN15CSSPropertyAPI28method21Ev # -- Begin function _ZN15CSSPropertyAPI28method21Ev
	.p2align	4, 0x90
	.type	_ZN15CSSPropertyAPI28method21Ev,@function
_ZN15CSSPropertyAPI28method21Ev:        # @_ZN15CSSPropertyAPI28method21Ev
	.cfi_startproc
# BB#0:                                 # %entry
	addl	$23, increment_me(%rip)
	retq
.Lfunc_end70:
	.size	_ZN15CSSPropertyAPI28method21Ev, .Lfunc_end70-_ZN15CSSPropertyAPI28method21Ev
	.cfi_endproc
                                        # -- End function
	.globl	_ZN15CSSPropertyAPI28method22Ev # -- Begin function _ZN15CSSPropertyAPI28method22Ev
	.p2align	4, 0x90
	.type	_ZN15CSSPropertyAPI28method22Ev,@function
_ZN15CSSPropertyAPI28method22Ev:        # @_ZN15CSSPropertyAPI28method22Ev
	.cfi_startproc
# BB#0:                                 # %entry
	addl	$24, increment_me(%rip)
	retq
.Lfunc_end71:
	.size	_ZN15CSSPropertyAPI28method22Ev, .Lfunc_end71-_ZN15CSSPropertyAPI28method22Ev
	.cfi_endproc
                                        # -- End function
	.globl	_ZN15CSSPropertyAPI28method23Ev # -- Begin function _ZN15CSSPropertyAPI28method23Ev
	.p2align	4, 0x90
	.type	_ZN15CSSPropertyAPI28method23Ev,@function
_ZN15CSSPropertyAPI28method23Ev:        # @_ZN15CSSPropertyAPI28method23Ev
	.cfi_startproc
# BB#0:                                 # %entry
	addl	$25, increment_me(%rip)
	retq
.Lfunc_end72:
	.size	_ZN15CSSPropertyAPI28method23Ev, .Lfunc_end72-_ZN15CSSPropertyAPI28method23Ev
	.cfi_endproc
                                        # -- End function
	.globl	_ZN15CSSPropertyAPI28method24Ev # -- Begin function _ZN15CSSPropertyAPI28method24Ev
	.p2align	4, 0x90
	.type	_ZN15CSSPropertyAPI28method24Ev,@function
_ZN15CSSPropertyAPI28method24Ev:        # @_ZN15CSSPropertyAPI28method24Ev
	.cfi_startproc
# BB#0:                                 # %entry
	addl	$26, increment_me(%rip)
	retq
.Lfunc_end73:
	.size	_ZN15CSSPropertyAPI28method24Ev, .Lfunc_end73-_ZN15CSSPropertyAPI28method24Ev
	.cfi_endproc
                                        # -- End function
	.globl	_ZN15CSSPropertyAPI28method25Ev # -- Begin function _ZN15CSSPropertyAPI28method25Ev
	.p2align	4, 0x90
	.type	_ZN15CSSPropertyAPI28method25Ev,@function
_ZN15CSSPropertyAPI28method25Ev:        # @_ZN15CSSPropertyAPI28method25Ev
	.cfi_startproc
# BB#0:                                 # %entry
	addl	$27, increment_me(%rip)
	retq
.Lfunc_end74:
	.size	_ZN15CSSPropertyAPI28method25Ev, .Lfunc_end74-_ZN15CSSPropertyAPI28method25Ev
	.cfi_endproc
                                        # -- End function
	.globl	_ZN15CSSPropertyAPI28method26Ev # -- Begin function _ZN15CSSPropertyAPI28method26Ev
	.p2align	4, 0x90
	.type	_ZN15CSSPropertyAPI28method26Ev,@function
_ZN15CSSPropertyAPI28method26Ev:        # @_ZN15CSSPropertyAPI28method26Ev
	.cfi_startproc
# BB#0:                                 # %entry
	addl	$28, increment_me(%rip)
	retq
.Lfunc_end75:
	.size	_ZN15CSSPropertyAPI28method26Ev, .Lfunc_end75-_ZN15CSSPropertyAPI28method26Ev
	.cfi_endproc
                                        # -- End function
	.globl	_ZN15CSSPropertyAPI28method27Ev # -- Begin function _ZN15CSSPropertyAPI28method27Ev
	.p2align	4, 0x90
	.type	_ZN15CSSPropertyAPI28method27Ev,@function
_ZN15CSSPropertyAPI28method27Ev:        # @_ZN15CSSPropertyAPI28method27Ev
	.cfi_startproc
# BB#0:                                 # %entry
	addl	$29, increment_me(%rip)
	retq
.Lfunc_end76:
	.size	_ZN15CSSPropertyAPI28method27Ev, .Lfunc_end76-_ZN15CSSPropertyAPI28method27Ev
	.cfi_endproc
                                        # -- End function
	.globl	_ZN15CSSPropertyAPI28method28Ev # -- Begin function _ZN15CSSPropertyAPI28method28Ev
	.p2align	4, 0x90
	.type	_ZN15CSSPropertyAPI28method28Ev,@function
_ZN15CSSPropertyAPI28method28Ev:        # @_ZN15CSSPropertyAPI28method28Ev
	.cfi_startproc
# BB#0:                                 # %entry
	addl	$30, increment_me(%rip)
	retq
.Lfunc_end77:
	.size	_ZN15CSSPropertyAPI28method28Ev, .Lfunc_end77-_ZN15CSSPropertyAPI28method28Ev
	.cfi_endproc
                                        # -- End function
	.globl	_ZN15CSSPropertyAPI28method29Ev # -- Begin function _ZN15CSSPropertyAPI28method29Ev
	.p2align	4, 0x90
	.type	_ZN15CSSPropertyAPI28method29Ev,@function
_ZN15CSSPropertyAPI28method29Ev:        # @_ZN15CSSPropertyAPI28method29Ev
	.cfi_startproc
# BB#0:                                 # %entry
	addl	$31, increment_me(%rip)
	retq
.Lfunc_end78:
	.size	_ZN15CSSPropertyAPI28method29Ev, .Lfunc_end78-_ZN15CSSPropertyAPI28method29Ev
	.cfi_endproc
                                        # -- End function
	.globl	_ZN15CSSPropertyAPI28method30Ev # -- Begin function _ZN15CSSPropertyAPI28method30Ev
	.p2align	4, 0x90
	.type	_ZN15CSSPropertyAPI28method30Ev,@function
_ZN15CSSPropertyAPI28method30Ev:        # @_ZN15CSSPropertyAPI28method30Ev
	.cfi_startproc
# BB#0:                                 # %entry
	addl	$32, increment_me(%rip)
	retq
.Lfunc_end79:
	.size	_ZN15CSSPropertyAPI28method30Ev, .Lfunc_end79-_ZN15CSSPropertyAPI28method30Ev
	.cfi_endproc
                                        # -- End function
	.globl	_ZN15CSSPropertyAPI28method31Ev # -- Begin function _ZN15CSSPropertyAPI28method31Ev
	.p2align	4, 0x90
	.type	_ZN15CSSPropertyAPI28method31Ev,@function
_ZN15CSSPropertyAPI28method31Ev:        # @_ZN15CSSPropertyAPI28method31Ev
	.cfi_startproc
# BB#0:                                 # %entry
	addl	$33, increment_me(%rip)
	retq
.Lfunc_end80:
	.size	_ZN15CSSPropertyAPI28method31Ev, .Lfunc_end80-_ZN15CSSPropertyAPI28method31Ev
	.cfi_endproc
                                        # -- End function
	.globl	_ZN15CSSPropertyAPI28method32Ev # -- Begin function _ZN15CSSPropertyAPI28method32Ev
	.p2align	4, 0x90
	.type	_ZN15CSSPropertyAPI28method32Ev,@function
_ZN15CSSPropertyAPI28method32Ev:        # @_ZN15CSSPropertyAPI28method32Ev
	.cfi_startproc
# BB#0:                                 # %entry
	addl	$34, increment_me(%rip)
	retq
.Lfunc_end81:
	.size	_ZN15CSSPropertyAPI28method32Ev, .Lfunc_end81-_ZN15CSSPropertyAPI28method32Ev
	.cfi_endproc
                                        # -- End function
	.globl	_ZN15CSSPropertyAPI28method33Ev # -- Begin function _ZN15CSSPropertyAPI28method33Ev
	.p2align	4, 0x90
	.type	_ZN15CSSPropertyAPI28method33Ev,@function
_ZN15CSSPropertyAPI28method33Ev:        # @_ZN15CSSPropertyAPI28method33Ev
	.cfi_startproc
# BB#0:                                 # %entry
	addl	$35, increment_me(%rip)
	retq
.Lfunc_end82:
	.size	_ZN15CSSPropertyAPI28method33Ev, .Lfunc_end82-_ZN15CSSPropertyAPI28method33Ev
	.cfi_endproc
                                        # -- End function
	.globl	_ZN15CSSPropertyAPI28method34Ev # -- Begin function _ZN15CSSPropertyAPI28method34Ev
	.p2align	4, 0x90
	.type	_ZN15CSSPropertyAPI28method34Ev,@function
_ZN15CSSPropertyAPI28method34Ev:        # @_ZN15CSSPropertyAPI28method34Ev
	.cfi_startproc
# BB#0:                                 # %entry
	addl	$36, increment_me(%rip)
	retq
.Lfunc_end83:
	.size	_ZN15CSSPropertyAPI28method34Ev, .Lfunc_end83-_ZN15CSSPropertyAPI28method34Ev
	.cfi_endproc
                                        # -- End function
	.globl	_ZN15CSSPropertyAPI28method35Ev # -- Begin function _ZN15CSSPropertyAPI28method35Ev
	.p2align	4, 0x90
	.type	_ZN15CSSPropertyAPI28method35Ev,@function
_ZN15CSSPropertyAPI28method35Ev:        # @_ZN15CSSPropertyAPI28method35Ev
	.cfi_startproc
# BB#0:                                 # %entry
	addl	$37, increment_me(%rip)
	retq
.Lfunc_end84:
	.size	_ZN15CSSPropertyAPI28method35Ev, .Lfunc_end84-_ZN15CSSPropertyAPI28method35Ev
	.cfi_endproc
                                        # -- End function
	.globl	_ZN15CSSPropertyAPI28method36Ev # -- Begin function _ZN15CSSPropertyAPI28method36Ev
	.p2align	4, 0x90
	.type	_ZN15CSSPropertyAPI28method36Ev,@function
_ZN15CSSPropertyAPI28method36Ev:        # @_ZN15CSSPropertyAPI28method36Ev
	.cfi_startproc
# BB#0:                                 # %entry
	addl	$38, increment_me(%rip)
	retq
.Lfunc_end85:
	.size	_ZN15CSSPropertyAPI28method36Ev, .Lfunc_end85-_ZN15CSSPropertyAPI28method36Ev
	.cfi_endproc
                                        # -- End function
	.globl	_ZN15CSSPropertyAPI28method37Ev # -- Begin function _ZN15CSSPropertyAPI28method37Ev
	.p2align	4, 0x90
	.type	_ZN15CSSPropertyAPI28method37Ev,@function
_ZN15CSSPropertyAPI28method37Ev:        # @_ZN15CSSPropertyAPI28method37Ev
	.cfi_startproc
# BB#0:                                 # %entry
	addl	$39, increment_me(%rip)
	retq
.Lfunc_end86:
	.size	_ZN15CSSPropertyAPI28method37Ev, .Lfunc_end86-_ZN15CSSPropertyAPI28method37Ev
	.cfi_endproc
                                        # -- End function
	.globl	_ZN15CSSPropertyAPI28method38Ev # -- Begin function _ZN15CSSPropertyAPI28method38Ev
	.p2align	4, 0x90
	.type	_ZN15CSSPropertyAPI28method38Ev,@function
_ZN15CSSPropertyAPI28method38Ev:        # @_ZN15CSSPropertyAPI28method38Ev
	.cfi_startproc
# BB#0:                                 # %entry
	addl	$40, increment_me(%rip)
	retq
.Lfunc_end87:
	.size	_ZN15CSSPropertyAPI28method38Ev, .Lfunc_end87-_ZN15CSSPropertyAPI28method38Ev
	.cfi_endproc
                                        # -- End function
	.globl	_ZN15CSSPropertyAPI28method39Ev # -- Begin function _ZN15CSSPropertyAPI28method39Ev
	.p2align	4, 0x90
	.type	_ZN15CSSPropertyAPI28method39Ev,@function
_ZN15CSSPropertyAPI28method39Ev:        # @_ZN15CSSPropertyAPI28method39Ev
	.cfi_startproc
# BB#0:                                 # %entry
	addl	$41, increment_me(%rip)
	retq
.Lfunc_end88:
	.size	_ZN15CSSPropertyAPI28method39Ev, .Lfunc_end88-_ZN15CSSPropertyAPI28method39Ev
	.cfi_endproc
                                        # -- End function
	.globl	_ZN15CSSPropertyAPI28method40Ev # -- Begin function _ZN15CSSPropertyAPI28method40Ev
	.p2align	4, 0x90
	.type	_ZN15CSSPropertyAPI28method40Ev,@function
_ZN15CSSPropertyAPI28method40Ev:        # @_ZN15CSSPropertyAPI28method40Ev
	.cfi_startproc
# BB#0:                                 # %entry
	addl	$42, increment_me(%rip)
	retq
.Lfunc_end89:
	.size	_ZN15CSSPropertyAPI28method40Ev, .Lfunc_end89-_ZN15CSSPropertyAPI28method40Ev
	.cfi_endproc
                                        # -- End function
	.globl	_ZN15CSSPropertyAPI28method41Ev # -- Begin function _ZN15CSSPropertyAPI28method41Ev
	.p2align	4, 0x90
	.type	_ZN15CSSPropertyAPI28method41Ev,@function
_ZN15CSSPropertyAPI28method41Ev:        # @_ZN15CSSPropertyAPI28method41Ev
	.cfi_startproc
# BB#0:                                 # %entry
	addl	$43, increment_me(%rip)
	retq
.Lfunc_end90:
	.size	_ZN15CSSPropertyAPI28method41Ev, .Lfunc_end90-_ZN15CSSPropertyAPI28method41Ev
	.cfi_endproc
                                        # -- End function
	.globl	_ZN15CSSPropertyAPI28method42Ev # -- Begin function _ZN15CSSPropertyAPI28method42Ev
	.p2align	4, 0x90
	.type	_ZN15CSSPropertyAPI28method42Ev,@function
_ZN15CSSPropertyAPI28method42Ev:        # @_ZN15CSSPropertyAPI28method42Ev
	.cfi_startproc
# BB#0:                                 # %entry
	addl	$44, increment_me(%rip)
	retq
.Lfunc_end91:
	.size	_ZN15CSSPropertyAPI28method42Ev, .Lfunc_end91-_ZN15CSSPropertyAPI28method42Ev
	.cfi_endproc
                                        # -- End function
	.globl	_ZN15CSSPropertyAPI28method43Ev # -- Begin function _ZN15CSSPropertyAPI28method43Ev
	.p2align	4, 0x90
	.type	_ZN15CSSPropertyAPI28method43Ev,@function
_ZN15CSSPropertyAPI28method43Ev:        # @_ZN15CSSPropertyAPI28method43Ev
	.cfi_startproc
# BB#0:                                 # %entry
	addl	$45, increment_me(%rip)
	retq
.Lfunc_end92:
	.size	_ZN15CSSPropertyAPI28method43Ev, .Lfunc_end92-_ZN15CSSPropertyAPI28method43Ev
	.cfi_endproc
                                        # -- End function
	.globl	_ZN15CSSPropertyAPI28method44Ev # -- Begin function _ZN15CSSPropertyAPI28method44Ev
	.p2align	4, 0x90
	.type	_ZN15CSSPropertyAPI28method44Ev,@function
_ZN15CSSPropertyAPI28method44Ev:        # @_ZN15CSSPropertyAPI28method44Ev
	.cfi_startproc
# BB#0:                                 # %entry
	addl	$46, increment_me(%rip)
	retq
.Lfunc_end93:
	.size	_ZN15CSSPropertyAPI28method44Ev, .Lfunc_end93-_ZN15CSSPropertyAPI28method44Ev
	.cfi_endproc
                                        # -- End function
	.globl	_ZN15CSSPropertyAPI28method45Ev # -- Begin function _ZN15CSSPropertyAPI28method45Ev
	.p2align	4, 0x90
	.type	_ZN15CSSPropertyAPI28method45Ev,@function
_ZN15CSSPropertyAPI28method45Ev:        # @_ZN15CSSPropertyAPI28method45Ev
	.cfi_startproc
# BB#0:                                 # %entry
	addl	$47, increment_me(%rip)
	retq
.Lfunc_end94:
	.size	_ZN15CSSPropertyAPI28method45Ev, .Lfunc_end94-_ZN15CSSPropertyAPI28method45Ev
	.cfi_endproc
                                        # -- End function
	.globl	_ZN15CSSPropertyAPI28method46Ev # -- Begin function _ZN15CSSPropertyAPI28method46Ev
	.p2align	4, 0x90
	.type	_ZN15CSSPropertyAPI28method46Ev,@function
_ZN15CSSPropertyAPI28method46Ev:        # @_ZN15CSSPropertyAPI28method46Ev
	.cfi_startproc
# BB#0:                                 # %entry
	addl	$48, increment_me(%rip)
	retq
.Lfunc_end95:
	.size	_ZN15CSSPropertyAPI28method46Ev, .Lfunc_end95-_ZN15CSSPropertyAPI28method46Ev
	.cfi_endproc
                                        # -- End function
	.globl	_ZN15CSSPropertyAPI28method47Ev # -- Begin function _ZN15CSSPropertyAPI28method47Ev
	.p2align	4, 0x90
	.type	_ZN15CSSPropertyAPI28method47Ev,@function
_ZN15CSSPropertyAPI28method47Ev:        # @_ZN15CSSPropertyAPI28method47Ev
	.cfi_startproc
# BB#0:                                 # %entry
	addl	$49, increment_me(%rip)
	retq
.Lfunc_end96:
	.size	_ZN15CSSPropertyAPI28method47Ev, .Lfunc_end96-_ZN15CSSPropertyAPI28method47Ev
	.cfi_endproc
                                        # -- End function
	.globl	_ZN15CSSPropertyAPI28method48Ev # -- Begin function _ZN15CSSPropertyAPI28method48Ev
	.p2align	4, 0x90
	.type	_ZN15CSSPropertyAPI28method48Ev,@function
_ZN15CSSPropertyAPI28method48Ev:        # @_ZN15CSSPropertyAPI28method48Ev
	.cfi_startproc
# BB#0:                                 # %entry
	addl	$50, increment_me(%rip)
	retq
.Lfunc_end97:
	.size	_ZN15CSSPropertyAPI28method48Ev, .Lfunc_end97-_ZN15CSSPropertyAPI28method48Ev
	.cfi_endproc
                                        # -- End function
	.globl	_ZN15CSSPropertyAPI28method49Ev # -- Begin function _ZN15CSSPropertyAPI28method49Ev
	.p2align	4, 0x90
	.type	_ZN15CSSPropertyAPI28method49Ev,@function
_ZN15CSSPropertyAPI28method49Ev:        # @_ZN15CSSPropertyAPI28method49Ev
	.cfi_startproc
# BB#0:                                 # %entry
	addl	$51, increment_me(%rip)
	retq
.Lfunc_end98:
	.size	_ZN15CSSPropertyAPI28method49Ev, .Lfunc_end98-_ZN15CSSPropertyAPI28method49Ev
	.cfi_endproc
                                        # -- End function
	.globl	_ZN15CSSPropertyAPI28method50Ev # -- Begin function _ZN15CSSPropertyAPI28method50Ev
	.p2align	4, 0x90
	.type	_ZN15CSSPropertyAPI28method50Ev,@function
_ZN15CSSPropertyAPI28method50Ev:        # @_ZN15CSSPropertyAPI28method50Ev
	.cfi_startproc
# BB#0:                                 # %entry
	addl	$52, increment_me(%rip)
	retq
.Lfunc_end99:
	.size	_ZN15CSSPropertyAPI28method50Ev, .Lfunc_end99-_ZN15CSSPropertyAPI28method50Ev
	.cfi_endproc
                                        # -- End function
	.globl	_ZN15CSSPropertyAPI37method1Ev # -- Begin function _ZN15CSSPropertyAPI37method1Ev
	.p2align	4, 0x90
	.type	_ZN15CSSPropertyAPI37method1Ev,@function
_ZN15CSSPropertyAPI37method1Ev:         # @_ZN15CSSPropertyAPI37method1Ev
	.cfi_startproc
# BB#0:                                 # %entry
	addl	$4, increment_me(%rip)
	retq
.Lfunc_end100:
	.size	_ZN15CSSPropertyAPI37method1Ev, .Lfunc_end100-_ZN15CSSPropertyAPI37method1Ev
	.cfi_endproc
                                        # -- End function
	.globl	_ZN15CSSPropertyAPI37method2Ev # -- Begin function _ZN15CSSPropertyAPI37method2Ev
	.p2align	4, 0x90
	.type	_ZN15CSSPropertyAPI37method2Ev,@function
_ZN15CSSPropertyAPI37method2Ev:         # @_ZN15CSSPropertyAPI37method2Ev
	.cfi_startproc
# BB#0:                                 # %entry
	addl	$5, increment_me(%rip)
	retq
.Lfunc_end101:
	.size	_ZN15CSSPropertyAPI37method2Ev, .Lfunc_end101-_ZN15CSSPropertyAPI37method2Ev
	.cfi_endproc
                                        # -- End function
	.globl	_ZN15CSSPropertyAPI37method3Ev # -- Begin function _ZN15CSSPropertyAPI37method3Ev
	.p2align	4, 0x90
	.type	_ZN15CSSPropertyAPI37method3Ev,@function
_ZN15CSSPropertyAPI37method3Ev:         # @_ZN15CSSPropertyAPI37method3Ev
	.cfi_startproc
# BB#0:                                 # %entry
	addl	$6, increment_me(%rip)
	retq
.Lfunc_end102:
	.size	_ZN15CSSPropertyAPI37method3Ev, .Lfunc_end102-_ZN15CSSPropertyAPI37method3Ev
	.cfi_endproc
                                        # -- End function
	.globl	_ZN15CSSPropertyAPI37method4Ev # -- Begin function _ZN15CSSPropertyAPI37method4Ev
	.p2align	4, 0x90
	.type	_ZN15CSSPropertyAPI37method4Ev,@function
_ZN15CSSPropertyAPI37method4Ev:         # @_ZN15CSSPropertyAPI37method4Ev
	.cfi_startproc
# BB#0:                                 # %entry
	addl	$7, increment_me(%rip)
	retq
.Lfunc_end103:
	.size	_ZN15CSSPropertyAPI37method4Ev, .Lfunc_end103-_ZN15CSSPropertyAPI37method4Ev
	.cfi_endproc
                                        # -- End function
	.globl	_ZN15CSSPropertyAPI37method5Ev # -- Begin function _ZN15CSSPropertyAPI37method5Ev
	.p2align	4, 0x90
	.type	_ZN15CSSPropertyAPI37method5Ev,@function
_ZN15CSSPropertyAPI37method5Ev:         # @_ZN15CSSPropertyAPI37method5Ev
	.cfi_startproc
# BB#0:                                 # %entry
	addl	$8, increment_me(%rip)
	retq
.Lfunc_end104:
	.size	_ZN15CSSPropertyAPI37method5Ev, .Lfunc_end104-_ZN15CSSPropertyAPI37method5Ev
	.cfi_endproc
                                        # -- End function
	.globl	_ZN15CSSPropertyAPI37method6Ev # -- Begin function _ZN15CSSPropertyAPI37method6Ev
	.p2align	4, 0x90
	.type	_ZN15CSSPropertyAPI37method6Ev,@function
_ZN15CSSPropertyAPI37method6Ev:         # @_ZN15CSSPropertyAPI37method6Ev
	.cfi_startproc
# BB#0:                                 # %entry
	addl	$9, increment_me(%rip)
	retq
.Lfunc_end105:
	.size	_ZN15CSSPropertyAPI37method6Ev, .Lfunc_end105-_ZN15CSSPropertyAPI37method6Ev
	.cfi_endproc
                                        # -- End function
	.globl	_ZN15CSSPropertyAPI37method7Ev # -- Begin function _ZN15CSSPropertyAPI37method7Ev
	.p2align	4, 0x90
	.type	_ZN15CSSPropertyAPI37method7Ev,@function
_ZN15CSSPropertyAPI37method7Ev:         # @_ZN15CSSPropertyAPI37method7Ev
	.cfi_startproc
# BB#0:                                 # %entry
	addl	$10, increment_me(%rip)
	retq
.Lfunc_end106:
	.size	_ZN15CSSPropertyAPI37method7Ev, .Lfunc_end106-_ZN15CSSPropertyAPI37method7Ev
	.cfi_endproc
                                        # -- End function
	.globl	_ZN15CSSPropertyAPI37method8Ev # -- Begin function _ZN15CSSPropertyAPI37method8Ev
	.p2align	4, 0x90
	.type	_ZN15CSSPropertyAPI37method8Ev,@function
_ZN15CSSPropertyAPI37method8Ev:         # @_ZN15CSSPropertyAPI37method8Ev
	.cfi_startproc
# BB#0:                                 # %entry
	addl	$11, increment_me(%rip)
	retq
.Lfunc_end107:
	.size	_ZN15CSSPropertyAPI37method8Ev, .Lfunc_end107-_ZN15CSSPropertyAPI37method8Ev
	.cfi_endproc
                                        # -- End function
	.globl	_ZN15CSSPropertyAPI37method9Ev # -- Begin function _ZN15CSSPropertyAPI37method9Ev
	.p2align	4, 0x90
	.type	_ZN15CSSPropertyAPI37method9Ev,@function
_ZN15CSSPropertyAPI37method9Ev:         # @_ZN15CSSPropertyAPI37method9Ev
	.cfi_startproc
# BB#0:                                 # %entry
	addl	$12, increment_me(%rip)
	retq
.Lfunc_end108:
	.size	_ZN15CSSPropertyAPI37method9Ev, .Lfunc_end108-_ZN15CSSPropertyAPI37method9Ev
	.cfi_endproc
                                        # -- End function
	.globl	_ZN15CSSPropertyAPI38method10Ev # -- Begin function _ZN15CSSPropertyAPI38method10Ev
	.p2align	4, 0x90
	.type	_ZN15CSSPropertyAPI38method10Ev,@function
_ZN15CSSPropertyAPI38method10Ev:        # @_ZN15CSSPropertyAPI38method10Ev
	.cfi_startproc
# BB#0:                                 # %entry
	addl	$13, increment_me(%rip)
	retq
.Lfunc_end109:
	.size	_ZN15CSSPropertyAPI38method10Ev, .Lfunc_end109-_ZN15CSSPropertyAPI38method10Ev
	.cfi_endproc
                                        # -- End function
	.globl	_ZN15CSSPropertyAPI38method11Ev # -- Begin function _ZN15CSSPropertyAPI38method11Ev
	.p2align	4, 0x90
	.type	_ZN15CSSPropertyAPI38method11Ev,@function
_ZN15CSSPropertyAPI38method11Ev:        # @_ZN15CSSPropertyAPI38method11Ev
	.cfi_startproc
# BB#0:                                 # %entry
	addl	$14, increment_me(%rip)
	retq
.Lfunc_end110:
	.size	_ZN15CSSPropertyAPI38method11Ev, .Lfunc_end110-_ZN15CSSPropertyAPI38method11Ev
	.cfi_endproc
                                        # -- End function
	.globl	_ZN15CSSPropertyAPI38method12Ev # -- Begin function _ZN15CSSPropertyAPI38method12Ev
	.p2align	4, 0x90
	.type	_ZN15CSSPropertyAPI38method12Ev,@function
_ZN15CSSPropertyAPI38method12Ev:        # @_ZN15CSSPropertyAPI38method12Ev
	.cfi_startproc
# BB#0:                                 # %entry
	addl	$15, increment_me(%rip)
	retq
.Lfunc_end111:
	.size	_ZN15CSSPropertyAPI38method12Ev, .Lfunc_end111-_ZN15CSSPropertyAPI38method12Ev
	.cfi_endproc
                                        # -- End function
	.globl	_ZN15CSSPropertyAPI38method13Ev # -- Begin function _ZN15CSSPropertyAPI38method13Ev
	.p2align	4, 0x90
	.type	_ZN15CSSPropertyAPI38method13Ev,@function
_ZN15CSSPropertyAPI38method13Ev:        # @_ZN15CSSPropertyAPI38method13Ev
	.cfi_startproc
# BB#0:                                 # %entry
	addl	$16, increment_me(%rip)
	retq
.Lfunc_end112:
	.size	_ZN15CSSPropertyAPI38method13Ev, .Lfunc_end112-_ZN15CSSPropertyAPI38method13Ev
	.cfi_endproc
                                        # -- End function
	.globl	_ZN15CSSPropertyAPI38method14Ev # -- Begin function _ZN15CSSPropertyAPI38method14Ev
	.p2align	4, 0x90
	.type	_ZN15CSSPropertyAPI38method14Ev,@function
_ZN15CSSPropertyAPI38method14Ev:        # @_ZN15CSSPropertyAPI38method14Ev
	.cfi_startproc
# BB#0:                                 # %entry
	addl	$17, increment_me(%rip)
	retq
.Lfunc_end113:
	.size	_ZN15CSSPropertyAPI38method14Ev, .Lfunc_end113-_ZN15CSSPropertyAPI38method14Ev
	.cfi_endproc
                                        # -- End function
	.globl	_ZN15CSSPropertyAPI38method15Ev # -- Begin function _ZN15CSSPropertyAPI38method15Ev
	.p2align	4, 0x90
	.type	_ZN15CSSPropertyAPI38method15Ev,@function
_ZN15CSSPropertyAPI38method15Ev:        # @_ZN15CSSPropertyAPI38method15Ev
	.cfi_startproc
# BB#0:                                 # %entry
	addl	$18, increment_me(%rip)
	retq
.Lfunc_end114:
	.size	_ZN15CSSPropertyAPI38method15Ev, .Lfunc_end114-_ZN15CSSPropertyAPI38method15Ev
	.cfi_endproc
                                        # -- End function
	.globl	_ZN15CSSPropertyAPI38method16Ev # -- Begin function _ZN15CSSPropertyAPI38method16Ev
	.p2align	4, 0x90
	.type	_ZN15CSSPropertyAPI38method16Ev,@function
_ZN15CSSPropertyAPI38method16Ev:        # @_ZN15CSSPropertyAPI38method16Ev
	.cfi_startproc
# BB#0:                                 # %entry
	addl	$19, increment_me(%rip)
	retq
.Lfunc_end115:
	.size	_ZN15CSSPropertyAPI38method16Ev, .Lfunc_end115-_ZN15CSSPropertyAPI38method16Ev
	.cfi_endproc
                                        # -- End function
	.globl	_ZN15CSSPropertyAPI38method17Ev # -- Begin function _ZN15CSSPropertyAPI38method17Ev
	.p2align	4, 0x90
	.type	_ZN15CSSPropertyAPI38method17Ev,@function
_ZN15CSSPropertyAPI38method17Ev:        # @_ZN15CSSPropertyAPI38method17Ev
	.cfi_startproc
# BB#0:                                 # %entry
	addl	$20, increment_me(%rip)
	retq
.Lfunc_end116:
	.size	_ZN15CSSPropertyAPI38method17Ev, .Lfunc_end116-_ZN15CSSPropertyAPI38method17Ev
	.cfi_endproc
                                        # -- End function
	.globl	_ZN15CSSPropertyAPI38method18Ev # -- Begin function _ZN15CSSPropertyAPI38method18Ev
	.p2align	4, 0x90
	.type	_ZN15CSSPropertyAPI38method18Ev,@function
_ZN15CSSPropertyAPI38method18Ev:        # @_ZN15CSSPropertyAPI38method18Ev
	.cfi_startproc
# BB#0:                                 # %entry
	addl	$21, increment_me(%rip)
	retq
.Lfunc_end117:
	.size	_ZN15CSSPropertyAPI38method18Ev, .Lfunc_end117-_ZN15CSSPropertyAPI38method18Ev
	.cfi_endproc
                                        # -- End function
	.globl	_ZN15CSSPropertyAPI38method19Ev # -- Begin function _ZN15CSSPropertyAPI38method19Ev
	.p2align	4, 0x90
	.type	_ZN15CSSPropertyAPI38method19Ev,@function
_ZN15CSSPropertyAPI38method19Ev:        # @_ZN15CSSPropertyAPI38method19Ev
	.cfi_startproc
# BB#0:                                 # %entry
	addl	$22, increment_me(%rip)
	retq
.Lfunc_end118:
	.size	_ZN15CSSPropertyAPI38method19Ev, .Lfunc_end118-_ZN15CSSPropertyAPI38method19Ev
	.cfi_endproc
                                        # -- End function
	.globl	_ZN15CSSPropertyAPI38method20Ev # -- Begin function _ZN15CSSPropertyAPI38method20Ev
	.p2align	4, 0x90
	.type	_ZN15CSSPropertyAPI38method20Ev,@function
_ZN15CSSPropertyAPI38method20Ev:        # @_ZN15CSSPropertyAPI38method20Ev
	.cfi_startproc
# BB#0:                                 # %entry
	addl	$23, increment_me(%rip)
	retq
.Lfunc_end119:
	.size	_ZN15CSSPropertyAPI38method20Ev, .Lfunc_end119-_ZN15CSSPropertyAPI38method20Ev
	.cfi_endproc
                                        # -- End function
	.globl	_ZN15CSSPropertyAPI38method21Ev # -- Begin function _ZN15CSSPropertyAPI38method21Ev
	.p2align	4, 0x90
	.type	_ZN15CSSPropertyAPI38method21Ev,@function
_ZN15CSSPropertyAPI38method21Ev:        # @_ZN15CSSPropertyAPI38method21Ev
	.cfi_startproc
# BB#0:                                 # %entry
	addl	$24, increment_me(%rip)
	retq
.Lfunc_end120:
	.size	_ZN15CSSPropertyAPI38method21Ev, .Lfunc_end120-_ZN15CSSPropertyAPI38method21Ev
	.cfi_endproc
                                        # -- End function
	.globl	_ZN15CSSPropertyAPI38method22Ev # -- Begin function _ZN15CSSPropertyAPI38method22Ev
	.p2align	4, 0x90
	.type	_ZN15CSSPropertyAPI38method22Ev,@function
_ZN15CSSPropertyAPI38method22Ev:        # @_ZN15CSSPropertyAPI38method22Ev
	.cfi_startproc
# BB#0:                                 # %entry
	addl	$25, increment_me(%rip)
	retq
.Lfunc_end121:
	.size	_ZN15CSSPropertyAPI38method22Ev, .Lfunc_end121-_ZN15CSSPropertyAPI38method22Ev
	.cfi_endproc
                                        # -- End function
	.globl	_ZN15CSSPropertyAPI38method23Ev # -- Begin function _ZN15CSSPropertyAPI38method23Ev
	.p2align	4, 0x90
	.type	_ZN15CSSPropertyAPI38method23Ev,@function
_ZN15CSSPropertyAPI38method23Ev:        # @_ZN15CSSPropertyAPI38method23Ev
	.cfi_startproc
# BB#0:                                 # %entry
	addl	$26, increment_me(%rip)
	retq
.Lfunc_end122:
	.size	_ZN15CSSPropertyAPI38method23Ev, .Lfunc_end122-_ZN15CSSPropertyAPI38method23Ev
	.cfi_endproc
                                        # -- End function
	.globl	_ZN15CSSPropertyAPI38method24Ev # -- Begin function _ZN15CSSPropertyAPI38method24Ev
	.p2align	4, 0x90
	.type	_ZN15CSSPropertyAPI38method24Ev,@function
_ZN15CSSPropertyAPI38method24Ev:        # @_ZN15CSSPropertyAPI38method24Ev
	.cfi_startproc
# BB#0:                                 # %entry
	addl	$27, increment_me(%rip)
	retq
.Lfunc_end123:
	.size	_ZN15CSSPropertyAPI38method24Ev, .Lfunc_end123-_ZN15CSSPropertyAPI38method24Ev
	.cfi_endproc
                                        # -- End function
	.globl	_ZN15CSSPropertyAPI38method25Ev # -- Begin function _ZN15CSSPropertyAPI38method25Ev
	.p2align	4, 0x90
	.type	_ZN15CSSPropertyAPI38method25Ev,@function
_ZN15CSSPropertyAPI38method25Ev:        # @_ZN15CSSPropertyAPI38method25Ev
	.cfi_startproc
# BB#0:                                 # %entry
	addl	$28, increment_me(%rip)
	retq
.Lfunc_end124:
	.size	_ZN15CSSPropertyAPI38method25Ev, .Lfunc_end124-_ZN15CSSPropertyAPI38method25Ev
	.cfi_endproc
                                        # -- End function
	.globl	_ZN15CSSPropertyAPI38method26Ev # -- Begin function _ZN15CSSPropertyAPI38method26Ev
	.p2align	4, 0x90
	.type	_ZN15CSSPropertyAPI38method26Ev,@function
_ZN15CSSPropertyAPI38method26Ev:        # @_ZN15CSSPropertyAPI38method26Ev
	.cfi_startproc
# BB#0:                                 # %entry
	addl	$29, increment_me(%rip)
	retq
.Lfunc_end125:
	.size	_ZN15CSSPropertyAPI38method26Ev, .Lfunc_end125-_ZN15CSSPropertyAPI38method26Ev
	.cfi_endproc
                                        # -- End function
	.globl	_ZN15CSSPropertyAPI38method27Ev # -- Begin function _ZN15CSSPropertyAPI38method27Ev
	.p2align	4, 0x90
	.type	_ZN15CSSPropertyAPI38method27Ev,@function
_ZN15CSSPropertyAPI38method27Ev:        # @_ZN15CSSPropertyAPI38method27Ev
	.cfi_startproc
# BB#0:                                 # %entry
	addl	$30, increment_me(%rip)
	retq
.Lfunc_end126:
	.size	_ZN15CSSPropertyAPI38method27Ev, .Lfunc_end126-_ZN15CSSPropertyAPI38method27Ev
	.cfi_endproc
                                        # -- End function
	.globl	_ZN15CSSPropertyAPI38method28Ev # -- Begin function _ZN15CSSPropertyAPI38method28Ev
	.p2align	4, 0x90
	.type	_ZN15CSSPropertyAPI38method28Ev,@function
_ZN15CSSPropertyAPI38method28Ev:        # @_ZN15CSSPropertyAPI38method28Ev
	.cfi_startproc
# BB#0:                                 # %entry
	addl	$31, increment_me(%rip)
	retq
.Lfunc_end127:
	.size	_ZN15CSSPropertyAPI38method28Ev, .Lfunc_end127-_ZN15CSSPropertyAPI38method28Ev
	.cfi_endproc
                                        # -- End function
	.globl	_ZN15CSSPropertyAPI38method29Ev # -- Begin function _ZN15CSSPropertyAPI38method29Ev
	.p2align	4, 0x90
	.type	_ZN15CSSPropertyAPI38method29Ev,@function
_ZN15CSSPropertyAPI38method29Ev:        # @_ZN15CSSPropertyAPI38method29Ev
	.cfi_startproc
# BB#0:                                 # %entry
	addl	$32, increment_me(%rip)
	retq
.Lfunc_end128:
	.size	_ZN15CSSPropertyAPI38method29Ev, .Lfunc_end128-_ZN15CSSPropertyAPI38method29Ev
	.cfi_endproc
                                        # -- End function
	.globl	_ZN15CSSPropertyAPI38method30Ev # -- Begin function _ZN15CSSPropertyAPI38method30Ev
	.p2align	4, 0x90
	.type	_ZN15CSSPropertyAPI38method30Ev,@function
_ZN15CSSPropertyAPI38method30Ev:        # @_ZN15CSSPropertyAPI38method30Ev
	.cfi_startproc
# BB#0:                                 # %entry
	addl	$33, increment_me(%rip)
	retq
.Lfunc_end129:
	.size	_ZN15CSSPropertyAPI38method30Ev, .Lfunc_end129-_ZN15CSSPropertyAPI38method30Ev
	.cfi_endproc
                                        # -- End function
	.globl	_ZN15CSSPropertyAPI38method31Ev # -- Begin function _ZN15CSSPropertyAPI38method31Ev
	.p2align	4, 0x90
	.type	_ZN15CSSPropertyAPI38method31Ev,@function
_ZN15CSSPropertyAPI38method31Ev:        # @_ZN15CSSPropertyAPI38method31Ev
	.cfi_startproc
# BB#0:                                 # %entry
	addl	$34, increment_me(%rip)
	retq
.Lfunc_end130:
	.size	_ZN15CSSPropertyAPI38method31Ev, .Lfunc_end130-_ZN15CSSPropertyAPI38method31Ev
	.cfi_endproc
                                        # -- End function
	.globl	_ZN15CSSPropertyAPI38method32Ev # -- Begin function _ZN15CSSPropertyAPI38method32Ev
	.p2align	4, 0x90
	.type	_ZN15CSSPropertyAPI38method32Ev,@function
_ZN15CSSPropertyAPI38method32Ev:        # @_ZN15CSSPropertyAPI38method32Ev
	.cfi_startproc
# BB#0:                                 # %entry
	addl	$35, increment_me(%rip)
	retq
.Lfunc_end131:
	.size	_ZN15CSSPropertyAPI38method32Ev, .Lfunc_end131-_ZN15CSSPropertyAPI38method32Ev
	.cfi_endproc
                                        # -- End function
	.globl	_ZN15CSSPropertyAPI38method33Ev # -- Begin function _ZN15CSSPropertyAPI38method33Ev
	.p2align	4, 0x90
	.type	_ZN15CSSPropertyAPI38method33Ev,@function
_ZN15CSSPropertyAPI38method33Ev:        # @_ZN15CSSPropertyAPI38method33Ev
	.cfi_startproc
# BB#0:                                 # %entry
	addl	$36, increment_me(%rip)
	retq
.Lfunc_end132:
	.size	_ZN15CSSPropertyAPI38method33Ev, .Lfunc_end132-_ZN15CSSPropertyAPI38method33Ev
	.cfi_endproc
                                        # -- End function
	.globl	_ZN15CSSPropertyAPI38method34Ev # -- Begin function _ZN15CSSPropertyAPI38method34Ev
	.p2align	4, 0x90
	.type	_ZN15CSSPropertyAPI38method34Ev,@function
_ZN15CSSPropertyAPI38method34Ev:        # @_ZN15CSSPropertyAPI38method34Ev
	.cfi_startproc
# BB#0:                                 # %entry
	addl	$37, increment_me(%rip)
	retq
.Lfunc_end133:
	.size	_ZN15CSSPropertyAPI38method34Ev, .Lfunc_end133-_ZN15CSSPropertyAPI38method34Ev
	.cfi_endproc
                                        # -- End function
	.globl	_ZN15CSSPropertyAPI38method35Ev # -- Begin function _ZN15CSSPropertyAPI38method35Ev
	.p2align	4, 0x90
	.type	_ZN15CSSPropertyAPI38method35Ev,@function
_ZN15CSSPropertyAPI38method35Ev:        # @_ZN15CSSPropertyAPI38method35Ev
	.cfi_startproc
# BB#0:                                 # %entry
	addl	$38, increment_me(%rip)
	retq
.Lfunc_end134:
	.size	_ZN15CSSPropertyAPI38method35Ev, .Lfunc_end134-_ZN15CSSPropertyAPI38method35Ev
	.cfi_endproc
                                        # -- End function
	.globl	_ZN15CSSPropertyAPI38method36Ev # -- Begin function _ZN15CSSPropertyAPI38method36Ev
	.p2align	4, 0x90
	.type	_ZN15CSSPropertyAPI38method36Ev,@function
_ZN15CSSPropertyAPI38method36Ev:        # @_ZN15CSSPropertyAPI38method36Ev
	.cfi_startproc
# BB#0:                                 # %entry
	addl	$39, increment_me(%rip)
	retq
.Lfunc_end135:
	.size	_ZN15CSSPropertyAPI38method36Ev, .Lfunc_end135-_ZN15CSSPropertyAPI38method36Ev
	.cfi_endproc
                                        # -- End function
	.globl	_ZN15CSSPropertyAPI38method37Ev # -- Begin function _ZN15CSSPropertyAPI38method37Ev
	.p2align	4, 0x90
	.type	_ZN15CSSPropertyAPI38method37Ev,@function
_ZN15CSSPropertyAPI38method37Ev:        # @_ZN15CSSPropertyAPI38method37Ev
	.cfi_startproc
# BB#0:                                 # %entry
	addl	$40, increment_me(%rip)
	retq
.Lfunc_end136:
	.size	_ZN15CSSPropertyAPI38method37Ev, .Lfunc_end136-_ZN15CSSPropertyAPI38method37Ev
	.cfi_endproc
                                        # -- End function
	.globl	_ZN15CSSPropertyAPI38method38Ev # -- Begin function _ZN15CSSPropertyAPI38method38Ev
	.p2align	4, 0x90
	.type	_ZN15CSSPropertyAPI38method38Ev,@function
_ZN15CSSPropertyAPI38method38Ev:        # @_ZN15CSSPropertyAPI38method38Ev
	.cfi_startproc
# BB#0:                                 # %entry
	addl	$41, increment_me(%rip)
	retq
.Lfunc_end137:
	.size	_ZN15CSSPropertyAPI38method38Ev, .Lfunc_end137-_ZN15CSSPropertyAPI38method38Ev
	.cfi_endproc
                                        # -- End function
	.globl	_ZN15CSSPropertyAPI38method39Ev # -- Begin function _ZN15CSSPropertyAPI38method39Ev
	.p2align	4, 0x90
	.type	_ZN15CSSPropertyAPI38method39Ev,@function
_ZN15CSSPropertyAPI38method39Ev:        # @_ZN15CSSPropertyAPI38method39Ev
	.cfi_startproc
# BB#0:                                 # %entry
	addl	$42, increment_me(%rip)
	retq
.Lfunc_end138:
	.size	_ZN15CSSPropertyAPI38method39Ev, .Lfunc_end138-_ZN15CSSPropertyAPI38method39Ev
	.cfi_endproc
                                        # -- End function
	.globl	_ZN15CSSPropertyAPI38method40Ev # -- Begin function _ZN15CSSPropertyAPI38method40Ev
	.p2align	4, 0x90
	.type	_ZN15CSSPropertyAPI38method40Ev,@function
_ZN15CSSPropertyAPI38method40Ev:        # @_ZN15CSSPropertyAPI38method40Ev
	.cfi_startproc
# BB#0:                                 # %entry
	addl	$43, increment_me(%rip)
	retq
.Lfunc_end139:
	.size	_ZN15CSSPropertyAPI38method40Ev, .Lfunc_end139-_ZN15CSSPropertyAPI38method40Ev
	.cfi_endproc
                                        # -- End function
	.globl	_ZN15CSSPropertyAPI38method41Ev # -- Begin function _ZN15CSSPropertyAPI38method41Ev
	.p2align	4, 0x90
	.type	_ZN15CSSPropertyAPI38method41Ev,@function
_ZN15CSSPropertyAPI38method41Ev:        # @_ZN15CSSPropertyAPI38method41Ev
	.cfi_startproc
# BB#0:                                 # %entry
	addl	$44, increment_me(%rip)
	retq
.Lfunc_end140:
	.size	_ZN15CSSPropertyAPI38method41Ev, .Lfunc_end140-_ZN15CSSPropertyAPI38method41Ev
	.cfi_endproc
                                        # -- End function
	.globl	_ZN15CSSPropertyAPI38method42Ev # -- Begin function _ZN15CSSPropertyAPI38method42Ev
	.p2align	4, 0x90
	.type	_ZN15CSSPropertyAPI38method42Ev,@function
_ZN15CSSPropertyAPI38method42Ev:        # @_ZN15CSSPropertyAPI38method42Ev
	.cfi_startproc
# BB#0:                                 # %entry
	addl	$45, increment_me(%rip)
	retq
.Lfunc_end141:
	.size	_ZN15CSSPropertyAPI38method42Ev, .Lfunc_end141-_ZN15CSSPropertyAPI38method42Ev
	.cfi_endproc
                                        # -- End function
	.globl	_ZN15CSSPropertyAPI38method43Ev # -- Begin function _ZN15CSSPropertyAPI38method43Ev
	.p2align	4, 0x90
	.type	_ZN15CSSPropertyAPI38method43Ev,@function
_ZN15CSSPropertyAPI38method43Ev:        # @_ZN15CSSPropertyAPI38method43Ev
	.cfi_startproc
# BB#0:                                 # %entry
	addl	$46, increment_me(%rip)
	retq
.Lfunc_end142:
	.size	_ZN15CSSPropertyAPI38method43Ev, .Lfunc_end142-_ZN15CSSPropertyAPI38method43Ev
	.cfi_endproc
                                        # -- End function
	.globl	_ZN15CSSPropertyAPI38method44Ev # -- Begin function _ZN15CSSPropertyAPI38method44Ev
	.p2align	4, 0x90
	.type	_ZN15CSSPropertyAPI38method44Ev,@function
_ZN15CSSPropertyAPI38method44Ev:        # @_ZN15CSSPropertyAPI38method44Ev
	.cfi_startproc
# BB#0:                                 # %entry
	addl	$47, increment_me(%rip)
	retq
.Lfunc_end143:
	.size	_ZN15CSSPropertyAPI38method44Ev, .Lfunc_end143-_ZN15CSSPropertyAPI38method44Ev
	.cfi_endproc
                                        # -- End function
	.globl	_ZN15CSSPropertyAPI38method45Ev # -- Begin function _ZN15CSSPropertyAPI38method45Ev
	.p2align	4, 0x90
	.type	_ZN15CSSPropertyAPI38method45Ev,@function
_ZN15CSSPropertyAPI38method45Ev:        # @_ZN15CSSPropertyAPI38method45Ev
	.cfi_startproc
# BB#0:                                 # %entry
	addl	$48, increment_me(%rip)
	retq
.Lfunc_end144:
	.size	_ZN15CSSPropertyAPI38method45Ev, .Lfunc_end144-_ZN15CSSPropertyAPI38method45Ev
	.cfi_endproc
                                        # -- End function
	.globl	_ZN15CSSPropertyAPI38method46Ev # -- Begin function _ZN15CSSPropertyAPI38method46Ev
	.p2align	4, 0x90
	.type	_ZN15CSSPropertyAPI38method46Ev,@function
_ZN15CSSPropertyAPI38method46Ev:        # @_ZN15CSSPropertyAPI38method46Ev
	.cfi_startproc
# BB#0:                                 # %entry
	addl	$49, increment_me(%rip)
	retq
.Lfunc_end145:
	.size	_ZN15CSSPropertyAPI38method46Ev, .Lfunc_end145-_ZN15CSSPropertyAPI38method46Ev
	.cfi_endproc
                                        # -- End function
	.globl	_ZN15CSSPropertyAPI38method47Ev # -- Begin function _ZN15CSSPropertyAPI38method47Ev
	.p2align	4, 0x90
	.type	_ZN15CSSPropertyAPI38method47Ev,@function
_ZN15CSSPropertyAPI38method47Ev:        # @_ZN15CSSPropertyAPI38method47Ev
	.cfi_startproc
# BB#0:                                 # %entry
	addl	$50, increment_me(%rip)
	retq
.Lfunc_end146:
	.size	_ZN15CSSPropertyAPI38method47Ev, .Lfunc_end146-_ZN15CSSPropertyAPI38method47Ev
	.cfi_endproc
                                        # -- End function
	.globl	_ZN15CSSPropertyAPI38method48Ev # -- Begin function _ZN15CSSPropertyAPI38method48Ev
	.p2align	4, 0x90
	.type	_ZN15CSSPropertyAPI38method48Ev,@function
_ZN15CSSPropertyAPI38method48Ev:        # @_ZN15CSSPropertyAPI38method48Ev
	.cfi_startproc
# BB#0:                                 # %entry
	addl	$51, increment_me(%rip)
	retq
.Lfunc_end147:
	.size	_ZN15CSSPropertyAPI38method48Ev, .Lfunc_end147-_ZN15CSSPropertyAPI38method48Ev
	.cfi_endproc
                                        # -- End function
	.globl	_ZN15CSSPropertyAPI38method49Ev # -- Begin function _ZN15CSSPropertyAPI38method49Ev
	.p2align	4, 0x90
	.type	_ZN15CSSPropertyAPI38method49Ev,@function
_ZN15CSSPropertyAPI38method49Ev:        # @_ZN15CSSPropertyAPI38method49Ev
	.cfi_startproc
# BB#0:                                 # %entry
	addl	$52, increment_me(%rip)
	retq
.Lfunc_end148:
	.size	_ZN15CSSPropertyAPI38method49Ev, .Lfunc_end148-_ZN15CSSPropertyAPI38method49Ev
	.cfi_endproc
                                        # -- End function
	.globl	_ZN15CSSPropertyAPI38method50Ev # -- Begin function _ZN15CSSPropertyAPI38method50Ev
	.p2align	4, 0x90
	.type	_ZN15CSSPropertyAPI38method50Ev,@function
_ZN15CSSPropertyAPI38method50Ev:        # @_ZN15CSSPropertyAPI38method50Ev
	.cfi_startproc
# BB#0:                                 # %entry
	addl	$53, increment_me(%rip)
	retq
.Lfunc_end149:
	.size	_ZN15CSSPropertyAPI38method50Ev, .Lfunc_end149-_ZN15CSSPropertyAPI38method50Ev
	.cfi_endproc
                                        # -- End function
	.globl	_ZN15CSSPropertyAPI47method1Ev # -- Begin function _ZN15CSSPropertyAPI47method1Ev
	.p2align	4, 0x90
	.type	_ZN15CSSPropertyAPI47method1Ev,@function
_ZN15CSSPropertyAPI47method1Ev:         # @_ZN15CSSPropertyAPI47method1Ev
	.cfi_startproc
# BB#0:                                 # %entry
	addl	$5, increment_me(%rip)
	retq
.Lfunc_end150:
	.size	_ZN15CSSPropertyAPI47method1Ev, .Lfunc_end150-_ZN15CSSPropertyAPI47method1Ev
	.cfi_endproc
                                        # -- End function
	.globl	_ZN15CSSPropertyAPI47method2Ev # -- Begin function _ZN15CSSPropertyAPI47method2Ev
	.p2align	4, 0x90
	.type	_ZN15CSSPropertyAPI47method2Ev,@function
_ZN15CSSPropertyAPI47method2Ev:         # @_ZN15CSSPropertyAPI47method2Ev
	.cfi_startproc
# BB#0:                                 # %entry
	addl	$6, increment_me(%rip)
	retq
.Lfunc_end151:
	.size	_ZN15CSSPropertyAPI47method2Ev, .Lfunc_end151-_ZN15CSSPropertyAPI47method2Ev
	.cfi_endproc
                                        # -- End function
	.globl	_ZN15CSSPropertyAPI47method3Ev # -- Begin function _ZN15CSSPropertyAPI47method3Ev
	.p2align	4, 0x90
	.type	_ZN15CSSPropertyAPI47method3Ev,@function
_ZN15CSSPropertyAPI47method3Ev:         # @_ZN15CSSPropertyAPI47method3Ev
	.cfi_startproc
# BB#0:                                 # %entry
	addl	$7, increment_me(%rip)
	retq
.Lfunc_end152:
	.size	_ZN15CSSPropertyAPI47method3Ev, .Lfunc_end152-_ZN15CSSPropertyAPI47method3Ev
	.cfi_endproc
                                        # -- End function
	.globl	_ZN15CSSPropertyAPI47method4Ev # -- Begin function _ZN15CSSPropertyAPI47method4Ev
	.p2align	4, 0x90
	.type	_ZN15CSSPropertyAPI47method4Ev,@function
_ZN15CSSPropertyAPI47method4Ev:         # @_ZN15CSSPropertyAPI47method4Ev
	.cfi_startproc
# BB#0:                                 # %entry
	addl	$8, increment_me(%rip)
	retq
.Lfunc_end153:
	.size	_ZN15CSSPropertyAPI47method4Ev, .Lfunc_end153-_ZN15CSSPropertyAPI47method4Ev
	.cfi_endproc
                                        # -- End function
	.globl	_ZN15CSSPropertyAPI47method5Ev # -- Begin function _ZN15CSSPropertyAPI47method5Ev
	.p2align	4, 0x90
	.type	_ZN15CSSPropertyAPI47method5Ev,@function
_ZN15CSSPropertyAPI47method5Ev:         # @_ZN15CSSPropertyAPI47method5Ev
	.cfi_startproc
# BB#0:                                 # %entry
	addl	$9, increment_me(%rip)
	retq
.Lfunc_end154:
	.size	_ZN15CSSPropertyAPI47method5Ev, .Lfunc_end154-_ZN15CSSPropertyAPI47method5Ev
	.cfi_endproc
                                        # -- End function
	.globl	_ZN15CSSPropertyAPI47method6Ev # -- Begin function _ZN15CSSPropertyAPI47method6Ev
	.p2align	4, 0x90
	.type	_ZN15CSSPropertyAPI47method6Ev,@function
_ZN15CSSPropertyAPI47method6Ev:         # @_ZN15CSSPropertyAPI47method6Ev
	.cfi_startproc
# BB#0:                                 # %entry
	addl	$10, increment_me(%rip)
	retq
.Lfunc_end155:
	.size	_ZN15CSSPropertyAPI47method6Ev, .Lfunc_end155-_ZN15CSSPropertyAPI47method6Ev
	.cfi_endproc
                                        # -- End function
	.globl	_ZN15CSSPropertyAPI47method7Ev # -- Begin function _ZN15CSSPropertyAPI47method7Ev
	.p2align	4, 0x90
	.type	_ZN15CSSPropertyAPI47method7Ev,@function
_ZN15CSSPropertyAPI47method7Ev:         # @_ZN15CSSPropertyAPI47method7Ev
	.cfi_startproc
# BB#0:                                 # %entry
	addl	$11, increment_me(%rip)
	retq
.Lfunc_end156:
	.size	_ZN15CSSPropertyAPI47method7Ev, .Lfunc_end156-_ZN15CSSPropertyAPI47method7Ev
	.cfi_endproc
                                        # -- End function
	.globl	_ZN15CSSPropertyAPI47method8Ev # -- Begin function _ZN15CSSPropertyAPI47method8Ev
	.p2align	4, 0x90
	.type	_ZN15CSSPropertyAPI47method8Ev,@function
_ZN15CSSPropertyAPI47method8Ev:         # @_ZN15CSSPropertyAPI47method8Ev
	.cfi_startproc
# BB#0:                                 # %entry
	addl	$12, increment_me(%rip)
	retq
.Lfunc_end157:
	.size	_ZN15CSSPropertyAPI47method8Ev, .Lfunc_end157-_ZN15CSSPropertyAPI47method8Ev
	.cfi_endproc
                                        # -- End function
	.globl	_ZN15CSSPropertyAPI47method9Ev # -- Begin function _ZN15CSSPropertyAPI47method9Ev
	.p2align	4, 0x90
	.type	_ZN15CSSPropertyAPI47method9Ev,@function
_ZN15CSSPropertyAPI47method9Ev:         # @_ZN15CSSPropertyAPI47method9Ev
	.cfi_startproc
# BB#0:                                 # %entry
	addl	$13, increment_me(%rip)
	retq
.Lfunc_end158:
	.size	_ZN15CSSPropertyAPI47method9Ev, .Lfunc_end158-_ZN15CSSPropertyAPI47method9Ev
	.cfi_endproc
                                        # -- End function
	.globl	_ZN15CSSPropertyAPI48method10Ev # -- Begin function _ZN15CSSPropertyAPI48method10Ev
	.p2align	4, 0x90
	.type	_ZN15CSSPropertyAPI48method10Ev,@function
_ZN15CSSPropertyAPI48method10Ev:        # @_ZN15CSSPropertyAPI48method10Ev
	.cfi_startproc
# BB#0:                                 # %entry
	addl	$14, increment_me(%rip)
	retq
.Lfunc_end159:
	.size	_ZN15CSSPropertyAPI48method10Ev, .Lfunc_end159-_ZN15CSSPropertyAPI48method10Ev
	.cfi_endproc
                                        # -- End function
	.globl	_ZN15CSSPropertyAPI48method11Ev # -- Begin function _ZN15CSSPropertyAPI48method11Ev
	.p2align	4, 0x90
	.type	_ZN15CSSPropertyAPI48method11Ev,@function
_ZN15CSSPropertyAPI48method11Ev:        # @_ZN15CSSPropertyAPI48method11Ev
	.cfi_startproc
# BB#0:                                 # %entry
	addl	$15, increment_me(%rip)
	retq
.Lfunc_end160:
	.size	_ZN15CSSPropertyAPI48method11Ev, .Lfunc_end160-_ZN15CSSPropertyAPI48method11Ev
	.cfi_endproc
                                        # -- End function
	.globl	_ZN15CSSPropertyAPI48method12Ev # -- Begin function _ZN15CSSPropertyAPI48method12Ev
	.p2align	4, 0x90
	.type	_ZN15CSSPropertyAPI48method12Ev,@function
_ZN15CSSPropertyAPI48method12Ev:        # @_ZN15CSSPropertyAPI48method12Ev
	.cfi_startproc
# BB#0:                                 # %entry
	addl	$16, increment_me(%rip)
	retq
.Lfunc_end161:
	.size	_ZN15CSSPropertyAPI48method12Ev, .Lfunc_end161-_ZN15CSSPropertyAPI48method12Ev
	.cfi_endproc
                                        # -- End function
	.globl	_ZN15CSSPropertyAPI48method13Ev # -- Begin function _ZN15CSSPropertyAPI48method13Ev
	.p2align	4, 0x90
	.type	_ZN15CSSPropertyAPI48method13Ev,@function
_ZN15CSSPropertyAPI48method13Ev:        # @_ZN15CSSPropertyAPI48method13Ev
	.cfi_startproc
# BB#0:                                 # %entry
	addl	$17, increment_me(%rip)
	retq
.Lfunc_end162:
	.size	_ZN15CSSPropertyAPI48method13Ev, .Lfunc_end162-_ZN15CSSPropertyAPI48method13Ev
	.cfi_endproc
                                        # -- End function
	.globl	_ZN15CSSPropertyAPI48method14Ev # -- Begin function _ZN15CSSPropertyAPI48method14Ev
	.p2align	4, 0x90
	.type	_ZN15CSSPropertyAPI48method14Ev,@function
_ZN15CSSPropertyAPI48method14Ev:        # @_ZN15CSSPropertyAPI48method14Ev
	.cfi_startproc
# BB#0:                                 # %entry
	addl	$18, increment_me(%rip)
	retq
.Lfunc_end163:
	.size	_ZN15CSSPropertyAPI48method14Ev, .Lfunc_end163-_ZN15CSSPropertyAPI48method14Ev
	.cfi_endproc
                                        # -- End function
	.globl	_ZN15CSSPropertyAPI48method15Ev # -- Begin function _ZN15CSSPropertyAPI48method15Ev
	.p2align	4, 0x90
	.type	_ZN15CSSPropertyAPI48method15Ev,@function
_ZN15CSSPropertyAPI48method15Ev:        # @_ZN15CSSPropertyAPI48method15Ev
	.cfi_startproc
# BB#0:                                 # %entry
	addl	$19, increment_me(%rip)
	retq
.Lfunc_end164:
	.size	_ZN15CSSPropertyAPI48method15Ev, .Lfunc_end164-_ZN15CSSPropertyAPI48method15Ev
	.cfi_endproc
                                        # -- End function
	.globl	_ZN15CSSPropertyAPI48method16Ev # -- Begin function _ZN15CSSPropertyAPI48method16Ev
	.p2align	4, 0x90
	.type	_ZN15CSSPropertyAPI48method16Ev,@function
_ZN15CSSPropertyAPI48method16Ev:        # @_ZN15CSSPropertyAPI48method16Ev
	.cfi_startproc
# BB#0:                                 # %entry
	addl	$20, increment_me(%rip)
	retq
.Lfunc_end165:
	.size	_ZN15CSSPropertyAPI48method16Ev, .Lfunc_end165-_ZN15CSSPropertyAPI48method16Ev
	.cfi_endproc
                                        # -- End function
	.globl	_ZN15CSSPropertyAPI48method17Ev # -- Begin function _ZN15CSSPropertyAPI48method17Ev
	.p2align	4, 0x90
	.type	_ZN15CSSPropertyAPI48method17Ev,@function
_ZN15CSSPropertyAPI48method17Ev:        # @_ZN15CSSPropertyAPI48method17Ev
	.cfi_startproc
# BB#0:                                 # %entry
	addl	$21, increment_me(%rip)
	retq
.Lfunc_end166:
	.size	_ZN15CSSPropertyAPI48method17Ev, .Lfunc_end166-_ZN15CSSPropertyAPI48method17Ev
	.cfi_endproc
                                        # -- End function
	.globl	_ZN15CSSPropertyAPI48method18Ev # -- Begin function _ZN15CSSPropertyAPI48method18Ev
	.p2align	4, 0x90
	.type	_ZN15CSSPropertyAPI48method18Ev,@function
_ZN15CSSPropertyAPI48method18Ev:        # @_ZN15CSSPropertyAPI48method18Ev
	.cfi_startproc
# BB#0:                                 # %entry
	addl	$22, increment_me(%rip)
	retq
.Lfunc_end167:
	.size	_ZN15CSSPropertyAPI48method18Ev, .Lfunc_end167-_ZN15CSSPropertyAPI48method18Ev
	.cfi_endproc
                                        # -- End function
	.globl	_ZN15CSSPropertyAPI48method19Ev # -- Begin function _ZN15CSSPropertyAPI48method19Ev
	.p2align	4, 0x90
	.type	_ZN15CSSPropertyAPI48method19Ev,@function
_ZN15CSSPropertyAPI48method19Ev:        # @_ZN15CSSPropertyAPI48method19Ev
	.cfi_startproc
# BB#0:                                 # %entry
	addl	$23, increment_me(%rip)
	retq
.Lfunc_end168:
	.size	_ZN15CSSPropertyAPI48method19Ev, .Lfunc_end168-_ZN15CSSPropertyAPI48method19Ev
	.cfi_endproc
                                        # -- End function
	.globl	_ZN15CSSPropertyAPI48method20Ev # -- Begin function _ZN15CSSPropertyAPI48method20Ev
	.p2align	4, 0x90
	.type	_ZN15CSSPropertyAPI48method20Ev,@function
_ZN15CSSPropertyAPI48method20Ev:        # @_ZN15CSSPropertyAPI48method20Ev
	.cfi_startproc
# BB#0:                                 # %entry
	addl	$24, increment_me(%rip)
	retq
.Lfunc_end169:
	.size	_ZN15CSSPropertyAPI48method20Ev, .Lfunc_end169-_ZN15CSSPropertyAPI48method20Ev
	.cfi_endproc
                                        # -- End function
	.globl	_ZN15CSSPropertyAPI48method21Ev # -- Begin function _ZN15CSSPropertyAPI48method21Ev
	.p2align	4, 0x90
	.type	_ZN15CSSPropertyAPI48method21Ev,@function
_ZN15CSSPropertyAPI48method21Ev:        # @_ZN15CSSPropertyAPI48method21Ev
	.cfi_startproc
# BB#0:                                 # %entry
	addl	$25, increment_me(%rip)
	retq
.Lfunc_end170:
	.size	_ZN15CSSPropertyAPI48method21Ev, .Lfunc_end170-_ZN15CSSPropertyAPI48method21Ev
	.cfi_endproc
                                        # -- End function
	.globl	_ZN15CSSPropertyAPI48method22Ev # -- Begin function _ZN15CSSPropertyAPI48method22Ev
	.p2align	4, 0x90
	.type	_ZN15CSSPropertyAPI48method22Ev,@function
_ZN15CSSPropertyAPI48method22Ev:        # @_ZN15CSSPropertyAPI48method22Ev
	.cfi_startproc
# BB#0:                                 # %entry
	addl	$26, increment_me(%rip)
	retq
.Lfunc_end171:
	.size	_ZN15CSSPropertyAPI48method22Ev, .Lfunc_end171-_ZN15CSSPropertyAPI48method22Ev
	.cfi_endproc
                                        # -- End function
	.globl	_ZN15CSSPropertyAPI48method23Ev # -- Begin function _ZN15CSSPropertyAPI48method23Ev
	.p2align	4, 0x90
	.type	_ZN15CSSPropertyAPI48method23Ev,@function
_ZN15CSSPropertyAPI48method23Ev:        # @_ZN15CSSPropertyAPI48method23Ev
	.cfi_startproc
# BB#0:                                 # %entry
	addl	$27, increment_me(%rip)
	retq
.Lfunc_end172:
	.size	_ZN15CSSPropertyAPI48method23Ev, .Lfunc_end172-_ZN15CSSPropertyAPI48method23Ev
	.cfi_endproc
                                        # -- End function
	.globl	_ZN15CSSPropertyAPI48method24Ev # -- Begin function _ZN15CSSPropertyAPI48method24Ev
	.p2align	4, 0x90
	.type	_ZN15CSSPropertyAPI48method24Ev,@function
_ZN15CSSPropertyAPI48method24Ev:        # @_ZN15CSSPropertyAPI48method24Ev
	.cfi_startproc
# BB#0:                                 # %entry
	addl	$28, increment_me(%rip)
	retq
.Lfunc_end173:
	.size	_ZN15CSSPropertyAPI48method24Ev, .Lfunc_end173-_ZN15CSSPropertyAPI48method24Ev
	.cfi_endproc
                                        # -- End function
	.globl	_ZN15CSSPropertyAPI48method25Ev # -- Begin function _ZN15CSSPropertyAPI48method25Ev
	.p2align	4, 0x90
	.type	_ZN15CSSPropertyAPI48method25Ev,@function
_ZN15CSSPropertyAPI48method25Ev:        # @_ZN15CSSPropertyAPI48method25Ev
	.cfi_startproc
# BB#0:                                 # %entry
	addl	$29, increment_me(%rip)
	retq
.Lfunc_end174:
	.size	_ZN15CSSPropertyAPI48method25Ev, .Lfunc_end174-_ZN15CSSPropertyAPI48method25Ev
	.cfi_endproc
                                        # -- End function
	.globl	_ZN15CSSPropertyAPI48method26Ev # -- Begin function _ZN15CSSPropertyAPI48method26Ev
	.p2align	4, 0x90
	.type	_ZN15CSSPropertyAPI48method26Ev,@function
_ZN15CSSPropertyAPI48method26Ev:        # @_ZN15CSSPropertyAPI48method26Ev
	.cfi_startproc
# BB#0:                                 # %entry
	addl	$30, increment_me(%rip)
	retq
.Lfunc_end175:
	.size	_ZN15CSSPropertyAPI48method26Ev, .Lfunc_end175-_ZN15CSSPropertyAPI48method26Ev
	.cfi_endproc
                                        # -- End function
	.globl	_ZN15CSSPropertyAPI48method27Ev # -- Begin function _ZN15CSSPropertyAPI48method27Ev
	.p2align	4, 0x90
	.type	_ZN15CSSPropertyAPI48method27Ev,@function
_ZN15CSSPropertyAPI48method27Ev:        # @_ZN15CSSPropertyAPI48method27Ev
	.cfi_startproc
# BB#0:                                 # %entry
	addl	$31, increment_me(%rip)
	retq
.Lfunc_end176:
	.size	_ZN15CSSPropertyAPI48method27Ev, .Lfunc_end176-_ZN15CSSPropertyAPI48method27Ev
	.cfi_endproc
                                        # -- End function
	.globl	_ZN15CSSPropertyAPI48method28Ev # -- Begin function _ZN15CSSPropertyAPI48method28Ev
	.p2align	4, 0x90
	.type	_ZN15CSSPropertyAPI48method28Ev,@function
_ZN15CSSPropertyAPI48method28Ev:        # @_ZN15CSSPropertyAPI48method28Ev
	.cfi_startproc
# BB#0:                                 # %entry
	addl	$32, increment_me(%rip)
	retq
.Lfunc_end177:
	.size	_ZN15CSSPropertyAPI48method28Ev, .Lfunc_end177-_ZN15CSSPropertyAPI48method28Ev
	.cfi_endproc
                                        # -- End function
	.globl	_ZN15CSSPropertyAPI48method29Ev # -- Begin function _ZN15CSSPropertyAPI48method29Ev
	.p2align	4, 0x90
	.type	_ZN15CSSPropertyAPI48method29Ev,@function
_ZN15CSSPropertyAPI48method29Ev:        # @_ZN15CSSPropertyAPI48method29Ev
	.cfi_startproc
# BB#0:                                 # %entry
	addl	$33, increment_me(%rip)
	retq
.Lfunc_end178:
	.size	_ZN15CSSPropertyAPI48method29Ev, .Lfunc_end178-_ZN15CSSPropertyAPI48method29Ev
	.cfi_endproc
                                        # -- End function
	.globl	_ZN15CSSPropertyAPI48method30Ev # -- Begin function _ZN15CSSPropertyAPI48method30Ev
	.p2align	4, 0x90
	.type	_ZN15CSSPropertyAPI48method30Ev,@function
_ZN15CSSPropertyAPI48method30Ev:        # @_ZN15CSSPropertyAPI48method30Ev
	.cfi_startproc
# BB#0:                                 # %entry
	addl	$34, increment_me(%rip)
	retq
.Lfunc_end179:
	.size	_ZN15CSSPropertyAPI48method30Ev, .Lfunc_end179-_ZN15CSSPropertyAPI48method30Ev
	.cfi_endproc
                                        # -- End function
	.globl	_ZN15CSSPropertyAPI48method31Ev # -- Begin function _ZN15CSSPropertyAPI48method31Ev
	.p2align	4, 0x90
	.type	_ZN15CSSPropertyAPI48method31Ev,@function
_ZN15CSSPropertyAPI48method31Ev:        # @_ZN15CSSPropertyAPI48method31Ev
	.cfi_startproc
# BB#0:                                 # %entry
	addl	$35, increment_me(%rip)
	retq
.Lfunc_end180:
	.size	_ZN15CSSPropertyAPI48method31Ev, .Lfunc_end180-_ZN15CSSPropertyAPI48method31Ev
	.cfi_endproc
                                        # -- End function
	.globl	_ZN15CSSPropertyAPI48method32Ev # -- Begin function _ZN15CSSPropertyAPI48method32Ev
	.p2align	4, 0x90
	.type	_ZN15CSSPropertyAPI48method32Ev,@function
_ZN15CSSPropertyAPI48method32Ev:        # @_ZN15CSSPropertyAPI48method32Ev
	.cfi_startproc
# BB#0:                                 # %entry
	addl	$36, increment_me(%rip)
	retq
.Lfunc_end181:
	.size	_ZN15CSSPropertyAPI48method32Ev, .Lfunc_end181-_ZN15CSSPropertyAPI48method32Ev
	.cfi_endproc
                                        # -- End function
	.globl	_ZN15CSSPropertyAPI48method33Ev # -- Begin function _ZN15CSSPropertyAPI48method33Ev
	.p2align	4, 0x90
	.type	_ZN15CSSPropertyAPI48method33Ev,@function
_ZN15CSSPropertyAPI48method33Ev:        # @_ZN15CSSPropertyAPI48method33Ev
	.cfi_startproc
# BB#0:                                 # %entry
	addl	$37, increment_me(%rip)
	retq
.Lfunc_end182:
	.size	_ZN15CSSPropertyAPI48method33Ev, .Lfunc_end182-_ZN15CSSPropertyAPI48method33Ev
	.cfi_endproc
                                        # -- End function
	.globl	_ZN15CSSPropertyAPI48method34Ev # -- Begin function _ZN15CSSPropertyAPI48method34Ev
	.p2align	4, 0x90
	.type	_ZN15CSSPropertyAPI48method34Ev,@function
_ZN15CSSPropertyAPI48method34Ev:        # @_ZN15CSSPropertyAPI48method34Ev
	.cfi_startproc
# BB#0:                                 # %entry
	addl	$38, increment_me(%rip)
	retq
.Lfunc_end183:
	.size	_ZN15CSSPropertyAPI48method34Ev, .Lfunc_end183-_ZN15CSSPropertyAPI48method34Ev
	.cfi_endproc
                                        # -- End function
	.globl	_ZN15CSSPropertyAPI48method35Ev # -- Begin function _ZN15CSSPropertyAPI48method35Ev
	.p2align	4, 0x90
	.type	_ZN15CSSPropertyAPI48method35Ev,@function
_ZN15CSSPropertyAPI48method35Ev:        # @_ZN15CSSPropertyAPI48method35Ev
	.cfi_startproc
# BB#0:                                 # %entry
	addl	$39, increment_me(%rip)
	retq
.Lfunc_end184:
	.size	_ZN15CSSPropertyAPI48method35Ev, .Lfunc_end184-_ZN15CSSPropertyAPI48method35Ev
	.cfi_endproc
                                        # -- End function
	.globl	_ZN15CSSPropertyAPI48method36Ev # -- Begin function _ZN15CSSPropertyAPI48method36Ev
	.p2align	4, 0x90
	.type	_ZN15CSSPropertyAPI48method36Ev,@function
_ZN15CSSPropertyAPI48method36Ev:        # @_ZN15CSSPropertyAPI48method36Ev
	.cfi_startproc
# BB#0:                                 # %entry
	addl	$40, increment_me(%rip)
	retq
.Lfunc_end185:
	.size	_ZN15CSSPropertyAPI48method36Ev, .Lfunc_end185-_ZN15CSSPropertyAPI48method36Ev
	.cfi_endproc
                                        # -- End function
	.globl	_ZN15CSSPropertyAPI48method37Ev # -- Begin function _ZN15CSSPropertyAPI48method37Ev
	.p2align	4, 0x90
	.type	_ZN15CSSPropertyAPI48method37Ev,@function
_ZN15CSSPropertyAPI48method37Ev:        # @_ZN15CSSPropertyAPI48method37Ev
	.cfi_startproc
# BB#0:                                 # %entry
	addl	$41, increment_me(%rip)
	retq
.Lfunc_end186:
	.size	_ZN15CSSPropertyAPI48method37Ev, .Lfunc_end186-_ZN15CSSPropertyAPI48method37Ev
	.cfi_endproc
                                        # -- End function
	.globl	_ZN15CSSPropertyAPI48method38Ev # -- Begin function _ZN15CSSPropertyAPI48method38Ev
	.p2align	4, 0x90
	.type	_ZN15CSSPropertyAPI48method38Ev,@function
_ZN15CSSPropertyAPI48method38Ev:        # @_ZN15CSSPropertyAPI48method38Ev
	.cfi_startproc
# BB#0:                                 # %entry
	addl	$42, increment_me(%rip)
	retq
.Lfunc_end187:
	.size	_ZN15CSSPropertyAPI48method38Ev, .Lfunc_end187-_ZN15CSSPropertyAPI48method38Ev
	.cfi_endproc
                                        # -- End function
	.globl	_ZN15CSSPropertyAPI48method39Ev # -- Begin function _ZN15CSSPropertyAPI48method39Ev
	.p2align	4, 0x90
	.type	_ZN15CSSPropertyAPI48method39Ev,@function
_ZN15CSSPropertyAPI48method39Ev:        # @_ZN15CSSPropertyAPI48method39Ev
	.cfi_startproc
# BB#0:                                 # %entry
	addl	$43, increment_me(%rip)
	retq
.Lfunc_end188:
	.size	_ZN15CSSPropertyAPI48method39Ev, .Lfunc_end188-_ZN15CSSPropertyAPI48method39Ev
	.cfi_endproc
                                        # -- End function
	.globl	_ZN15CSSPropertyAPI48method40Ev # -- Begin function _ZN15CSSPropertyAPI48method40Ev
	.p2align	4, 0x90
	.type	_ZN15CSSPropertyAPI48method40Ev,@function
_ZN15CSSPropertyAPI48method40Ev:        # @_ZN15CSSPropertyAPI48method40Ev
	.cfi_startproc
# BB#0:                                 # %entry
	addl	$44, increment_me(%rip)
	retq
.Lfunc_end189:
	.size	_ZN15CSSPropertyAPI48method40Ev, .Lfunc_end189-_ZN15CSSPropertyAPI48method40Ev
	.cfi_endproc
                                        # -- End function
	.globl	_ZN15CSSPropertyAPI48method41Ev # -- Begin function _ZN15CSSPropertyAPI48method41Ev
	.p2align	4, 0x90
	.type	_ZN15CSSPropertyAPI48method41Ev,@function
_ZN15CSSPropertyAPI48method41Ev:        # @_ZN15CSSPropertyAPI48method41Ev
	.cfi_startproc
# BB#0:                                 # %entry
	addl	$45, increment_me(%rip)
	retq
.Lfunc_end190:
	.size	_ZN15CSSPropertyAPI48method41Ev, .Lfunc_end190-_ZN15CSSPropertyAPI48method41Ev
	.cfi_endproc
                                        # -- End function
	.globl	_ZN15CSSPropertyAPI48method42Ev # -- Begin function _ZN15CSSPropertyAPI48method42Ev
	.p2align	4, 0x90
	.type	_ZN15CSSPropertyAPI48method42Ev,@function
_ZN15CSSPropertyAPI48method42Ev:        # @_ZN15CSSPropertyAPI48method42Ev
	.cfi_startproc
# BB#0:                                 # %entry
	addl	$46, increment_me(%rip)
	retq
.Lfunc_end191:
	.size	_ZN15CSSPropertyAPI48method42Ev, .Lfunc_end191-_ZN15CSSPropertyAPI48method42Ev
	.cfi_endproc
                                        # -- End function
	.globl	_ZN15CSSPropertyAPI48method43Ev # -- Begin function _ZN15CSSPropertyAPI48method43Ev
	.p2align	4, 0x90
	.type	_ZN15CSSPropertyAPI48method43Ev,@function
_ZN15CSSPropertyAPI48method43Ev:        # @_ZN15CSSPropertyAPI48method43Ev
	.cfi_startproc
# BB#0:                                 # %entry
	addl	$47, increment_me(%rip)
	retq
.Lfunc_end192:
	.size	_ZN15CSSPropertyAPI48method43Ev, .Lfunc_end192-_ZN15CSSPropertyAPI48method43Ev
	.cfi_endproc
                                        # -- End function
	.globl	_ZN15CSSPropertyAPI48method44Ev # -- Begin function _ZN15CSSPropertyAPI48method44Ev
	.p2align	4, 0x90
	.type	_ZN15CSSPropertyAPI48method44Ev,@function
_ZN15CSSPropertyAPI48method44Ev:        # @_ZN15CSSPropertyAPI48method44Ev
	.cfi_startproc
# BB#0:                                 # %entry
	addl	$48, increment_me(%rip)
	retq
.Lfunc_end193:
	.size	_ZN15CSSPropertyAPI48method44Ev, .Lfunc_end193-_ZN15CSSPropertyAPI48method44Ev
	.cfi_endproc
                                        # -- End function
	.globl	_ZN15CSSPropertyAPI48method45Ev # -- Begin function _ZN15CSSPropertyAPI48method45Ev
	.p2align	4, 0x90
	.type	_ZN15CSSPropertyAPI48method45Ev,@function
_ZN15CSSPropertyAPI48method45Ev:        # @_ZN15CSSPropertyAPI48method45Ev
	.cfi_startproc
# BB#0:                                 # %entry
	addl	$49, increment_me(%rip)
	retq
.Lfunc_end194:
	.size	_ZN15CSSPropertyAPI48method45Ev, .Lfunc_end194-_ZN15CSSPropertyAPI48method45Ev
	.cfi_endproc
                                        # -- End function
	.globl	_ZN15CSSPropertyAPI48method46Ev # -- Begin function _ZN15CSSPropertyAPI48method46Ev
	.p2align	4, 0x90
	.type	_ZN15CSSPropertyAPI48method46Ev,@function
_ZN15CSSPropertyAPI48method46Ev:        # @_ZN15CSSPropertyAPI48method46Ev
	.cfi_startproc
# BB#0:                                 # %entry
	addl	$50, increment_me(%rip)
	retq
.Lfunc_end195:
	.size	_ZN15CSSPropertyAPI48method46Ev, .Lfunc_end195-_ZN15CSSPropertyAPI48method46Ev
	.cfi_endproc
                                        # -- End function
	.globl	_ZN15CSSPropertyAPI48method47Ev # -- Begin function _ZN15CSSPropertyAPI48method47Ev
	.p2align	4, 0x90
	.type	_ZN15CSSPropertyAPI48method47Ev,@function
_ZN15CSSPropertyAPI48method47Ev:        # @_ZN15CSSPropertyAPI48method47Ev
	.cfi_startproc
# BB#0:                                 # %entry
	addl	$51, increment_me(%rip)
	retq
.Lfunc_end196:
	.size	_ZN15CSSPropertyAPI48method47Ev, .Lfunc_end196-_ZN15CSSPropertyAPI48method47Ev
	.cfi_endproc
                                        # -- End function
	.globl	_ZN15CSSPropertyAPI48method48Ev # -- Begin function _ZN15CSSPropertyAPI48method48Ev
	.p2align	4, 0x90
	.type	_ZN15CSSPropertyAPI48method48Ev,@function
_ZN15CSSPropertyAPI48method48Ev:        # @_ZN15CSSPropertyAPI48method48Ev
	.cfi_startproc
# BB#0:                                 # %entry
	addl	$52, increment_me(%rip)
	retq
.Lfunc_end197:
	.size	_ZN15CSSPropertyAPI48method48Ev, .Lfunc_end197-_ZN15CSSPropertyAPI48method48Ev
	.cfi_endproc
                                        # -- End function
	.globl	_ZN15CSSPropertyAPI48method49Ev # -- Begin function _ZN15CSSPropertyAPI48method49Ev
	.p2align	4, 0x90
	.type	_ZN15CSSPropertyAPI48method49Ev,@function
_ZN15CSSPropertyAPI48method49Ev:        # @_ZN15CSSPropertyAPI48method49Ev
	.cfi_startproc
# BB#0:                                 # %entry
	addl	$53, increment_me(%rip)
	retq
.Lfunc_end198:
	.size	_ZN15CSSPropertyAPI48method49Ev, .Lfunc_end198-_ZN15CSSPropertyAPI48method49Ev
	.cfi_endproc
                                        # -- End function
	.globl	_ZN15CSSPropertyAPI48method50Ev # -- Begin function _ZN15CSSPropertyAPI48method50Ev
	.p2align	4, 0x90
	.type	_ZN15CSSPropertyAPI48method50Ev,@function
_ZN15CSSPropertyAPI48method50Ev:        # @_ZN15CSSPropertyAPI48method50Ev
	.cfi_startproc
# BB#0:                                 # %entry
	addl	$54, increment_me(%rip)
	retq
.Lfunc_end199:
	.size	_ZN15CSSPropertyAPI48method50Ev, .Lfunc_end199-_ZN15CSSPropertyAPI48method50Ev
	.cfi_endproc
                                        # -- End function
	.globl	_ZN15CSSPropertyAPI57method1Ev # -- Begin function _ZN15CSSPropertyAPI57method1Ev
	.p2align	4, 0x90
	.type	_ZN15CSSPropertyAPI57method1Ev,@function
_ZN15CSSPropertyAPI57method1Ev:         # @_ZN15CSSPropertyAPI57method1Ev
	.cfi_startproc
# BB#0:                                 # %entry
	addl	$6, increment_me(%rip)
	retq
.Lfunc_end200:
	.size	_ZN15CSSPropertyAPI57method1Ev, .Lfunc_end200-_ZN15CSSPropertyAPI57method1Ev
	.cfi_endproc
                                        # -- End function
	.globl	_ZN15CSSPropertyAPI57method2Ev # -- Begin function _ZN15CSSPropertyAPI57method2Ev
	.p2align	4, 0x90
	.type	_ZN15CSSPropertyAPI57method2Ev,@function
_ZN15CSSPropertyAPI57method2Ev:         # @_ZN15CSSPropertyAPI57method2Ev
	.cfi_startproc
# BB#0:                                 # %entry
	addl	$7, increment_me(%rip)
	retq
.Lfunc_end201:
	.size	_ZN15CSSPropertyAPI57method2Ev, .Lfunc_end201-_ZN15CSSPropertyAPI57method2Ev
	.cfi_endproc
                                        # -- End function
	.globl	_ZN15CSSPropertyAPI57method3Ev # -- Begin function _ZN15CSSPropertyAPI57method3Ev
	.p2align	4, 0x90
	.type	_ZN15CSSPropertyAPI57method3Ev,@function
_ZN15CSSPropertyAPI57method3Ev:         # @_ZN15CSSPropertyAPI57method3Ev
	.cfi_startproc
# BB#0:                                 # %entry
	addl	$8, increment_me(%rip)
	retq
.Lfunc_end202:
	.size	_ZN15CSSPropertyAPI57method3Ev, .Lfunc_end202-_ZN15CSSPropertyAPI57method3Ev
	.cfi_endproc
                                        # -- End function
	.globl	_ZN15CSSPropertyAPI57method4Ev # -- Begin function _ZN15CSSPropertyAPI57method4Ev
	.p2align	4, 0x90
	.type	_ZN15CSSPropertyAPI57method4Ev,@function
_ZN15CSSPropertyAPI57method4Ev:         # @_ZN15CSSPropertyAPI57method4Ev
	.cfi_startproc
# BB#0:                                 # %entry
	addl	$9, increment_me(%rip)
	retq
.Lfunc_end203:
	.size	_ZN15CSSPropertyAPI57method4Ev, .Lfunc_end203-_ZN15CSSPropertyAPI57method4Ev
	.cfi_endproc
                                        # -- End function
	.globl	_ZN15CSSPropertyAPI57method5Ev # -- Begin function _ZN15CSSPropertyAPI57method5Ev
	.p2align	4, 0x90
	.type	_ZN15CSSPropertyAPI57method5Ev,@function
_ZN15CSSPropertyAPI57method5Ev:         # @_ZN15CSSPropertyAPI57method5Ev
	.cfi_startproc
# BB#0:                                 # %entry
	addl	$10, increment_me(%rip)
	retq
.Lfunc_end204:
	.size	_ZN15CSSPropertyAPI57method5Ev, .Lfunc_end204-_ZN15CSSPropertyAPI57method5Ev
	.cfi_endproc
                                        # -- End function
	.globl	_ZN15CSSPropertyAPI57method6Ev # -- Begin function _ZN15CSSPropertyAPI57method6Ev
	.p2align	4, 0x90
	.type	_ZN15CSSPropertyAPI57method6Ev,@function
_ZN15CSSPropertyAPI57method6Ev:         # @_ZN15CSSPropertyAPI57method6Ev
	.cfi_startproc
# BB#0:                                 # %entry
	addl	$11, increment_me(%rip)
	retq
.Lfunc_end205:
	.size	_ZN15CSSPropertyAPI57method6Ev, .Lfunc_end205-_ZN15CSSPropertyAPI57method6Ev
	.cfi_endproc
                                        # -- End function
	.globl	_ZN15CSSPropertyAPI57method7Ev # -- Begin function _ZN15CSSPropertyAPI57method7Ev
	.p2align	4, 0x90
	.type	_ZN15CSSPropertyAPI57method7Ev,@function
_ZN15CSSPropertyAPI57method7Ev:         # @_ZN15CSSPropertyAPI57method7Ev
	.cfi_startproc
# BB#0:                                 # %entry
	addl	$12, increment_me(%rip)
	retq
.Lfunc_end206:
	.size	_ZN15CSSPropertyAPI57method7Ev, .Lfunc_end206-_ZN15CSSPropertyAPI57method7Ev
	.cfi_endproc
                                        # -- End function
	.globl	_ZN15CSSPropertyAPI57method8Ev # -- Begin function _ZN15CSSPropertyAPI57method8Ev
	.p2align	4, 0x90
	.type	_ZN15CSSPropertyAPI57method8Ev,@function
_ZN15CSSPropertyAPI57method8Ev:         # @_ZN15CSSPropertyAPI57method8Ev
	.cfi_startproc
# BB#0:                                 # %entry
	addl	$13, increment_me(%rip)
	retq
.Lfunc_end207:
	.size	_ZN15CSSPropertyAPI57method8Ev, .Lfunc_end207-_ZN15CSSPropertyAPI57method8Ev
	.cfi_endproc
                                        # -- End function
	.globl	_ZN15CSSPropertyAPI57method9Ev # -- Begin function _ZN15CSSPropertyAPI57method9Ev
	.p2align	4, 0x90
	.type	_ZN15CSSPropertyAPI57method9Ev,@function
_ZN15CSSPropertyAPI57method9Ev:         # @_ZN15CSSPropertyAPI57method9Ev
	.cfi_startproc
# BB#0:                                 # %entry
	addl	$14, increment_me(%rip)
	retq
.Lfunc_end208:
	.size	_ZN15CSSPropertyAPI57method9Ev, .Lfunc_end208-_ZN15CSSPropertyAPI57method9Ev
	.cfi_endproc
                                        # -- End function
	.globl	_ZN15CSSPropertyAPI58method10Ev # -- Begin function _ZN15CSSPropertyAPI58method10Ev
	.p2align	4, 0x90
	.type	_ZN15CSSPropertyAPI58method10Ev,@function
_ZN15CSSPropertyAPI58method10Ev:        # @_ZN15CSSPropertyAPI58method10Ev
	.cfi_startproc
# BB#0:                                 # %entry
	addl	$15, increment_me(%rip)
	retq
.Lfunc_end209:
	.size	_ZN15CSSPropertyAPI58method10Ev, .Lfunc_end209-_ZN15CSSPropertyAPI58method10Ev
	.cfi_endproc
                                        # -- End function
	.globl	_ZN15CSSPropertyAPI58method11Ev # -- Begin function _ZN15CSSPropertyAPI58method11Ev
	.p2align	4, 0x90
	.type	_ZN15CSSPropertyAPI58method11Ev,@function
_ZN15CSSPropertyAPI58method11Ev:        # @_ZN15CSSPropertyAPI58method11Ev
	.cfi_startproc
# BB#0:                                 # %entry
	addl	$16, increment_me(%rip)
	retq
.Lfunc_end210:
	.size	_ZN15CSSPropertyAPI58method11Ev, .Lfunc_end210-_ZN15CSSPropertyAPI58method11Ev
	.cfi_endproc
                                        # -- End function
	.globl	_ZN15CSSPropertyAPI58method12Ev # -- Begin function _ZN15CSSPropertyAPI58method12Ev
	.p2align	4, 0x90
	.type	_ZN15CSSPropertyAPI58method12Ev,@function
_ZN15CSSPropertyAPI58method12Ev:        # @_ZN15CSSPropertyAPI58method12Ev
	.cfi_startproc
# BB#0:                                 # %entry
	addl	$17, increment_me(%rip)
	retq
.Lfunc_end211:
	.size	_ZN15CSSPropertyAPI58method12Ev, .Lfunc_end211-_ZN15CSSPropertyAPI58method12Ev
	.cfi_endproc
                                        # -- End function
	.globl	_ZN15CSSPropertyAPI58method13Ev # -- Begin function _ZN15CSSPropertyAPI58method13Ev
	.p2align	4, 0x90
	.type	_ZN15CSSPropertyAPI58method13Ev,@function
_ZN15CSSPropertyAPI58method13Ev:        # @_ZN15CSSPropertyAPI58method13Ev
	.cfi_startproc
# BB#0:                                 # %entry
	addl	$18, increment_me(%rip)
	retq
.Lfunc_end212:
	.size	_ZN15CSSPropertyAPI58method13Ev, .Lfunc_end212-_ZN15CSSPropertyAPI58method13Ev
	.cfi_endproc
                                        # -- End function
	.globl	_ZN15CSSPropertyAPI58method14Ev # -- Begin function _ZN15CSSPropertyAPI58method14Ev
	.p2align	4, 0x90
	.type	_ZN15CSSPropertyAPI58method14Ev,@function
_ZN15CSSPropertyAPI58method14Ev:        # @_ZN15CSSPropertyAPI58method14Ev
	.cfi_startproc
# BB#0:                                 # %entry
	addl	$19, increment_me(%rip)
	retq
.Lfunc_end213:
	.size	_ZN15CSSPropertyAPI58method14Ev, .Lfunc_end213-_ZN15CSSPropertyAPI58method14Ev
	.cfi_endproc
                                        # -- End function
	.globl	_ZN15CSSPropertyAPI58method15Ev # -- Begin function _ZN15CSSPropertyAPI58method15Ev
	.p2align	4, 0x90
	.type	_ZN15CSSPropertyAPI58method15Ev,@function
_ZN15CSSPropertyAPI58method15Ev:        # @_ZN15CSSPropertyAPI58method15Ev
	.cfi_startproc
# BB#0:                                 # %entry
	addl	$20, increment_me(%rip)
	retq
.Lfunc_end214:
	.size	_ZN15CSSPropertyAPI58method15Ev, .Lfunc_end214-_ZN15CSSPropertyAPI58method15Ev
	.cfi_endproc
                                        # -- End function
	.globl	_ZN15CSSPropertyAPI58method16Ev # -- Begin function _ZN15CSSPropertyAPI58method16Ev
	.p2align	4, 0x90
	.type	_ZN15CSSPropertyAPI58method16Ev,@function
_ZN15CSSPropertyAPI58method16Ev:        # @_ZN15CSSPropertyAPI58method16Ev
	.cfi_startproc
# BB#0:                                 # %entry
	addl	$21, increment_me(%rip)
	retq
.Lfunc_end215:
	.size	_ZN15CSSPropertyAPI58method16Ev, .Lfunc_end215-_ZN15CSSPropertyAPI58method16Ev
	.cfi_endproc
                                        # -- End function
	.globl	_ZN15CSSPropertyAPI58method17Ev # -- Begin function _ZN15CSSPropertyAPI58method17Ev
	.p2align	4, 0x90
	.type	_ZN15CSSPropertyAPI58method17Ev,@function
_ZN15CSSPropertyAPI58method17Ev:        # @_ZN15CSSPropertyAPI58method17Ev
	.cfi_startproc
# BB#0:                                 # %entry
	addl	$22, increment_me(%rip)
	retq
.Lfunc_end216:
	.size	_ZN15CSSPropertyAPI58method17Ev, .Lfunc_end216-_ZN15CSSPropertyAPI58method17Ev
	.cfi_endproc
                                        # -- End function
	.globl	_ZN15CSSPropertyAPI58method18Ev # -- Begin function _ZN15CSSPropertyAPI58method18Ev
	.p2align	4, 0x90
	.type	_ZN15CSSPropertyAPI58method18Ev,@function
_ZN15CSSPropertyAPI58method18Ev:        # @_ZN15CSSPropertyAPI58method18Ev
	.cfi_startproc
# BB#0:                                 # %entry
	addl	$23, increment_me(%rip)
	retq
.Lfunc_end217:
	.size	_ZN15CSSPropertyAPI58method18Ev, .Lfunc_end217-_ZN15CSSPropertyAPI58method18Ev
	.cfi_endproc
                                        # -- End function
	.globl	_ZN15CSSPropertyAPI58method19Ev # -- Begin function _ZN15CSSPropertyAPI58method19Ev
	.p2align	4, 0x90
	.type	_ZN15CSSPropertyAPI58method19Ev,@function
_ZN15CSSPropertyAPI58method19Ev:        # @_ZN15CSSPropertyAPI58method19Ev
	.cfi_startproc
# BB#0:                                 # %entry
	addl	$24, increment_me(%rip)
	retq
.Lfunc_end218:
	.size	_ZN15CSSPropertyAPI58method19Ev, .Lfunc_end218-_ZN15CSSPropertyAPI58method19Ev
	.cfi_endproc
                                        # -- End function
	.globl	_ZN15CSSPropertyAPI58method20Ev # -- Begin function _ZN15CSSPropertyAPI58method20Ev
	.p2align	4, 0x90
	.type	_ZN15CSSPropertyAPI58method20Ev,@function
_ZN15CSSPropertyAPI58method20Ev:        # @_ZN15CSSPropertyAPI58method20Ev
	.cfi_startproc
# BB#0:                                 # %entry
	addl	$25, increment_me(%rip)
	retq
.Lfunc_end219:
	.size	_ZN15CSSPropertyAPI58method20Ev, .Lfunc_end219-_ZN15CSSPropertyAPI58method20Ev
	.cfi_endproc
                                        # -- End function
	.globl	_ZN15CSSPropertyAPI58method21Ev # -- Begin function _ZN15CSSPropertyAPI58method21Ev
	.p2align	4, 0x90
	.type	_ZN15CSSPropertyAPI58method21Ev,@function
_ZN15CSSPropertyAPI58method21Ev:        # @_ZN15CSSPropertyAPI58method21Ev
	.cfi_startproc
# BB#0:                                 # %entry
	addl	$26, increment_me(%rip)
	retq
.Lfunc_end220:
	.size	_ZN15CSSPropertyAPI58method21Ev, .Lfunc_end220-_ZN15CSSPropertyAPI58method21Ev
	.cfi_endproc
                                        # -- End function
	.globl	_ZN15CSSPropertyAPI58method22Ev # -- Begin function _ZN15CSSPropertyAPI58method22Ev
	.p2align	4, 0x90
	.type	_ZN15CSSPropertyAPI58method22Ev,@function
_ZN15CSSPropertyAPI58method22Ev:        # @_ZN15CSSPropertyAPI58method22Ev
	.cfi_startproc
# BB#0:                                 # %entry
	addl	$27, increment_me(%rip)
	retq
.Lfunc_end221:
	.size	_ZN15CSSPropertyAPI58method22Ev, .Lfunc_end221-_ZN15CSSPropertyAPI58method22Ev
	.cfi_endproc
                                        # -- End function
	.globl	_ZN15CSSPropertyAPI58method23Ev # -- Begin function _ZN15CSSPropertyAPI58method23Ev
	.p2align	4, 0x90
	.type	_ZN15CSSPropertyAPI58method23Ev,@function
_ZN15CSSPropertyAPI58method23Ev:        # @_ZN15CSSPropertyAPI58method23Ev
	.cfi_startproc
# BB#0:                                 # %entry
	addl	$28, increment_me(%rip)
	retq
.Lfunc_end222:
	.size	_ZN15CSSPropertyAPI58method23Ev, .Lfunc_end222-_ZN15CSSPropertyAPI58method23Ev
	.cfi_endproc
                                        # -- End function
	.globl	_ZN15CSSPropertyAPI58method24Ev # -- Begin function _ZN15CSSPropertyAPI58method24Ev
	.p2align	4, 0x90
	.type	_ZN15CSSPropertyAPI58method24Ev,@function
_ZN15CSSPropertyAPI58method24Ev:        # @_ZN15CSSPropertyAPI58method24Ev
	.cfi_startproc
# BB#0:                                 # %entry
	addl	$29, increment_me(%rip)
	retq
.Lfunc_end223:
	.size	_ZN15CSSPropertyAPI58method24Ev, .Lfunc_end223-_ZN15CSSPropertyAPI58method24Ev
	.cfi_endproc
                                        # -- End function
	.globl	_ZN15CSSPropertyAPI58method25Ev # -- Begin function _ZN15CSSPropertyAPI58method25Ev
	.p2align	4, 0x90
	.type	_ZN15CSSPropertyAPI58method25Ev,@function
_ZN15CSSPropertyAPI58method25Ev:        # @_ZN15CSSPropertyAPI58method25Ev
	.cfi_startproc
# BB#0:                                 # %entry
	addl	$30, increment_me(%rip)
	retq
.Lfunc_end224:
	.size	_ZN15CSSPropertyAPI58method25Ev, .Lfunc_end224-_ZN15CSSPropertyAPI58method25Ev
	.cfi_endproc
                                        # -- End function
	.globl	_ZN15CSSPropertyAPI58method26Ev # -- Begin function _ZN15CSSPropertyAPI58method26Ev
	.p2align	4, 0x90
	.type	_ZN15CSSPropertyAPI58method26Ev,@function
_ZN15CSSPropertyAPI58method26Ev:        # @_ZN15CSSPropertyAPI58method26Ev
	.cfi_startproc
# BB#0:                                 # %entry
	addl	$31, increment_me(%rip)
	retq
.Lfunc_end225:
	.size	_ZN15CSSPropertyAPI58method26Ev, .Lfunc_end225-_ZN15CSSPropertyAPI58method26Ev
	.cfi_endproc
                                        # -- End function
	.globl	_ZN15CSSPropertyAPI58method27Ev # -- Begin function _ZN15CSSPropertyAPI58method27Ev
	.p2align	4, 0x90
	.type	_ZN15CSSPropertyAPI58method27Ev,@function
_ZN15CSSPropertyAPI58method27Ev:        # @_ZN15CSSPropertyAPI58method27Ev
	.cfi_startproc
# BB#0:                                 # %entry
	addl	$32, increment_me(%rip)
	retq
.Lfunc_end226:
	.size	_ZN15CSSPropertyAPI58method27Ev, .Lfunc_end226-_ZN15CSSPropertyAPI58method27Ev
	.cfi_endproc
                                        # -- End function
	.globl	_ZN15CSSPropertyAPI58method28Ev # -- Begin function _ZN15CSSPropertyAPI58method28Ev
	.p2align	4, 0x90
	.type	_ZN15CSSPropertyAPI58method28Ev,@function
_ZN15CSSPropertyAPI58method28Ev:        # @_ZN15CSSPropertyAPI58method28Ev
	.cfi_startproc
# BB#0:                                 # %entry
	addl	$33, increment_me(%rip)
	retq
.Lfunc_end227:
	.size	_ZN15CSSPropertyAPI58method28Ev, .Lfunc_end227-_ZN15CSSPropertyAPI58method28Ev
	.cfi_endproc
                                        # -- End function
	.globl	_ZN15CSSPropertyAPI58method29Ev # -- Begin function _ZN15CSSPropertyAPI58method29Ev
	.p2align	4, 0x90
	.type	_ZN15CSSPropertyAPI58method29Ev,@function
_ZN15CSSPropertyAPI58method29Ev:        # @_ZN15CSSPropertyAPI58method29Ev
	.cfi_startproc
# BB#0:                                 # %entry
	addl	$34, increment_me(%rip)
	retq
.Lfunc_end228:
	.size	_ZN15CSSPropertyAPI58method29Ev, .Lfunc_end228-_ZN15CSSPropertyAPI58method29Ev
	.cfi_endproc
                                        # -- End function
	.globl	_ZN15CSSPropertyAPI58method30Ev # -- Begin function _ZN15CSSPropertyAPI58method30Ev
	.p2align	4, 0x90
	.type	_ZN15CSSPropertyAPI58method30Ev,@function
_ZN15CSSPropertyAPI58method30Ev:        # @_ZN15CSSPropertyAPI58method30Ev
	.cfi_startproc
# BB#0:                                 # %entry
	addl	$35, increment_me(%rip)
	retq
.Lfunc_end229:
	.size	_ZN15CSSPropertyAPI58method30Ev, .Lfunc_end229-_ZN15CSSPropertyAPI58method30Ev
	.cfi_endproc
                                        # -- End function
	.globl	_ZN15CSSPropertyAPI58method31Ev # -- Begin function _ZN15CSSPropertyAPI58method31Ev
	.p2align	4, 0x90
	.type	_ZN15CSSPropertyAPI58method31Ev,@function
_ZN15CSSPropertyAPI58method31Ev:        # @_ZN15CSSPropertyAPI58method31Ev
	.cfi_startproc
# BB#0:                                 # %entry
	addl	$36, increment_me(%rip)
	retq
.Lfunc_end230:
	.size	_ZN15CSSPropertyAPI58method31Ev, .Lfunc_end230-_ZN15CSSPropertyAPI58method31Ev
	.cfi_endproc
                                        # -- End function
	.globl	_ZN15CSSPropertyAPI58method32Ev # -- Begin function _ZN15CSSPropertyAPI58method32Ev
	.p2align	4, 0x90
	.type	_ZN15CSSPropertyAPI58method32Ev,@function
_ZN15CSSPropertyAPI58method32Ev:        # @_ZN15CSSPropertyAPI58method32Ev
	.cfi_startproc
# BB#0:                                 # %entry
	addl	$37, increment_me(%rip)
	retq
.Lfunc_end231:
	.size	_ZN15CSSPropertyAPI58method32Ev, .Lfunc_end231-_ZN15CSSPropertyAPI58method32Ev
	.cfi_endproc
                                        # -- End function
	.globl	_ZN15CSSPropertyAPI58method33Ev # -- Begin function _ZN15CSSPropertyAPI58method33Ev
	.p2align	4, 0x90
	.type	_ZN15CSSPropertyAPI58method33Ev,@function
_ZN15CSSPropertyAPI58method33Ev:        # @_ZN15CSSPropertyAPI58method33Ev
	.cfi_startproc
# BB#0:                                 # %entry
	addl	$38, increment_me(%rip)
	retq
.Lfunc_end232:
	.size	_ZN15CSSPropertyAPI58method33Ev, .Lfunc_end232-_ZN15CSSPropertyAPI58method33Ev
	.cfi_endproc
                                        # -- End function
	.globl	_ZN15CSSPropertyAPI58method34Ev # -- Begin function _ZN15CSSPropertyAPI58method34Ev
	.p2align	4, 0x90
	.type	_ZN15CSSPropertyAPI58method34Ev,@function
_ZN15CSSPropertyAPI58method34Ev:        # @_ZN15CSSPropertyAPI58method34Ev
	.cfi_startproc
# BB#0:                                 # %entry
	addl	$39, increment_me(%rip)
	retq
.Lfunc_end233:
	.size	_ZN15CSSPropertyAPI58method34Ev, .Lfunc_end233-_ZN15CSSPropertyAPI58method34Ev
	.cfi_endproc
                                        # -- End function
	.globl	_ZN15CSSPropertyAPI58method35Ev # -- Begin function _ZN15CSSPropertyAPI58method35Ev
	.p2align	4, 0x90
	.type	_ZN15CSSPropertyAPI58method35Ev,@function
_ZN15CSSPropertyAPI58method35Ev:        # @_ZN15CSSPropertyAPI58method35Ev
	.cfi_startproc
# BB#0:                                 # %entry
	addl	$40, increment_me(%rip)
	retq
.Lfunc_end234:
	.size	_ZN15CSSPropertyAPI58method35Ev, .Lfunc_end234-_ZN15CSSPropertyAPI58method35Ev
	.cfi_endproc
                                        # -- End function
	.globl	_ZN15CSSPropertyAPI58method36Ev # -- Begin function _ZN15CSSPropertyAPI58method36Ev
	.p2align	4, 0x90
	.type	_ZN15CSSPropertyAPI58method36Ev,@function
_ZN15CSSPropertyAPI58method36Ev:        # @_ZN15CSSPropertyAPI58method36Ev
	.cfi_startproc
# BB#0:                                 # %entry
	addl	$41, increment_me(%rip)
	retq
.Lfunc_end235:
	.size	_ZN15CSSPropertyAPI58method36Ev, .Lfunc_end235-_ZN15CSSPropertyAPI58method36Ev
	.cfi_endproc
                                        # -- End function
	.globl	_ZN15CSSPropertyAPI58method37Ev # -- Begin function _ZN15CSSPropertyAPI58method37Ev
	.p2align	4, 0x90
	.type	_ZN15CSSPropertyAPI58method37Ev,@function
_ZN15CSSPropertyAPI58method37Ev:        # @_ZN15CSSPropertyAPI58method37Ev
	.cfi_startproc
# BB#0:                                 # %entry
	addl	$42, increment_me(%rip)
	retq
.Lfunc_end236:
	.size	_ZN15CSSPropertyAPI58method37Ev, .Lfunc_end236-_ZN15CSSPropertyAPI58method37Ev
	.cfi_endproc
                                        # -- End function
	.globl	_ZN15CSSPropertyAPI58method38Ev # -- Begin function _ZN15CSSPropertyAPI58method38Ev
	.p2align	4, 0x90
	.type	_ZN15CSSPropertyAPI58method38Ev,@function
_ZN15CSSPropertyAPI58method38Ev:        # @_ZN15CSSPropertyAPI58method38Ev
	.cfi_startproc
# BB#0:                                 # %entry
	addl	$43, increment_me(%rip)
	retq
.Lfunc_end237:
	.size	_ZN15CSSPropertyAPI58method38Ev, .Lfunc_end237-_ZN15CSSPropertyAPI58method38Ev
	.cfi_endproc
                                        # -- End function
	.globl	_ZN15CSSPropertyAPI58method39Ev # -- Begin function _ZN15CSSPropertyAPI58method39Ev
	.p2align	4, 0x90
	.type	_ZN15CSSPropertyAPI58method39Ev,@function
_ZN15CSSPropertyAPI58method39Ev:        # @_ZN15CSSPropertyAPI58method39Ev
	.cfi_startproc
# BB#0:                                 # %entry
	addl	$44, increment_me(%rip)
	retq
.Lfunc_end238:
	.size	_ZN15CSSPropertyAPI58method39Ev, .Lfunc_end238-_ZN15CSSPropertyAPI58method39Ev
	.cfi_endproc
                                        # -- End function
	.globl	_ZN15CSSPropertyAPI58method40Ev # -- Begin function _ZN15CSSPropertyAPI58method40Ev
	.p2align	4, 0x90
	.type	_ZN15CSSPropertyAPI58method40Ev,@function
_ZN15CSSPropertyAPI58method40Ev:        # @_ZN15CSSPropertyAPI58method40Ev
	.cfi_startproc
# BB#0:                                 # %entry
	addl	$45, increment_me(%rip)
	retq
.Lfunc_end239:
	.size	_ZN15CSSPropertyAPI58method40Ev, .Lfunc_end239-_ZN15CSSPropertyAPI58method40Ev
	.cfi_endproc
                                        # -- End function
	.globl	_ZN15CSSPropertyAPI58method41Ev # -- Begin function _ZN15CSSPropertyAPI58method41Ev
	.p2align	4, 0x90
	.type	_ZN15CSSPropertyAPI58method41Ev,@function
_ZN15CSSPropertyAPI58method41Ev:        # @_ZN15CSSPropertyAPI58method41Ev
	.cfi_startproc
# BB#0:                                 # %entry
	addl	$46, increment_me(%rip)
	retq
.Lfunc_end240:
	.size	_ZN15CSSPropertyAPI58method41Ev, .Lfunc_end240-_ZN15CSSPropertyAPI58method41Ev
	.cfi_endproc
                                        # -- End function
	.globl	_ZN15CSSPropertyAPI58method42Ev # -- Begin function _ZN15CSSPropertyAPI58method42Ev
	.p2align	4, 0x90
	.type	_ZN15CSSPropertyAPI58method42Ev,@function
_ZN15CSSPropertyAPI58method42Ev:        # @_ZN15CSSPropertyAPI58method42Ev
	.cfi_startproc
# BB#0:                                 # %entry
	addl	$47, increment_me(%rip)
	retq
.Lfunc_end241:
	.size	_ZN15CSSPropertyAPI58method42Ev, .Lfunc_end241-_ZN15CSSPropertyAPI58method42Ev
	.cfi_endproc
                                        # -- End function
	.globl	_ZN15CSSPropertyAPI58method43Ev # -- Begin function _ZN15CSSPropertyAPI58method43Ev
	.p2align	4, 0x90
	.type	_ZN15CSSPropertyAPI58method43Ev,@function
_ZN15CSSPropertyAPI58method43Ev:        # @_ZN15CSSPropertyAPI58method43Ev
	.cfi_startproc
# BB#0:                                 # %entry
	addl	$48, increment_me(%rip)
	retq
.Lfunc_end242:
	.size	_ZN15CSSPropertyAPI58method43Ev, .Lfunc_end242-_ZN15CSSPropertyAPI58method43Ev
	.cfi_endproc
                                        # -- End function
	.globl	_ZN15CSSPropertyAPI58method44Ev # -- Begin function _ZN15CSSPropertyAPI58method44Ev
	.p2align	4, 0x90
	.type	_ZN15CSSPropertyAPI58method44Ev,@function
_ZN15CSSPropertyAPI58method44Ev:        # @_ZN15CSSPropertyAPI58method44Ev
	.cfi_startproc
# BB#0:                                 # %entry
	addl	$49, increment_me(%rip)
	retq
.Lfunc_end243:
	.size	_ZN15CSSPropertyAPI58method44Ev, .Lfunc_end243-_ZN15CSSPropertyAPI58method44Ev
	.cfi_endproc
                                        # -- End function
	.globl	_ZN15CSSPropertyAPI58method45Ev # -- Begin function _ZN15CSSPropertyAPI58method45Ev
	.p2align	4, 0x90
	.type	_ZN15CSSPropertyAPI58method45Ev,@function
_ZN15CSSPropertyAPI58method45Ev:        # @_ZN15CSSPropertyAPI58method45Ev
	.cfi_startproc
# BB#0:                                 # %entry
	addl	$50, increment_me(%rip)
	retq
.Lfunc_end244:
	.size	_ZN15CSSPropertyAPI58method45Ev, .Lfunc_end244-_ZN15CSSPropertyAPI58method45Ev
	.cfi_endproc
                                        # -- End function
	.globl	_ZN15CSSPropertyAPI58method46Ev # -- Begin function _ZN15CSSPropertyAPI58method46Ev
	.p2align	4, 0x90
	.type	_ZN15CSSPropertyAPI58method46Ev,@function
_ZN15CSSPropertyAPI58method46Ev:        # @_ZN15CSSPropertyAPI58method46Ev
	.cfi_startproc
# BB#0:                                 # %entry
	addl	$51, increment_me(%rip)
	retq
.Lfunc_end245:
	.size	_ZN15CSSPropertyAPI58method46Ev, .Lfunc_end245-_ZN15CSSPropertyAPI58method46Ev
	.cfi_endproc
                                        # -- End function
	.globl	_ZN15CSSPropertyAPI58method47Ev # -- Begin function _ZN15CSSPropertyAPI58method47Ev
	.p2align	4, 0x90
	.type	_ZN15CSSPropertyAPI58method47Ev,@function
_ZN15CSSPropertyAPI58method47Ev:        # @_ZN15CSSPropertyAPI58method47Ev
	.cfi_startproc
# BB#0:                                 # %entry
	addl	$52, increment_me(%rip)
	retq
.Lfunc_end246:
	.size	_ZN15CSSPropertyAPI58method47Ev, .Lfunc_end246-_ZN15CSSPropertyAPI58method47Ev
	.cfi_endproc
                                        # -- End function
	.globl	_ZN15CSSPropertyAPI58method48Ev # -- Begin function _ZN15CSSPropertyAPI58method48Ev
	.p2align	4, 0x90
	.type	_ZN15CSSPropertyAPI58method48Ev,@function
_ZN15CSSPropertyAPI58method48Ev:        # @_ZN15CSSPropertyAPI58method48Ev
	.cfi_startproc
# BB#0:                                 # %entry
	addl	$53, increment_me(%rip)
	retq
.Lfunc_end247:
	.size	_ZN15CSSPropertyAPI58method48Ev, .Lfunc_end247-_ZN15CSSPropertyAPI58method48Ev
	.cfi_endproc
                                        # -- End function
	.globl	_ZN15CSSPropertyAPI58method49Ev # -- Begin function _ZN15CSSPropertyAPI58method49Ev
	.p2align	4, 0x90
	.type	_ZN15CSSPropertyAPI58method49Ev,@function
_ZN15CSSPropertyAPI58method49Ev:        # @_ZN15CSSPropertyAPI58method49Ev
	.cfi_startproc
# BB#0:                                 # %entry
	addl	$54, increment_me(%rip)
	retq
.Lfunc_end248:
	.size	_ZN15CSSPropertyAPI58method49Ev, .Lfunc_end248-_ZN15CSSPropertyAPI58method49Ev
	.cfi_endproc
                                        # -- End function
	.globl	_ZN15CSSPropertyAPI58method50Ev # -- Begin function _ZN15CSSPropertyAPI58method50Ev
	.p2align	4, 0x90
	.type	_ZN15CSSPropertyAPI58method50Ev,@function
_ZN15CSSPropertyAPI58method50Ev:        # @_ZN15CSSPropertyAPI58method50Ev
	.cfi_startproc
# BB#0:                                 # %entry
	addl	$55, increment_me(%rip)
	retq
.Lfunc_end249:
	.size	_ZN15CSSPropertyAPI58method50Ev, .Lfunc_end249-_ZN15CSSPropertyAPI58method50Ev
	.cfi_endproc
                                        # -- End function
	.globl	_ZN15CSSPropertyAPI67method1Ev # -- Begin function _ZN15CSSPropertyAPI67method1Ev
	.p2align	4, 0x90
	.type	_ZN15CSSPropertyAPI67method1Ev,@function
_ZN15CSSPropertyAPI67method1Ev:         # @_ZN15CSSPropertyAPI67method1Ev
	.cfi_startproc
# BB#0:                                 # %entry
	addl	$7, increment_me(%rip)
	retq
.Lfunc_end250:
	.size	_ZN15CSSPropertyAPI67method1Ev, .Lfunc_end250-_ZN15CSSPropertyAPI67method1Ev
	.cfi_endproc
                                        # -- End function
	.globl	_ZN15CSSPropertyAPI67method2Ev # -- Begin function _ZN15CSSPropertyAPI67method2Ev
	.p2align	4, 0x90
	.type	_ZN15CSSPropertyAPI67method2Ev,@function
_ZN15CSSPropertyAPI67method2Ev:         # @_ZN15CSSPropertyAPI67method2Ev
	.cfi_startproc
# BB#0:                                 # %entry
	addl	$8, increment_me(%rip)
	retq
.Lfunc_end251:
	.size	_ZN15CSSPropertyAPI67method2Ev, .Lfunc_end251-_ZN15CSSPropertyAPI67method2Ev
	.cfi_endproc
                                        # -- End function
	.globl	_ZN15CSSPropertyAPI67method3Ev # -- Begin function _ZN15CSSPropertyAPI67method3Ev
	.p2align	4, 0x90
	.type	_ZN15CSSPropertyAPI67method3Ev,@function
_ZN15CSSPropertyAPI67method3Ev:         # @_ZN15CSSPropertyAPI67method3Ev
	.cfi_startproc
# BB#0:                                 # %entry
	addl	$9, increment_me(%rip)
	retq
.Lfunc_end252:
	.size	_ZN15CSSPropertyAPI67method3Ev, .Lfunc_end252-_ZN15CSSPropertyAPI67method3Ev
	.cfi_endproc
                                        # -- End function
	.globl	_ZN15CSSPropertyAPI67method4Ev # -- Begin function _ZN15CSSPropertyAPI67method4Ev
	.p2align	4, 0x90
	.type	_ZN15CSSPropertyAPI67method4Ev,@function
_ZN15CSSPropertyAPI67method4Ev:         # @_ZN15CSSPropertyAPI67method4Ev
	.cfi_startproc
# BB#0:                                 # %entry
	addl	$10, increment_me(%rip)
	retq
.Lfunc_end253:
	.size	_ZN15CSSPropertyAPI67method4Ev, .Lfunc_end253-_ZN15CSSPropertyAPI67method4Ev
	.cfi_endproc
                                        # -- End function
	.globl	_ZN15CSSPropertyAPI67method5Ev # -- Begin function _ZN15CSSPropertyAPI67method5Ev
	.p2align	4, 0x90
	.type	_ZN15CSSPropertyAPI67method5Ev,@function
_ZN15CSSPropertyAPI67method5Ev:         # @_ZN15CSSPropertyAPI67method5Ev
	.cfi_startproc
# BB#0:                                 # %entry
	addl	$11, increment_me(%rip)
	retq
.Lfunc_end254:
	.size	_ZN15CSSPropertyAPI67method5Ev, .Lfunc_end254-_ZN15CSSPropertyAPI67method5Ev
	.cfi_endproc
                                        # -- End function
	.globl	_ZN15CSSPropertyAPI67method6Ev # -- Begin function _ZN15CSSPropertyAPI67method6Ev
	.p2align	4, 0x90
	.type	_ZN15CSSPropertyAPI67method6Ev,@function
_ZN15CSSPropertyAPI67method6Ev:         # @_ZN15CSSPropertyAPI67method6Ev
	.cfi_startproc
# BB#0:                                 # %entry
	addl	$12, increment_me(%rip)
	retq
.Lfunc_end255:
	.size	_ZN15CSSPropertyAPI67method6Ev, .Lfunc_end255-_ZN15CSSPropertyAPI67method6Ev
	.cfi_endproc
                                        # -- End function
	.globl	_ZN15CSSPropertyAPI67method7Ev # -- Begin function _ZN15CSSPropertyAPI67method7Ev
	.p2align	4, 0x90
	.type	_ZN15CSSPropertyAPI67method7Ev,@function
_ZN15CSSPropertyAPI67method7Ev:         # @_ZN15CSSPropertyAPI67method7Ev
	.cfi_startproc
# BB#0:                                 # %entry
	addl	$13, increment_me(%rip)
	retq
.Lfunc_end256:
	.size	_ZN15CSSPropertyAPI67method7Ev, .Lfunc_end256-_ZN15CSSPropertyAPI67method7Ev
	.cfi_endproc
                                        # -- End function
	.globl	_ZN15CSSPropertyAPI67method8Ev # -- Begin function _ZN15CSSPropertyAPI67method8Ev
	.p2align	4, 0x90
	.type	_ZN15CSSPropertyAPI67method8Ev,@function
_ZN15CSSPropertyAPI67method8Ev:         # @_ZN15CSSPropertyAPI67method8Ev
	.cfi_startproc
# BB#0:                                 # %entry
	addl	$14, increment_me(%rip)
	retq
.Lfunc_end257:
	.size	_ZN15CSSPropertyAPI67method8Ev, .Lfunc_end257-_ZN15CSSPropertyAPI67method8Ev
	.cfi_endproc
                                        # -- End function
	.globl	_ZN15CSSPropertyAPI67method9Ev # -- Begin function _ZN15CSSPropertyAPI67method9Ev
	.p2align	4, 0x90
	.type	_ZN15CSSPropertyAPI67method9Ev,@function
_ZN15CSSPropertyAPI67method9Ev:         # @_ZN15CSSPropertyAPI67method9Ev
	.cfi_startproc
# BB#0:                                 # %entry
	addl	$15, increment_me(%rip)
	retq
.Lfunc_end258:
	.size	_ZN15CSSPropertyAPI67method9Ev, .Lfunc_end258-_ZN15CSSPropertyAPI67method9Ev
	.cfi_endproc
                                        # -- End function
	.globl	_ZN15CSSPropertyAPI68method10Ev # -- Begin function _ZN15CSSPropertyAPI68method10Ev
	.p2align	4, 0x90
	.type	_ZN15CSSPropertyAPI68method10Ev,@function
_ZN15CSSPropertyAPI68method10Ev:        # @_ZN15CSSPropertyAPI68method10Ev
	.cfi_startproc
# BB#0:                                 # %entry
	addl	$16, increment_me(%rip)
	retq
.Lfunc_end259:
	.size	_ZN15CSSPropertyAPI68method10Ev, .Lfunc_end259-_ZN15CSSPropertyAPI68method10Ev
	.cfi_endproc
                                        # -- End function
	.globl	_ZN15CSSPropertyAPI68method11Ev # -- Begin function _ZN15CSSPropertyAPI68method11Ev
	.p2align	4, 0x90
	.type	_ZN15CSSPropertyAPI68method11Ev,@function
_ZN15CSSPropertyAPI68method11Ev:        # @_ZN15CSSPropertyAPI68method11Ev
	.cfi_startproc
# BB#0:                                 # %entry
	addl	$17, increment_me(%rip)
	retq
.Lfunc_end260:
	.size	_ZN15CSSPropertyAPI68method11Ev, .Lfunc_end260-_ZN15CSSPropertyAPI68method11Ev
	.cfi_endproc
                                        # -- End function
	.globl	_ZN15CSSPropertyAPI68method12Ev # -- Begin function _ZN15CSSPropertyAPI68method12Ev
	.p2align	4, 0x90
	.type	_ZN15CSSPropertyAPI68method12Ev,@function
_ZN15CSSPropertyAPI68method12Ev:        # @_ZN15CSSPropertyAPI68method12Ev
	.cfi_startproc
# BB#0:                                 # %entry
	addl	$18, increment_me(%rip)
	retq
.Lfunc_end261:
	.size	_ZN15CSSPropertyAPI68method12Ev, .Lfunc_end261-_ZN15CSSPropertyAPI68method12Ev
	.cfi_endproc
                                        # -- End function
	.globl	_ZN15CSSPropertyAPI68method13Ev # -- Begin function _ZN15CSSPropertyAPI68method13Ev
	.p2align	4, 0x90
	.type	_ZN15CSSPropertyAPI68method13Ev,@function
_ZN15CSSPropertyAPI68method13Ev:        # @_ZN15CSSPropertyAPI68method13Ev
	.cfi_startproc
# BB#0:                                 # %entry
	addl	$19, increment_me(%rip)
	retq
.Lfunc_end262:
	.size	_ZN15CSSPropertyAPI68method13Ev, .Lfunc_end262-_ZN15CSSPropertyAPI68method13Ev
	.cfi_endproc
                                        # -- End function
	.globl	_ZN15CSSPropertyAPI68method14Ev # -- Begin function _ZN15CSSPropertyAPI68method14Ev
	.p2align	4, 0x90
	.type	_ZN15CSSPropertyAPI68method14Ev,@function
_ZN15CSSPropertyAPI68method14Ev:        # @_ZN15CSSPropertyAPI68method14Ev
	.cfi_startproc
# BB#0:                                 # %entry
	addl	$20, increment_me(%rip)
	retq
.Lfunc_end263:
	.size	_ZN15CSSPropertyAPI68method14Ev, .Lfunc_end263-_ZN15CSSPropertyAPI68method14Ev
	.cfi_endproc
                                        # -- End function
	.globl	_ZN15CSSPropertyAPI68method15Ev # -- Begin function _ZN15CSSPropertyAPI68method15Ev
	.p2align	4, 0x90
	.type	_ZN15CSSPropertyAPI68method15Ev,@function
_ZN15CSSPropertyAPI68method15Ev:        # @_ZN15CSSPropertyAPI68method15Ev
	.cfi_startproc
# BB#0:                                 # %entry
	addl	$21, increment_me(%rip)
	retq
.Lfunc_end264:
	.size	_ZN15CSSPropertyAPI68method15Ev, .Lfunc_end264-_ZN15CSSPropertyAPI68method15Ev
	.cfi_endproc
                                        # -- End function
	.globl	_ZN15CSSPropertyAPI68method16Ev # -- Begin function _ZN15CSSPropertyAPI68method16Ev
	.p2align	4, 0x90
	.type	_ZN15CSSPropertyAPI68method16Ev,@function
_ZN15CSSPropertyAPI68method16Ev:        # @_ZN15CSSPropertyAPI68method16Ev
	.cfi_startproc
# BB#0:                                 # %entry
	addl	$22, increment_me(%rip)
	retq
.Lfunc_end265:
	.size	_ZN15CSSPropertyAPI68method16Ev, .Lfunc_end265-_ZN15CSSPropertyAPI68method16Ev
	.cfi_endproc
                                        # -- End function
	.globl	_ZN15CSSPropertyAPI68method17Ev # -- Begin function _ZN15CSSPropertyAPI68method17Ev
	.p2align	4, 0x90
	.type	_ZN15CSSPropertyAPI68method17Ev,@function
_ZN15CSSPropertyAPI68method17Ev:        # @_ZN15CSSPropertyAPI68method17Ev
	.cfi_startproc
# BB#0:                                 # %entry
	addl	$23, increment_me(%rip)
	retq
.Lfunc_end266:
	.size	_ZN15CSSPropertyAPI68method17Ev, .Lfunc_end266-_ZN15CSSPropertyAPI68method17Ev
	.cfi_endproc
                                        # -- End function
	.globl	_ZN15CSSPropertyAPI68method18Ev # -- Begin function _ZN15CSSPropertyAPI68method18Ev
	.p2align	4, 0x90
	.type	_ZN15CSSPropertyAPI68method18Ev,@function
_ZN15CSSPropertyAPI68method18Ev:        # @_ZN15CSSPropertyAPI68method18Ev
	.cfi_startproc
# BB#0:                                 # %entry
	addl	$24, increment_me(%rip)
	retq
.Lfunc_end267:
	.size	_ZN15CSSPropertyAPI68method18Ev, .Lfunc_end267-_ZN15CSSPropertyAPI68method18Ev
	.cfi_endproc
                                        # -- End function
	.globl	_ZN15CSSPropertyAPI68method19Ev # -- Begin function _ZN15CSSPropertyAPI68method19Ev
	.p2align	4, 0x90
	.type	_ZN15CSSPropertyAPI68method19Ev,@function
_ZN15CSSPropertyAPI68method19Ev:        # @_ZN15CSSPropertyAPI68method19Ev
	.cfi_startproc
# BB#0:                                 # %entry
	addl	$25, increment_me(%rip)
	retq
.Lfunc_end268:
	.size	_ZN15CSSPropertyAPI68method19Ev, .Lfunc_end268-_ZN15CSSPropertyAPI68method19Ev
	.cfi_endproc
                                        # -- End function
	.globl	_ZN15CSSPropertyAPI68method20Ev # -- Begin function _ZN15CSSPropertyAPI68method20Ev
	.p2align	4, 0x90
	.type	_ZN15CSSPropertyAPI68method20Ev,@function
_ZN15CSSPropertyAPI68method20Ev:        # @_ZN15CSSPropertyAPI68method20Ev
	.cfi_startproc
# BB#0:                                 # %entry
	addl	$26, increment_me(%rip)
	retq
.Lfunc_end269:
	.size	_ZN15CSSPropertyAPI68method20Ev, .Lfunc_end269-_ZN15CSSPropertyAPI68method20Ev
	.cfi_endproc
                                        # -- End function
	.globl	_ZN15CSSPropertyAPI68method21Ev # -- Begin function _ZN15CSSPropertyAPI68method21Ev
	.p2align	4, 0x90
	.type	_ZN15CSSPropertyAPI68method21Ev,@function
_ZN15CSSPropertyAPI68method21Ev:        # @_ZN15CSSPropertyAPI68method21Ev
	.cfi_startproc
# BB#0:                                 # %entry
	addl	$27, increment_me(%rip)
	retq
.Lfunc_end270:
	.size	_ZN15CSSPropertyAPI68method21Ev, .Lfunc_end270-_ZN15CSSPropertyAPI68method21Ev
	.cfi_endproc
                                        # -- End function
	.globl	_ZN15CSSPropertyAPI68method22Ev # -- Begin function _ZN15CSSPropertyAPI68method22Ev
	.p2align	4, 0x90
	.type	_ZN15CSSPropertyAPI68method22Ev,@function
_ZN15CSSPropertyAPI68method22Ev:        # @_ZN15CSSPropertyAPI68method22Ev
	.cfi_startproc
# BB#0:                                 # %entry
	addl	$28, increment_me(%rip)
	retq
.Lfunc_end271:
	.size	_ZN15CSSPropertyAPI68method22Ev, .Lfunc_end271-_ZN15CSSPropertyAPI68method22Ev
	.cfi_endproc
                                        # -- End function
	.globl	_ZN15CSSPropertyAPI68method23Ev # -- Begin function _ZN15CSSPropertyAPI68method23Ev
	.p2align	4, 0x90
	.type	_ZN15CSSPropertyAPI68method23Ev,@function
_ZN15CSSPropertyAPI68method23Ev:        # @_ZN15CSSPropertyAPI68method23Ev
	.cfi_startproc
# BB#0:                                 # %entry
	addl	$29, increment_me(%rip)
	retq
.Lfunc_end272:
	.size	_ZN15CSSPropertyAPI68method23Ev, .Lfunc_end272-_ZN15CSSPropertyAPI68method23Ev
	.cfi_endproc
                                        # -- End function
	.globl	_ZN15CSSPropertyAPI68method24Ev # -- Begin function _ZN15CSSPropertyAPI68method24Ev
	.p2align	4, 0x90
	.type	_ZN15CSSPropertyAPI68method24Ev,@function
_ZN15CSSPropertyAPI68method24Ev:        # @_ZN15CSSPropertyAPI68method24Ev
	.cfi_startproc
# BB#0:                                 # %entry
	addl	$30, increment_me(%rip)
	retq
.Lfunc_end273:
	.size	_ZN15CSSPropertyAPI68method24Ev, .Lfunc_end273-_ZN15CSSPropertyAPI68method24Ev
	.cfi_endproc
                                        # -- End function
	.globl	_ZN15CSSPropertyAPI68method25Ev # -- Begin function _ZN15CSSPropertyAPI68method25Ev
	.p2align	4, 0x90
	.type	_ZN15CSSPropertyAPI68method25Ev,@function
_ZN15CSSPropertyAPI68method25Ev:        # @_ZN15CSSPropertyAPI68method25Ev
	.cfi_startproc
# BB#0:                                 # %entry
	addl	$31, increment_me(%rip)
	retq
.Lfunc_end274:
	.size	_ZN15CSSPropertyAPI68method25Ev, .Lfunc_end274-_ZN15CSSPropertyAPI68method25Ev
	.cfi_endproc
                                        # -- End function
	.globl	_ZN15CSSPropertyAPI68method26Ev # -- Begin function _ZN15CSSPropertyAPI68method26Ev
	.p2align	4, 0x90
	.type	_ZN15CSSPropertyAPI68method26Ev,@function
_ZN15CSSPropertyAPI68method26Ev:        # @_ZN15CSSPropertyAPI68method26Ev
	.cfi_startproc
# BB#0:                                 # %entry
	addl	$32, increment_me(%rip)
	retq
.Lfunc_end275:
	.size	_ZN15CSSPropertyAPI68method26Ev, .Lfunc_end275-_ZN15CSSPropertyAPI68method26Ev
	.cfi_endproc
                                        # -- End function
	.globl	_ZN15CSSPropertyAPI68method27Ev # -- Begin function _ZN15CSSPropertyAPI68method27Ev
	.p2align	4, 0x90
	.type	_ZN15CSSPropertyAPI68method27Ev,@function
_ZN15CSSPropertyAPI68method27Ev:        # @_ZN15CSSPropertyAPI68method27Ev
	.cfi_startproc
# BB#0:                                 # %entry
	addl	$33, increment_me(%rip)
	retq
.Lfunc_end276:
	.size	_ZN15CSSPropertyAPI68method27Ev, .Lfunc_end276-_ZN15CSSPropertyAPI68method27Ev
	.cfi_endproc
                                        # -- End function
	.globl	_ZN15CSSPropertyAPI68method28Ev # -- Begin function _ZN15CSSPropertyAPI68method28Ev
	.p2align	4, 0x90
	.type	_ZN15CSSPropertyAPI68method28Ev,@function
_ZN15CSSPropertyAPI68method28Ev:        # @_ZN15CSSPropertyAPI68method28Ev
	.cfi_startproc
# BB#0:                                 # %entry
	addl	$34, increment_me(%rip)
	retq
.Lfunc_end277:
	.size	_ZN15CSSPropertyAPI68method28Ev, .Lfunc_end277-_ZN15CSSPropertyAPI68method28Ev
	.cfi_endproc
                                        # -- End function
	.globl	_ZN15CSSPropertyAPI68method29Ev # -- Begin function _ZN15CSSPropertyAPI68method29Ev
	.p2align	4, 0x90
	.type	_ZN15CSSPropertyAPI68method29Ev,@function
_ZN15CSSPropertyAPI68method29Ev:        # @_ZN15CSSPropertyAPI68method29Ev
	.cfi_startproc
# BB#0:                                 # %entry
	addl	$35, increment_me(%rip)
	retq
.Lfunc_end278:
	.size	_ZN15CSSPropertyAPI68method29Ev, .Lfunc_end278-_ZN15CSSPropertyAPI68method29Ev
	.cfi_endproc
                                        # -- End function
	.globl	_ZN15CSSPropertyAPI68method30Ev # -- Begin function _ZN15CSSPropertyAPI68method30Ev
	.p2align	4, 0x90
	.type	_ZN15CSSPropertyAPI68method30Ev,@function
_ZN15CSSPropertyAPI68method30Ev:        # @_ZN15CSSPropertyAPI68method30Ev
	.cfi_startproc
# BB#0:                                 # %entry
	addl	$36, increment_me(%rip)
	retq
.Lfunc_end279:
	.size	_ZN15CSSPropertyAPI68method30Ev, .Lfunc_end279-_ZN15CSSPropertyAPI68method30Ev
	.cfi_endproc
                                        # -- End function
	.globl	_ZN15CSSPropertyAPI68method31Ev # -- Begin function _ZN15CSSPropertyAPI68method31Ev
	.p2align	4, 0x90
	.type	_ZN15CSSPropertyAPI68method31Ev,@function
_ZN15CSSPropertyAPI68method31Ev:        # @_ZN15CSSPropertyAPI68method31Ev
	.cfi_startproc
# BB#0:                                 # %entry
	addl	$37, increment_me(%rip)
	retq
.Lfunc_end280:
	.size	_ZN15CSSPropertyAPI68method31Ev, .Lfunc_end280-_ZN15CSSPropertyAPI68method31Ev
	.cfi_endproc
                                        # -- End function
	.globl	_ZN15CSSPropertyAPI68method32Ev # -- Begin function _ZN15CSSPropertyAPI68method32Ev
	.p2align	4, 0x90
	.type	_ZN15CSSPropertyAPI68method32Ev,@function
_ZN15CSSPropertyAPI68method32Ev:        # @_ZN15CSSPropertyAPI68method32Ev
	.cfi_startproc
# BB#0:                                 # %entry
	addl	$38, increment_me(%rip)
	retq
.Lfunc_end281:
	.size	_ZN15CSSPropertyAPI68method32Ev, .Lfunc_end281-_ZN15CSSPropertyAPI68method32Ev
	.cfi_endproc
                                        # -- End function
	.globl	_ZN15CSSPropertyAPI68method33Ev # -- Begin function _ZN15CSSPropertyAPI68method33Ev
	.p2align	4, 0x90
	.type	_ZN15CSSPropertyAPI68method33Ev,@function
_ZN15CSSPropertyAPI68method33Ev:        # @_ZN15CSSPropertyAPI68method33Ev
	.cfi_startproc
# BB#0:                                 # %entry
	addl	$39, increment_me(%rip)
	retq
.Lfunc_end282:
	.size	_ZN15CSSPropertyAPI68method33Ev, .Lfunc_end282-_ZN15CSSPropertyAPI68method33Ev
	.cfi_endproc
                                        # -- End function
	.globl	_ZN15CSSPropertyAPI68method34Ev # -- Begin function _ZN15CSSPropertyAPI68method34Ev
	.p2align	4, 0x90
	.type	_ZN15CSSPropertyAPI68method34Ev,@function
_ZN15CSSPropertyAPI68method34Ev:        # @_ZN15CSSPropertyAPI68method34Ev
	.cfi_startproc
# BB#0:                                 # %entry
	addl	$40, increment_me(%rip)
	retq
.Lfunc_end283:
	.size	_ZN15CSSPropertyAPI68method34Ev, .Lfunc_end283-_ZN15CSSPropertyAPI68method34Ev
	.cfi_endproc
                                        # -- End function
	.globl	_ZN15CSSPropertyAPI68method35Ev # -- Begin function _ZN15CSSPropertyAPI68method35Ev
	.p2align	4, 0x90
	.type	_ZN15CSSPropertyAPI68method35Ev,@function
_ZN15CSSPropertyAPI68method35Ev:        # @_ZN15CSSPropertyAPI68method35Ev
	.cfi_startproc
# BB#0:                                 # %entry
	addl	$41, increment_me(%rip)
	retq
.Lfunc_end284:
	.size	_ZN15CSSPropertyAPI68method35Ev, .Lfunc_end284-_ZN15CSSPropertyAPI68method35Ev
	.cfi_endproc
                                        # -- End function
	.globl	_ZN15CSSPropertyAPI68method36Ev # -- Begin function _ZN15CSSPropertyAPI68method36Ev
	.p2align	4, 0x90
	.type	_ZN15CSSPropertyAPI68method36Ev,@function
_ZN15CSSPropertyAPI68method36Ev:        # @_ZN15CSSPropertyAPI68method36Ev
	.cfi_startproc
# BB#0:                                 # %entry
	addl	$42, increment_me(%rip)
	retq
.Lfunc_end285:
	.size	_ZN15CSSPropertyAPI68method36Ev, .Lfunc_end285-_ZN15CSSPropertyAPI68method36Ev
	.cfi_endproc
                                        # -- End function
	.globl	_ZN15CSSPropertyAPI68method37Ev # -- Begin function _ZN15CSSPropertyAPI68method37Ev
	.p2align	4, 0x90
	.type	_ZN15CSSPropertyAPI68method37Ev,@function
_ZN15CSSPropertyAPI68method37Ev:        # @_ZN15CSSPropertyAPI68method37Ev
	.cfi_startproc
# BB#0:                                 # %entry
	addl	$43, increment_me(%rip)
	retq
.Lfunc_end286:
	.size	_ZN15CSSPropertyAPI68method37Ev, .Lfunc_end286-_ZN15CSSPropertyAPI68method37Ev
	.cfi_endproc
                                        # -- End function
	.globl	_ZN15CSSPropertyAPI68method38Ev # -- Begin function _ZN15CSSPropertyAPI68method38Ev
	.p2align	4, 0x90
	.type	_ZN15CSSPropertyAPI68method38Ev,@function
_ZN15CSSPropertyAPI68method38Ev:        # @_ZN15CSSPropertyAPI68method38Ev
	.cfi_startproc
# BB#0:                                 # %entry
	addl	$44, increment_me(%rip)
	retq
.Lfunc_end287:
	.size	_ZN15CSSPropertyAPI68method38Ev, .Lfunc_end287-_ZN15CSSPropertyAPI68method38Ev
	.cfi_endproc
                                        # -- End function
	.globl	_ZN15CSSPropertyAPI68method39Ev # -- Begin function _ZN15CSSPropertyAPI68method39Ev
	.p2align	4, 0x90
	.type	_ZN15CSSPropertyAPI68method39Ev,@function
_ZN15CSSPropertyAPI68method39Ev:        # @_ZN15CSSPropertyAPI68method39Ev
	.cfi_startproc
# BB#0:                                 # %entry
	addl	$45, increment_me(%rip)
	retq
.Lfunc_end288:
	.size	_ZN15CSSPropertyAPI68method39Ev, .Lfunc_end288-_ZN15CSSPropertyAPI68method39Ev
	.cfi_endproc
                                        # -- End function
	.globl	_ZN15CSSPropertyAPI68method40Ev # -- Begin function _ZN15CSSPropertyAPI68method40Ev
	.p2align	4, 0x90
	.type	_ZN15CSSPropertyAPI68method40Ev,@function
_ZN15CSSPropertyAPI68method40Ev:        # @_ZN15CSSPropertyAPI68method40Ev
	.cfi_startproc
# BB#0:                                 # %entry
	addl	$46, increment_me(%rip)
	retq
.Lfunc_end289:
	.size	_ZN15CSSPropertyAPI68method40Ev, .Lfunc_end289-_ZN15CSSPropertyAPI68method40Ev
	.cfi_endproc
                                        # -- End function
	.globl	_ZN15CSSPropertyAPI68method41Ev # -- Begin function _ZN15CSSPropertyAPI68method41Ev
	.p2align	4, 0x90
	.type	_ZN15CSSPropertyAPI68method41Ev,@function
_ZN15CSSPropertyAPI68method41Ev:        # @_ZN15CSSPropertyAPI68method41Ev
	.cfi_startproc
# BB#0:                                 # %entry
	addl	$47, increment_me(%rip)
	retq
.Lfunc_end290:
	.size	_ZN15CSSPropertyAPI68method41Ev, .Lfunc_end290-_ZN15CSSPropertyAPI68method41Ev
	.cfi_endproc
                                        # -- End function
	.globl	_ZN15CSSPropertyAPI68method42Ev # -- Begin function _ZN15CSSPropertyAPI68method42Ev
	.p2align	4, 0x90
	.type	_ZN15CSSPropertyAPI68method42Ev,@function
_ZN15CSSPropertyAPI68method42Ev:        # @_ZN15CSSPropertyAPI68method42Ev
	.cfi_startproc
# BB#0:                                 # %entry
	addl	$48, increment_me(%rip)
	retq
.Lfunc_end291:
	.size	_ZN15CSSPropertyAPI68method42Ev, .Lfunc_end291-_ZN15CSSPropertyAPI68method42Ev
	.cfi_endproc
                                        # -- End function
	.globl	_ZN15CSSPropertyAPI68method43Ev # -- Begin function _ZN15CSSPropertyAPI68method43Ev
	.p2align	4, 0x90
	.type	_ZN15CSSPropertyAPI68method43Ev,@function
_ZN15CSSPropertyAPI68method43Ev:        # @_ZN15CSSPropertyAPI68method43Ev
	.cfi_startproc
# BB#0:                                 # %entry
	addl	$49, increment_me(%rip)
	retq
.Lfunc_end292:
	.size	_ZN15CSSPropertyAPI68method43Ev, .Lfunc_end292-_ZN15CSSPropertyAPI68method43Ev
	.cfi_endproc
                                        # -- End function
	.globl	_ZN15CSSPropertyAPI68method44Ev # -- Begin function _ZN15CSSPropertyAPI68method44Ev
	.p2align	4, 0x90
	.type	_ZN15CSSPropertyAPI68method44Ev,@function
_ZN15CSSPropertyAPI68method44Ev:        # @_ZN15CSSPropertyAPI68method44Ev
	.cfi_startproc
# BB#0:                                 # %entry
	addl	$50, increment_me(%rip)
	retq
.Lfunc_end293:
	.size	_ZN15CSSPropertyAPI68method44Ev, .Lfunc_end293-_ZN15CSSPropertyAPI68method44Ev
	.cfi_endproc
                                        # -- End function
	.globl	_ZN15CSSPropertyAPI68method45Ev # -- Begin function _ZN15CSSPropertyAPI68method45Ev
	.p2align	4, 0x90
	.type	_ZN15CSSPropertyAPI68method45Ev,@function
_ZN15CSSPropertyAPI68method45Ev:        # @_ZN15CSSPropertyAPI68method45Ev
	.cfi_startproc
# BB#0:                                 # %entry
	addl	$51, increment_me(%rip)
	retq
.Lfunc_end294:
	.size	_ZN15CSSPropertyAPI68method45Ev, .Lfunc_end294-_ZN15CSSPropertyAPI68method45Ev
	.cfi_endproc
                                        # -- End function
	.globl	_ZN15CSSPropertyAPI68method46Ev # -- Begin function _ZN15CSSPropertyAPI68method46Ev
	.p2align	4, 0x90
	.type	_ZN15CSSPropertyAPI68method46Ev,@function
_ZN15CSSPropertyAPI68method46Ev:        # @_ZN15CSSPropertyAPI68method46Ev
	.cfi_startproc
# BB#0:                                 # %entry
	addl	$52, increment_me(%rip)
	retq
.Lfunc_end295:
	.size	_ZN15CSSPropertyAPI68method46Ev, .Lfunc_end295-_ZN15CSSPropertyAPI68method46Ev
	.cfi_endproc
                                        # -- End function
	.globl	_ZN15CSSPropertyAPI68method47Ev # -- Begin function _ZN15CSSPropertyAPI68method47Ev
	.p2align	4, 0x90
	.type	_ZN15CSSPropertyAPI68method47Ev,@function
_ZN15CSSPropertyAPI68method47Ev:        # @_ZN15CSSPropertyAPI68method47Ev
	.cfi_startproc
# BB#0:                                 # %entry
	addl	$53, increment_me(%rip)
	retq
.Lfunc_end296:
	.size	_ZN15CSSPropertyAPI68method47Ev, .Lfunc_end296-_ZN15CSSPropertyAPI68method47Ev
	.cfi_endproc
                                        # -- End function
	.globl	_ZN15CSSPropertyAPI68method48Ev # -- Begin function _ZN15CSSPropertyAPI68method48Ev
	.p2align	4, 0x90
	.type	_ZN15CSSPropertyAPI68method48Ev,@function
_ZN15CSSPropertyAPI68method48Ev:        # @_ZN15CSSPropertyAPI68method48Ev
	.cfi_startproc
# BB#0:                                 # %entry
	addl	$54, increment_me(%rip)
	retq
.Lfunc_end297:
	.size	_ZN15CSSPropertyAPI68method48Ev, .Lfunc_end297-_ZN15CSSPropertyAPI68method48Ev
	.cfi_endproc
                                        # -- End function
	.globl	_ZN15CSSPropertyAPI68method49Ev # -- Begin function _ZN15CSSPropertyAPI68method49Ev
	.p2align	4, 0x90
	.type	_ZN15CSSPropertyAPI68method49Ev,@function
_ZN15CSSPropertyAPI68method49Ev:        # @_ZN15CSSPropertyAPI68method49Ev
	.cfi_startproc
# BB#0:                                 # %entry
	addl	$55, increment_me(%rip)
	retq
.Lfunc_end298:
	.size	_ZN15CSSPropertyAPI68method49Ev, .Lfunc_end298-_ZN15CSSPropertyAPI68method49Ev
	.cfi_endproc
                                        # -- End function
	.globl	_ZN15CSSPropertyAPI68method50Ev # -- Begin function _ZN15CSSPropertyAPI68method50Ev
	.p2align	4, 0x90
	.type	_ZN15CSSPropertyAPI68method50Ev,@function
_ZN15CSSPropertyAPI68method50Ev:        # @_ZN15CSSPropertyAPI68method50Ev
	.cfi_startproc
# BB#0:                                 # %entry
	addl	$56, increment_me(%rip)
	retq
.Lfunc_end299:
	.size	_ZN15CSSPropertyAPI68method50Ev, .Lfunc_end299-_ZN15CSSPropertyAPI68method50Ev
	.cfi_endproc
                                        # -- End function
	.globl	_ZN15CSSPropertyAPI77method1Ev # -- Begin function _ZN15CSSPropertyAPI77method1Ev
	.p2align	4, 0x90
	.type	_ZN15CSSPropertyAPI77method1Ev,@function
_ZN15CSSPropertyAPI77method1Ev:         # @_ZN15CSSPropertyAPI77method1Ev
	.cfi_startproc
# BB#0:                                 # %entry
	addl	$8, increment_me(%rip)
	retq
.Lfunc_end300:
	.size	_ZN15CSSPropertyAPI77method1Ev, .Lfunc_end300-_ZN15CSSPropertyAPI77method1Ev
	.cfi_endproc
                                        # -- End function
	.globl	_ZN15CSSPropertyAPI77method2Ev # -- Begin function _ZN15CSSPropertyAPI77method2Ev
	.p2align	4, 0x90
	.type	_ZN15CSSPropertyAPI77method2Ev,@function
_ZN15CSSPropertyAPI77method2Ev:         # @_ZN15CSSPropertyAPI77method2Ev
	.cfi_startproc
# BB#0:                                 # %entry
	addl	$9, increment_me(%rip)
	retq
.Lfunc_end301:
	.size	_ZN15CSSPropertyAPI77method2Ev, .Lfunc_end301-_ZN15CSSPropertyAPI77method2Ev
	.cfi_endproc
                                        # -- End function
	.globl	_ZN15CSSPropertyAPI77method3Ev # -- Begin function _ZN15CSSPropertyAPI77method3Ev
	.p2align	4, 0x90
	.type	_ZN15CSSPropertyAPI77method3Ev,@function
_ZN15CSSPropertyAPI77method3Ev:         # @_ZN15CSSPropertyAPI77method3Ev
	.cfi_startproc
# BB#0:                                 # %entry
	addl	$10, increment_me(%rip)
	retq
.Lfunc_end302:
	.size	_ZN15CSSPropertyAPI77method3Ev, .Lfunc_end302-_ZN15CSSPropertyAPI77method3Ev
	.cfi_endproc
                                        # -- End function
	.globl	_ZN15CSSPropertyAPI77method4Ev # -- Begin function _ZN15CSSPropertyAPI77method4Ev
	.p2align	4, 0x90
	.type	_ZN15CSSPropertyAPI77method4Ev,@function
_ZN15CSSPropertyAPI77method4Ev:         # @_ZN15CSSPropertyAPI77method4Ev
	.cfi_startproc
# BB#0:                                 # %entry
	addl	$11, increment_me(%rip)
	retq
.Lfunc_end303:
	.size	_ZN15CSSPropertyAPI77method4Ev, .Lfunc_end303-_ZN15CSSPropertyAPI77method4Ev
	.cfi_endproc
                                        # -- End function
	.globl	_ZN15CSSPropertyAPI77method5Ev # -- Begin function _ZN15CSSPropertyAPI77method5Ev
	.p2align	4, 0x90
	.type	_ZN15CSSPropertyAPI77method5Ev,@function
_ZN15CSSPropertyAPI77method5Ev:         # @_ZN15CSSPropertyAPI77method5Ev
	.cfi_startproc
# BB#0:                                 # %entry
	addl	$12, increment_me(%rip)
	retq
.Lfunc_end304:
	.size	_ZN15CSSPropertyAPI77method5Ev, .Lfunc_end304-_ZN15CSSPropertyAPI77method5Ev
	.cfi_endproc
                                        # -- End function
	.globl	_ZN15CSSPropertyAPI77method6Ev # -- Begin function _ZN15CSSPropertyAPI77method6Ev
	.p2align	4, 0x90
	.type	_ZN15CSSPropertyAPI77method6Ev,@function
_ZN15CSSPropertyAPI77method6Ev:         # @_ZN15CSSPropertyAPI77method6Ev
	.cfi_startproc
# BB#0:                                 # %entry
	addl	$13, increment_me(%rip)
	retq
.Lfunc_end305:
	.size	_ZN15CSSPropertyAPI77method6Ev, .Lfunc_end305-_ZN15CSSPropertyAPI77method6Ev
	.cfi_endproc
                                        # -- End function
	.globl	_ZN15CSSPropertyAPI77method7Ev # -- Begin function _ZN15CSSPropertyAPI77method7Ev
	.p2align	4, 0x90
	.type	_ZN15CSSPropertyAPI77method7Ev,@function
_ZN15CSSPropertyAPI77method7Ev:         # @_ZN15CSSPropertyAPI77method7Ev
	.cfi_startproc
# BB#0:                                 # %entry
	addl	$14, increment_me(%rip)
	retq
.Lfunc_end306:
	.size	_ZN15CSSPropertyAPI77method7Ev, .Lfunc_end306-_ZN15CSSPropertyAPI77method7Ev
	.cfi_endproc
                                        # -- End function
	.globl	_ZN15CSSPropertyAPI77method8Ev # -- Begin function _ZN15CSSPropertyAPI77method8Ev
	.p2align	4, 0x90
	.type	_ZN15CSSPropertyAPI77method8Ev,@function
_ZN15CSSPropertyAPI77method8Ev:         # @_ZN15CSSPropertyAPI77method8Ev
	.cfi_startproc
# BB#0:                                 # %entry
	addl	$15, increment_me(%rip)
	retq
.Lfunc_end307:
	.size	_ZN15CSSPropertyAPI77method8Ev, .Lfunc_end307-_ZN15CSSPropertyAPI77method8Ev
	.cfi_endproc
                                        # -- End function
	.globl	_ZN15CSSPropertyAPI77method9Ev # -- Begin function _ZN15CSSPropertyAPI77method9Ev
	.p2align	4, 0x90
	.type	_ZN15CSSPropertyAPI77method9Ev,@function
_ZN15CSSPropertyAPI77method9Ev:         # @_ZN15CSSPropertyAPI77method9Ev
	.cfi_startproc
# BB#0:                                 # %entry
	addl	$16, increment_me(%rip)
	retq
.Lfunc_end308:
	.size	_ZN15CSSPropertyAPI77method9Ev, .Lfunc_end308-_ZN15CSSPropertyAPI77method9Ev
	.cfi_endproc
                                        # -- End function
	.globl	_ZN15CSSPropertyAPI78method10Ev # -- Begin function _ZN15CSSPropertyAPI78method10Ev
	.p2align	4, 0x90
	.type	_ZN15CSSPropertyAPI78method10Ev,@function
_ZN15CSSPropertyAPI78method10Ev:        # @_ZN15CSSPropertyAPI78method10Ev
	.cfi_startproc
# BB#0:                                 # %entry
	addl	$17, increment_me(%rip)
	retq
.Lfunc_end309:
	.size	_ZN15CSSPropertyAPI78method10Ev, .Lfunc_end309-_ZN15CSSPropertyAPI78method10Ev
	.cfi_endproc
                                        # -- End function
	.globl	_ZN15CSSPropertyAPI78method11Ev # -- Begin function _ZN15CSSPropertyAPI78method11Ev
	.p2align	4, 0x90
	.type	_ZN15CSSPropertyAPI78method11Ev,@function
_ZN15CSSPropertyAPI78method11Ev:        # @_ZN15CSSPropertyAPI78method11Ev
	.cfi_startproc
# BB#0:                                 # %entry
	addl	$18, increment_me(%rip)
	retq
.Lfunc_end310:
	.size	_ZN15CSSPropertyAPI78method11Ev, .Lfunc_end310-_ZN15CSSPropertyAPI78method11Ev
	.cfi_endproc
                                        # -- End function
	.globl	_ZN15CSSPropertyAPI78method12Ev # -- Begin function _ZN15CSSPropertyAPI78method12Ev
	.p2align	4, 0x90
	.type	_ZN15CSSPropertyAPI78method12Ev,@function
_ZN15CSSPropertyAPI78method12Ev:        # @_ZN15CSSPropertyAPI78method12Ev
	.cfi_startproc
# BB#0:                                 # %entry
	addl	$19, increment_me(%rip)
	retq
.Lfunc_end311:
	.size	_ZN15CSSPropertyAPI78method12Ev, .Lfunc_end311-_ZN15CSSPropertyAPI78method12Ev
	.cfi_endproc
                                        # -- End function
	.globl	_ZN15CSSPropertyAPI78method13Ev # -- Begin function _ZN15CSSPropertyAPI78method13Ev
	.p2align	4, 0x90
	.type	_ZN15CSSPropertyAPI78method13Ev,@function
_ZN15CSSPropertyAPI78method13Ev:        # @_ZN15CSSPropertyAPI78method13Ev
	.cfi_startproc
# BB#0:                                 # %entry
	addl	$20, increment_me(%rip)
	retq
.Lfunc_end312:
	.size	_ZN15CSSPropertyAPI78method13Ev, .Lfunc_end312-_ZN15CSSPropertyAPI78method13Ev
	.cfi_endproc
                                        # -- End function
	.globl	_ZN15CSSPropertyAPI78method14Ev # -- Begin function _ZN15CSSPropertyAPI78method14Ev
	.p2align	4, 0x90
	.type	_ZN15CSSPropertyAPI78method14Ev,@function
_ZN15CSSPropertyAPI78method14Ev:        # @_ZN15CSSPropertyAPI78method14Ev
	.cfi_startproc
# BB#0:                                 # %entry
	addl	$21, increment_me(%rip)
	retq
.Lfunc_end313:
	.size	_ZN15CSSPropertyAPI78method14Ev, .Lfunc_end313-_ZN15CSSPropertyAPI78method14Ev
	.cfi_endproc
                                        # -- End function
	.globl	_ZN15CSSPropertyAPI78method15Ev # -- Begin function _ZN15CSSPropertyAPI78method15Ev
	.p2align	4, 0x90
	.type	_ZN15CSSPropertyAPI78method15Ev,@function
_ZN15CSSPropertyAPI78method15Ev:        # @_ZN15CSSPropertyAPI78method15Ev
	.cfi_startproc
# BB#0:                                 # %entry
	addl	$22, increment_me(%rip)
	retq
.Lfunc_end314:
	.size	_ZN15CSSPropertyAPI78method15Ev, .Lfunc_end314-_ZN15CSSPropertyAPI78method15Ev
	.cfi_endproc
                                        # -- End function
	.globl	_ZN15CSSPropertyAPI78method16Ev # -- Begin function _ZN15CSSPropertyAPI78method16Ev
	.p2align	4, 0x90
	.type	_ZN15CSSPropertyAPI78method16Ev,@function
_ZN15CSSPropertyAPI78method16Ev:        # @_ZN15CSSPropertyAPI78method16Ev
	.cfi_startproc
# BB#0:                                 # %entry
	addl	$23, increment_me(%rip)
	retq
.Lfunc_end315:
	.size	_ZN15CSSPropertyAPI78method16Ev, .Lfunc_end315-_ZN15CSSPropertyAPI78method16Ev
	.cfi_endproc
                                        # -- End function
	.globl	_ZN15CSSPropertyAPI78method17Ev # -- Begin function _ZN15CSSPropertyAPI78method17Ev
	.p2align	4, 0x90
	.type	_ZN15CSSPropertyAPI78method17Ev,@function
_ZN15CSSPropertyAPI78method17Ev:        # @_ZN15CSSPropertyAPI78method17Ev
	.cfi_startproc
# BB#0:                                 # %entry
	addl	$24, increment_me(%rip)
	retq
.Lfunc_end316:
	.size	_ZN15CSSPropertyAPI78method17Ev, .Lfunc_end316-_ZN15CSSPropertyAPI78method17Ev
	.cfi_endproc
                                        # -- End function
	.globl	_ZN15CSSPropertyAPI78method18Ev # -- Begin function _ZN15CSSPropertyAPI78method18Ev
	.p2align	4, 0x90
	.type	_ZN15CSSPropertyAPI78method18Ev,@function
_ZN15CSSPropertyAPI78method18Ev:        # @_ZN15CSSPropertyAPI78method18Ev
	.cfi_startproc
# BB#0:                                 # %entry
	addl	$25, increment_me(%rip)
	retq
.Lfunc_end317:
	.size	_ZN15CSSPropertyAPI78method18Ev, .Lfunc_end317-_ZN15CSSPropertyAPI78method18Ev
	.cfi_endproc
                                        # -- End function
	.globl	_ZN15CSSPropertyAPI78method19Ev # -- Begin function _ZN15CSSPropertyAPI78method19Ev
	.p2align	4, 0x90
	.type	_ZN15CSSPropertyAPI78method19Ev,@function
_ZN15CSSPropertyAPI78method19Ev:        # @_ZN15CSSPropertyAPI78method19Ev
	.cfi_startproc
# BB#0:                                 # %entry
	addl	$26, increment_me(%rip)
	retq
.Lfunc_end318:
	.size	_ZN15CSSPropertyAPI78method19Ev, .Lfunc_end318-_ZN15CSSPropertyAPI78method19Ev
	.cfi_endproc
                                        # -- End function
	.globl	_ZN15CSSPropertyAPI78method20Ev # -- Begin function _ZN15CSSPropertyAPI78method20Ev
	.p2align	4, 0x90
	.type	_ZN15CSSPropertyAPI78method20Ev,@function
_ZN15CSSPropertyAPI78method20Ev:        # @_ZN15CSSPropertyAPI78method20Ev
	.cfi_startproc
# BB#0:                                 # %entry
	addl	$27, increment_me(%rip)
	retq
.Lfunc_end319:
	.size	_ZN15CSSPropertyAPI78method20Ev, .Lfunc_end319-_ZN15CSSPropertyAPI78method20Ev
	.cfi_endproc
                                        # -- End function
	.globl	_ZN15CSSPropertyAPI78method21Ev # -- Begin function _ZN15CSSPropertyAPI78method21Ev
	.p2align	4, 0x90
	.type	_ZN15CSSPropertyAPI78method21Ev,@function
_ZN15CSSPropertyAPI78method21Ev:        # @_ZN15CSSPropertyAPI78method21Ev
	.cfi_startproc
# BB#0:                                 # %entry
	addl	$28, increment_me(%rip)
	retq
.Lfunc_end320:
	.size	_ZN15CSSPropertyAPI78method21Ev, .Lfunc_end320-_ZN15CSSPropertyAPI78method21Ev
	.cfi_endproc
                                        # -- End function
	.globl	_ZN15CSSPropertyAPI78method22Ev # -- Begin function _ZN15CSSPropertyAPI78method22Ev
	.p2align	4, 0x90
	.type	_ZN15CSSPropertyAPI78method22Ev,@function
_ZN15CSSPropertyAPI78method22Ev:        # @_ZN15CSSPropertyAPI78method22Ev
	.cfi_startproc
# BB#0:                                 # %entry
	addl	$29, increment_me(%rip)
	retq
.Lfunc_end321:
	.size	_ZN15CSSPropertyAPI78method22Ev, .Lfunc_end321-_ZN15CSSPropertyAPI78method22Ev
	.cfi_endproc
                                        # -- End function
	.globl	_ZN15CSSPropertyAPI78method23Ev # -- Begin function _ZN15CSSPropertyAPI78method23Ev
	.p2align	4, 0x90
	.type	_ZN15CSSPropertyAPI78method23Ev,@function
_ZN15CSSPropertyAPI78method23Ev:        # @_ZN15CSSPropertyAPI78method23Ev
	.cfi_startproc
# BB#0:                                 # %entry
	addl	$30, increment_me(%rip)
	retq
.Lfunc_end322:
	.size	_ZN15CSSPropertyAPI78method23Ev, .Lfunc_end322-_ZN15CSSPropertyAPI78method23Ev
	.cfi_endproc
                                        # -- End function
	.globl	_ZN15CSSPropertyAPI78method24Ev # -- Begin function _ZN15CSSPropertyAPI78method24Ev
	.p2align	4, 0x90
	.type	_ZN15CSSPropertyAPI78method24Ev,@function
_ZN15CSSPropertyAPI78method24Ev:        # @_ZN15CSSPropertyAPI78method24Ev
	.cfi_startproc
# BB#0:                                 # %entry
	addl	$31, increment_me(%rip)
	retq
.Lfunc_end323:
	.size	_ZN15CSSPropertyAPI78method24Ev, .Lfunc_end323-_ZN15CSSPropertyAPI78method24Ev
	.cfi_endproc
                                        # -- End function
	.globl	_ZN15CSSPropertyAPI78method25Ev # -- Begin function _ZN15CSSPropertyAPI78method25Ev
	.p2align	4, 0x90
	.type	_ZN15CSSPropertyAPI78method25Ev,@function
_ZN15CSSPropertyAPI78method25Ev:        # @_ZN15CSSPropertyAPI78method25Ev
	.cfi_startproc
# BB#0:                                 # %entry
	addl	$32, increment_me(%rip)
	retq
.Lfunc_end324:
	.size	_ZN15CSSPropertyAPI78method25Ev, .Lfunc_end324-_ZN15CSSPropertyAPI78method25Ev
	.cfi_endproc
                                        # -- End function
	.globl	_ZN15CSSPropertyAPI78method26Ev # -- Begin function _ZN15CSSPropertyAPI78method26Ev
	.p2align	4, 0x90
	.type	_ZN15CSSPropertyAPI78method26Ev,@function
_ZN15CSSPropertyAPI78method26Ev:        # @_ZN15CSSPropertyAPI78method26Ev
	.cfi_startproc
# BB#0:                                 # %entry
	addl	$33, increment_me(%rip)
	retq
.Lfunc_end325:
	.size	_ZN15CSSPropertyAPI78method26Ev, .Lfunc_end325-_ZN15CSSPropertyAPI78method26Ev
	.cfi_endproc
                                        # -- End function
	.globl	_ZN15CSSPropertyAPI78method27Ev # -- Begin function _ZN15CSSPropertyAPI78method27Ev
	.p2align	4, 0x90
	.type	_ZN15CSSPropertyAPI78method27Ev,@function
_ZN15CSSPropertyAPI78method27Ev:        # @_ZN15CSSPropertyAPI78method27Ev
	.cfi_startproc
# BB#0:                                 # %entry
	addl	$34, increment_me(%rip)
	retq
.Lfunc_end326:
	.size	_ZN15CSSPropertyAPI78method27Ev, .Lfunc_end326-_ZN15CSSPropertyAPI78method27Ev
	.cfi_endproc
                                        # -- End function
	.globl	_ZN15CSSPropertyAPI78method28Ev # -- Begin function _ZN15CSSPropertyAPI78method28Ev
	.p2align	4, 0x90
	.type	_ZN15CSSPropertyAPI78method28Ev,@function
_ZN15CSSPropertyAPI78method28Ev:        # @_ZN15CSSPropertyAPI78method28Ev
	.cfi_startproc
# BB#0:                                 # %entry
	addl	$35, increment_me(%rip)
	retq
.Lfunc_end327:
	.size	_ZN15CSSPropertyAPI78method28Ev, .Lfunc_end327-_ZN15CSSPropertyAPI78method28Ev
	.cfi_endproc
                                        # -- End function
	.globl	_ZN15CSSPropertyAPI78method29Ev # -- Begin function _ZN15CSSPropertyAPI78method29Ev
	.p2align	4, 0x90
	.type	_ZN15CSSPropertyAPI78method29Ev,@function
_ZN15CSSPropertyAPI78method29Ev:        # @_ZN15CSSPropertyAPI78method29Ev
	.cfi_startproc
# BB#0:                                 # %entry
	addl	$36, increment_me(%rip)
	retq
.Lfunc_end328:
	.size	_ZN15CSSPropertyAPI78method29Ev, .Lfunc_end328-_ZN15CSSPropertyAPI78method29Ev
	.cfi_endproc
                                        # -- End function
	.globl	_ZN15CSSPropertyAPI78method30Ev # -- Begin function _ZN15CSSPropertyAPI78method30Ev
	.p2align	4, 0x90
	.type	_ZN15CSSPropertyAPI78method30Ev,@function
_ZN15CSSPropertyAPI78method30Ev:        # @_ZN15CSSPropertyAPI78method30Ev
	.cfi_startproc
# BB#0:                                 # %entry
	addl	$37, increment_me(%rip)
	retq
.Lfunc_end329:
	.size	_ZN15CSSPropertyAPI78method30Ev, .Lfunc_end329-_ZN15CSSPropertyAPI78method30Ev
	.cfi_endproc
                                        # -- End function
	.globl	_ZN15CSSPropertyAPI78method31Ev # -- Begin function _ZN15CSSPropertyAPI78method31Ev
	.p2align	4, 0x90
	.type	_ZN15CSSPropertyAPI78method31Ev,@function
_ZN15CSSPropertyAPI78method31Ev:        # @_ZN15CSSPropertyAPI78method31Ev
	.cfi_startproc
# BB#0:                                 # %entry
	addl	$38, increment_me(%rip)
	retq
.Lfunc_end330:
	.size	_ZN15CSSPropertyAPI78method31Ev, .Lfunc_end330-_ZN15CSSPropertyAPI78method31Ev
	.cfi_endproc
                                        # -- End function
	.globl	_ZN15CSSPropertyAPI78method32Ev # -- Begin function _ZN15CSSPropertyAPI78method32Ev
	.p2align	4, 0x90
	.type	_ZN15CSSPropertyAPI78method32Ev,@function
_ZN15CSSPropertyAPI78method32Ev:        # @_ZN15CSSPropertyAPI78method32Ev
	.cfi_startproc
# BB#0:                                 # %entry
	addl	$39, increment_me(%rip)
	retq
.Lfunc_end331:
	.size	_ZN15CSSPropertyAPI78method32Ev, .Lfunc_end331-_ZN15CSSPropertyAPI78method32Ev
	.cfi_endproc
                                        # -- End function
	.globl	_ZN15CSSPropertyAPI78method33Ev # -- Begin function _ZN15CSSPropertyAPI78method33Ev
	.p2align	4, 0x90
	.type	_ZN15CSSPropertyAPI78method33Ev,@function
_ZN15CSSPropertyAPI78method33Ev:        # @_ZN15CSSPropertyAPI78method33Ev
	.cfi_startproc
# BB#0:                                 # %entry
	addl	$40, increment_me(%rip)
	retq
.Lfunc_end332:
	.size	_ZN15CSSPropertyAPI78method33Ev, .Lfunc_end332-_ZN15CSSPropertyAPI78method33Ev
	.cfi_endproc
                                        # -- End function
	.globl	_ZN15CSSPropertyAPI78method34Ev # -- Begin function _ZN15CSSPropertyAPI78method34Ev
	.p2align	4, 0x90
	.type	_ZN15CSSPropertyAPI78method34Ev,@function
_ZN15CSSPropertyAPI78method34Ev:        # @_ZN15CSSPropertyAPI78method34Ev
	.cfi_startproc
# BB#0:                                 # %entry
	addl	$41, increment_me(%rip)
	retq
.Lfunc_end333:
	.size	_ZN15CSSPropertyAPI78method34Ev, .Lfunc_end333-_ZN15CSSPropertyAPI78method34Ev
	.cfi_endproc
                                        # -- End function
	.globl	_ZN15CSSPropertyAPI78method35Ev # -- Begin function _ZN15CSSPropertyAPI78method35Ev
	.p2align	4, 0x90
	.type	_ZN15CSSPropertyAPI78method35Ev,@function
_ZN15CSSPropertyAPI78method35Ev:        # @_ZN15CSSPropertyAPI78method35Ev
	.cfi_startproc
# BB#0:                                 # %entry
	addl	$42, increment_me(%rip)
	retq
.Lfunc_end334:
	.size	_ZN15CSSPropertyAPI78method35Ev, .Lfunc_end334-_ZN15CSSPropertyAPI78method35Ev
	.cfi_endproc
                                        # -- End function
	.globl	_ZN15CSSPropertyAPI78method36Ev # -- Begin function _ZN15CSSPropertyAPI78method36Ev
	.p2align	4, 0x90
	.type	_ZN15CSSPropertyAPI78method36Ev,@function
_ZN15CSSPropertyAPI78method36Ev:        # @_ZN15CSSPropertyAPI78method36Ev
	.cfi_startproc
# BB#0:                                 # %entry
	addl	$43, increment_me(%rip)
	retq
.Lfunc_end335:
	.size	_ZN15CSSPropertyAPI78method36Ev, .Lfunc_end335-_ZN15CSSPropertyAPI78method36Ev
	.cfi_endproc
                                        # -- End function
	.globl	_ZN15CSSPropertyAPI78method37Ev # -- Begin function _ZN15CSSPropertyAPI78method37Ev
	.p2align	4, 0x90
	.type	_ZN15CSSPropertyAPI78method37Ev,@function
_ZN15CSSPropertyAPI78method37Ev:        # @_ZN15CSSPropertyAPI78method37Ev
	.cfi_startproc
# BB#0:                                 # %entry
	addl	$44, increment_me(%rip)
	retq
.Lfunc_end336:
	.size	_ZN15CSSPropertyAPI78method37Ev, .Lfunc_end336-_ZN15CSSPropertyAPI78method37Ev
	.cfi_endproc
                                        # -- End function
	.globl	_ZN15CSSPropertyAPI78method38Ev # -- Begin function _ZN15CSSPropertyAPI78method38Ev
	.p2align	4, 0x90
	.type	_ZN15CSSPropertyAPI78method38Ev,@function
_ZN15CSSPropertyAPI78method38Ev:        # @_ZN15CSSPropertyAPI78method38Ev
	.cfi_startproc
# BB#0:                                 # %entry
	addl	$45, increment_me(%rip)
	retq
.Lfunc_end337:
	.size	_ZN15CSSPropertyAPI78method38Ev, .Lfunc_end337-_ZN15CSSPropertyAPI78method38Ev
	.cfi_endproc
                                        # -- End function
	.globl	_ZN15CSSPropertyAPI78method39Ev # -- Begin function _ZN15CSSPropertyAPI78method39Ev
	.p2align	4, 0x90
	.type	_ZN15CSSPropertyAPI78method39Ev,@function
_ZN15CSSPropertyAPI78method39Ev:        # @_ZN15CSSPropertyAPI78method39Ev
	.cfi_startproc
# BB#0:                                 # %entry
	addl	$46, increment_me(%rip)
	retq
.Lfunc_end338:
	.size	_ZN15CSSPropertyAPI78method39Ev, .Lfunc_end338-_ZN15CSSPropertyAPI78method39Ev
	.cfi_endproc
                                        # -- End function
	.globl	_ZN15CSSPropertyAPI78method40Ev # -- Begin function _ZN15CSSPropertyAPI78method40Ev
	.p2align	4, 0x90
	.type	_ZN15CSSPropertyAPI78method40Ev,@function
_ZN15CSSPropertyAPI78method40Ev:        # @_ZN15CSSPropertyAPI78method40Ev
	.cfi_startproc
# BB#0:                                 # %entry
	addl	$47, increment_me(%rip)
	retq
.Lfunc_end339:
	.size	_ZN15CSSPropertyAPI78method40Ev, .Lfunc_end339-_ZN15CSSPropertyAPI78method40Ev
	.cfi_endproc
                                        # -- End function
	.globl	_ZN15CSSPropertyAPI78method41Ev # -- Begin function _ZN15CSSPropertyAPI78method41Ev
	.p2align	4, 0x90
	.type	_ZN15CSSPropertyAPI78method41Ev,@function
_ZN15CSSPropertyAPI78method41Ev:        # @_ZN15CSSPropertyAPI78method41Ev
	.cfi_startproc
# BB#0:                                 # %entry
	addl	$48, increment_me(%rip)
	retq
.Lfunc_end340:
	.size	_ZN15CSSPropertyAPI78method41Ev, .Lfunc_end340-_ZN15CSSPropertyAPI78method41Ev
	.cfi_endproc
                                        # -- End function
	.globl	_ZN15CSSPropertyAPI78method42Ev # -- Begin function _ZN15CSSPropertyAPI78method42Ev
	.p2align	4, 0x90
	.type	_ZN15CSSPropertyAPI78method42Ev,@function
_ZN15CSSPropertyAPI78method42Ev:        # @_ZN15CSSPropertyAPI78method42Ev
	.cfi_startproc
# BB#0:                                 # %entry
	addl	$49, increment_me(%rip)
	retq
.Lfunc_end341:
	.size	_ZN15CSSPropertyAPI78method42Ev, .Lfunc_end341-_ZN15CSSPropertyAPI78method42Ev
	.cfi_endproc
                                        # -- End function
	.globl	_ZN15CSSPropertyAPI78method43Ev # -- Begin function _ZN15CSSPropertyAPI78method43Ev
	.p2align	4, 0x90
	.type	_ZN15CSSPropertyAPI78method43Ev,@function
_ZN15CSSPropertyAPI78method43Ev:        # @_ZN15CSSPropertyAPI78method43Ev
	.cfi_startproc
# BB#0:                                 # %entry
	addl	$50, increment_me(%rip)
	retq
.Lfunc_end342:
	.size	_ZN15CSSPropertyAPI78method43Ev, .Lfunc_end342-_ZN15CSSPropertyAPI78method43Ev
	.cfi_endproc
                                        # -- End function
	.globl	_ZN15CSSPropertyAPI78method44Ev # -- Begin function _ZN15CSSPropertyAPI78method44Ev
	.p2align	4, 0x90
	.type	_ZN15CSSPropertyAPI78method44Ev,@function
_ZN15CSSPropertyAPI78method44Ev:        # @_ZN15CSSPropertyAPI78method44Ev
	.cfi_startproc
# BB#0:                                 # %entry
	addl	$51, increment_me(%rip)
	retq
.Lfunc_end343:
	.size	_ZN15CSSPropertyAPI78method44Ev, .Lfunc_end343-_ZN15CSSPropertyAPI78method44Ev
	.cfi_endproc
                                        # -- End function
	.globl	_ZN15CSSPropertyAPI78method45Ev # -- Begin function _ZN15CSSPropertyAPI78method45Ev
	.p2align	4, 0x90
	.type	_ZN15CSSPropertyAPI78method45Ev,@function
_ZN15CSSPropertyAPI78method45Ev:        # @_ZN15CSSPropertyAPI78method45Ev
	.cfi_startproc
# BB#0:                                 # %entry
	addl	$52, increment_me(%rip)
	retq
.Lfunc_end344:
	.size	_ZN15CSSPropertyAPI78method45Ev, .Lfunc_end344-_ZN15CSSPropertyAPI78method45Ev
	.cfi_endproc
                                        # -- End function
	.globl	_ZN15CSSPropertyAPI78method46Ev # -- Begin function _ZN15CSSPropertyAPI78method46Ev
	.p2align	4, 0x90
	.type	_ZN15CSSPropertyAPI78method46Ev,@function
_ZN15CSSPropertyAPI78method46Ev:        # @_ZN15CSSPropertyAPI78method46Ev
	.cfi_startproc
# BB#0:                                 # %entry
	addl	$53, increment_me(%rip)
	retq
.Lfunc_end345:
	.size	_ZN15CSSPropertyAPI78method46Ev, .Lfunc_end345-_ZN15CSSPropertyAPI78method46Ev
	.cfi_endproc
                                        # -- End function
	.globl	_ZN15CSSPropertyAPI78method47Ev # -- Begin function _ZN15CSSPropertyAPI78method47Ev
	.p2align	4, 0x90
	.type	_ZN15CSSPropertyAPI78method47Ev,@function
_ZN15CSSPropertyAPI78method47Ev:        # @_ZN15CSSPropertyAPI78method47Ev
	.cfi_startproc
# BB#0:                                 # %entry
	addl	$54, increment_me(%rip)
	retq
.Lfunc_end346:
	.size	_ZN15CSSPropertyAPI78method47Ev, .Lfunc_end346-_ZN15CSSPropertyAPI78method47Ev
	.cfi_endproc
                                        # -- End function
	.globl	_ZN15CSSPropertyAPI78method48Ev # -- Begin function _ZN15CSSPropertyAPI78method48Ev
	.p2align	4, 0x90
	.type	_ZN15CSSPropertyAPI78method48Ev,@function
_ZN15CSSPropertyAPI78method48Ev:        # @_ZN15CSSPropertyAPI78method48Ev
	.cfi_startproc
# BB#0:                                 # %entry
	addl	$55, increment_me(%rip)
	retq
.Lfunc_end347:
	.size	_ZN15CSSPropertyAPI78method48Ev, .Lfunc_end347-_ZN15CSSPropertyAPI78method48Ev
	.cfi_endproc
                                        # -- End function
	.globl	_ZN15CSSPropertyAPI78method49Ev # -- Begin function _ZN15CSSPropertyAPI78method49Ev
	.p2align	4, 0x90
	.type	_ZN15CSSPropertyAPI78method49Ev,@function
_ZN15CSSPropertyAPI78method49Ev:        # @_ZN15CSSPropertyAPI78method49Ev
	.cfi_startproc
# BB#0:                                 # %entry
	addl	$56, increment_me(%rip)
	retq
.Lfunc_end348:
	.size	_ZN15CSSPropertyAPI78method49Ev, .Lfunc_end348-_ZN15CSSPropertyAPI78method49Ev
	.cfi_endproc
                                        # -- End function
	.globl	_ZN15CSSPropertyAPI78method50Ev # -- Begin function _ZN15CSSPropertyAPI78method50Ev
	.p2align	4, 0x90
	.type	_ZN15CSSPropertyAPI78method50Ev,@function
_ZN15CSSPropertyAPI78method50Ev:        # @_ZN15CSSPropertyAPI78method50Ev
	.cfi_startproc
# BB#0:                                 # %entry
	addl	$57, increment_me(%rip)
	retq
.Lfunc_end349:
	.size	_ZN15CSSPropertyAPI78method50Ev, .Lfunc_end349-_ZN15CSSPropertyAPI78method50Ev
	.cfi_endproc
                                        # -- End function
	.globl	_ZN15CSSPropertyAPI87method1Ev # -- Begin function _ZN15CSSPropertyAPI87method1Ev
	.p2align	4, 0x90
	.type	_ZN15CSSPropertyAPI87method1Ev,@function
_ZN15CSSPropertyAPI87method1Ev:         # @_ZN15CSSPropertyAPI87method1Ev
	.cfi_startproc
# BB#0:                                 # %entry
	addl	$9, increment_me(%rip)
	retq
.Lfunc_end350:
	.size	_ZN15CSSPropertyAPI87method1Ev, .Lfunc_end350-_ZN15CSSPropertyAPI87method1Ev
	.cfi_endproc
                                        # -- End function
	.globl	_ZN15CSSPropertyAPI87method2Ev # -- Begin function _ZN15CSSPropertyAPI87method2Ev
	.p2align	4, 0x90
	.type	_ZN15CSSPropertyAPI87method2Ev,@function
_ZN15CSSPropertyAPI87method2Ev:         # @_ZN15CSSPropertyAPI87method2Ev
	.cfi_startproc
# BB#0:                                 # %entry
	addl	$10, increment_me(%rip)
	retq
.Lfunc_end351:
	.size	_ZN15CSSPropertyAPI87method2Ev, .Lfunc_end351-_ZN15CSSPropertyAPI87method2Ev
	.cfi_endproc
                                        # -- End function
	.globl	_ZN15CSSPropertyAPI87method3Ev # -- Begin function _ZN15CSSPropertyAPI87method3Ev
	.p2align	4, 0x90
	.type	_ZN15CSSPropertyAPI87method3Ev,@function
_ZN15CSSPropertyAPI87method3Ev:         # @_ZN15CSSPropertyAPI87method3Ev
	.cfi_startproc
# BB#0:                                 # %entry
	addl	$11, increment_me(%rip)
	retq
.Lfunc_end352:
	.size	_ZN15CSSPropertyAPI87method3Ev, .Lfunc_end352-_ZN15CSSPropertyAPI87method3Ev
	.cfi_endproc
                                        # -- End function
	.globl	_ZN15CSSPropertyAPI87method4Ev # -- Begin function _ZN15CSSPropertyAPI87method4Ev
	.p2align	4, 0x90
	.type	_ZN15CSSPropertyAPI87method4Ev,@function
_ZN15CSSPropertyAPI87method4Ev:         # @_ZN15CSSPropertyAPI87method4Ev
	.cfi_startproc
# BB#0:                                 # %entry
	addl	$12, increment_me(%rip)
	retq
.Lfunc_end353:
	.size	_ZN15CSSPropertyAPI87method4Ev, .Lfunc_end353-_ZN15CSSPropertyAPI87method4Ev
	.cfi_endproc
                                        # -- End function
	.globl	_ZN15CSSPropertyAPI87method5Ev # -- Begin function _ZN15CSSPropertyAPI87method5Ev
	.p2align	4, 0x90
	.type	_ZN15CSSPropertyAPI87method5Ev,@function
_ZN15CSSPropertyAPI87method5Ev:         # @_ZN15CSSPropertyAPI87method5Ev
	.cfi_startproc
# BB#0:                                 # %entry
	addl	$13, increment_me(%rip)
	retq
.Lfunc_end354:
	.size	_ZN15CSSPropertyAPI87method5Ev, .Lfunc_end354-_ZN15CSSPropertyAPI87method5Ev
	.cfi_endproc
                                        # -- End function
	.globl	_ZN15CSSPropertyAPI87method6Ev # -- Begin function _ZN15CSSPropertyAPI87method6Ev
	.p2align	4, 0x90
	.type	_ZN15CSSPropertyAPI87method6Ev,@function
_ZN15CSSPropertyAPI87method6Ev:         # @_ZN15CSSPropertyAPI87method6Ev
	.cfi_startproc
# BB#0:                                 # %entry
	addl	$14, increment_me(%rip)
	retq
.Lfunc_end355:
	.size	_ZN15CSSPropertyAPI87method6Ev, .Lfunc_end355-_ZN15CSSPropertyAPI87method6Ev
	.cfi_endproc
                                        # -- End function
	.globl	_ZN15CSSPropertyAPI87method7Ev # -- Begin function _ZN15CSSPropertyAPI87method7Ev
	.p2align	4, 0x90
	.type	_ZN15CSSPropertyAPI87method7Ev,@function
_ZN15CSSPropertyAPI87method7Ev:         # @_ZN15CSSPropertyAPI87method7Ev
	.cfi_startproc
# BB#0:                                 # %entry
	addl	$15, increment_me(%rip)
	retq
.Lfunc_end356:
	.size	_ZN15CSSPropertyAPI87method7Ev, .Lfunc_end356-_ZN15CSSPropertyAPI87method7Ev
	.cfi_endproc
                                        # -- End function
	.globl	_ZN15CSSPropertyAPI87method8Ev # -- Begin function _ZN15CSSPropertyAPI87method8Ev
	.p2align	4, 0x90
	.type	_ZN15CSSPropertyAPI87method8Ev,@function
_ZN15CSSPropertyAPI87method8Ev:         # @_ZN15CSSPropertyAPI87method8Ev
	.cfi_startproc
# BB#0:                                 # %entry
	addl	$16, increment_me(%rip)
	retq
.Lfunc_end357:
	.size	_ZN15CSSPropertyAPI87method8Ev, .Lfunc_end357-_ZN15CSSPropertyAPI87method8Ev
	.cfi_endproc
                                        # -- End function
	.globl	_ZN15CSSPropertyAPI87method9Ev # -- Begin function _ZN15CSSPropertyAPI87method9Ev
	.p2align	4, 0x90
	.type	_ZN15CSSPropertyAPI87method9Ev,@function
_ZN15CSSPropertyAPI87method9Ev:         # @_ZN15CSSPropertyAPI87method9Ev
	.cfi_startproc
# BB#0:                                 # %entry
	addl	$17, increment_me(%rip)
	retq
.Lfunc_end358:
	.size	_ZN15CSSPropertyAPI87method9Ev, .Lfunc_end358-_ZN15CSSPropertyAPI87method9Ev
	.cfi_endproc
                                        # -- End function
	.globl	_ZN15CSSPropertyAPI88method10Ev # -- Begin function _ZN15CSSPropertyAPI88method10Ev
	.p2align	4, 0x90
	.type	_ZN15CSSPropertyAPI88method10Ev,@function
_ZN15CSSPropertyAPI88method10Ev:        # @_ZN15CSSPropertyAPI88method10Ev
	.cfi_startproc
# BB#0:                                 # %entry
	addl	$18, increment_me(%rip)
	retq
.Lfunc_end359:
	.size	_ZN15CSSPropertyAPI88method10Ev, .Lfunc_end359-_ZN15CSSPropertyAPI88method10Ev
	.cfi_endproc
                                        # -- End function
	.globl	_ZN15CSSPropertyAPI88method11Ev # -- Begin function _ZN15CSSPropertyAPI88method11Ev
	.p2align	4, 0x90
	.type	_ZN15CSSPropertyAPI88method11Ev,@function
_ZN15CSSPropertyAPI88method11Ev:        # @_ZN15CSSPropertyAPI88method11Ev
	.cfi_startproc
# BB#0:                                 # %entry
	addl	$19, increment_me(%rip)
	retq
.Lfunc_end360:
	.size	_ZN15CSSPropertyAPI88method11Ev, .Lfunc_end360-_ZN15CSSPropertyAPI88method11Ev
	.cfi_endproc
                                        # -- End function
	.globl	_ZN15CSSPropertyAPI88method12Ev # -- Begin function _ZN15CSSPropertyAPI88method12Ev
	.p2align	4, 0x90
	.type	_ZN15CSSPropertyAPI88method12Ev,@function
_ZN15CSSPropertyAPI88method12Ev:        # @_ZN15CSSPropertyAPI88method12Ev
	.cfi_startproc
# BB#0:                                 # %entry
	addl	$20, increment_me(%rip)
	retq
.Lfunc_end361:
	.size	_ZN15CSSPropertyAPI88method12Ev, .Lfunc_end361-_ZN15CSSPropertyAPI88method12Ev
	.cfi_endproc
                                        # -- End function
	.globl	_ZN15CSSPropertyAPI88method13Ev # -- Begin function _ZN15CSSPropertyAPI88method13Ev
	.p2align	4, 0x90
	.type	_ZN15CSSPropertyAPI88method13Ev,@function
_ZN15CSSPropertyAPI88method13Ev:        # @_ZN15CSSPropertyAPI88method13Ev
	.cfi_startproc
# BB#0:                                 # %entry
	addl	$21, increment_me(%rip)
	retq
.Lfunc_end362:
	.size	_ZN15CSSPropertyAPI88method13Ev, .Lfunc_end362-_ZN15CSSPropertyAPI88method13Ev
	.cfi_endproc
                                        # -- End function
	.globl	_ZN15CSSPropertyAPI88method14Ev # -- Begin function _ZN15CSSPropertyAPI88method14Ev
	.p2align	4, 0x90
	.type	_ZN15CSSPropertyAPI88method14Ev,@function
_ZN15CSSPropertyAPI88method14Ev:        # @_ZN15CSSPropertyAPI88method14Ev
	.cfi_startproc
# BB#0:                                 # %entry
	addl	$22, increment_me(%rip)
	retq
.Lfunc_end363:
	.size	_ZN15CSSPropertyAPI88method14Ev, .Lfunc_end363-_ZN15CSSPropertyAPI88method14Ev
	.cfi_endproc
                                        # -- End function
	.globl	_ZN15CSSPropertyAPI88method15Ev # -- Begin function _ZN15CSSPropertyAPI88method15Ev
	.p2align	4, 0x90
	.type	_ZN15CSSPropertyAPI88method15Ev,@function
_ZN15CSSPropertyAPI88method15Ev:        # @_ZN15CSSPropertyAPI88method15Ev
	.cfi_startproc
# BB#0:                                 # %entry
	addl	$23, increment_me(%rip)
	retq
.Lfunc_end364:
	.size	_ZN15CSSPropertyAPI88method15Ev, .Lfunc_end364-_ZN15CSSPropertyAPI88method15Ev
	.cfi_endproc
                                        # -- End function
	.globl	_ZN15CSSPropertyAPI88method16Ev # -- Begin function _ZN15CSSPropertyAPI88method16Ev
	.p2align	4, 0x90
	.type	_ZN15CSSPropertyAPI88method16Ev,@function
_ZN15CSSPropertyAPI88method16Ev:        # @_ZN15CSSPropertyAPI88method16Ev
	.cfi_startproc
# BB#0:                                 # %entry
	addl	$24, increment_me(%rip)
	retq
.Lfunc_end365:
	.size	_ZN15CSSPropertyAPI88method16Ev, .Lfunc_end365-_ZN15CSSPropertyAPI88method16Ev
	.cfi_endproc
                                        # -- End function
	.globl	_ZN15CSSPropertyAPI88method17Ev # -- Begin function _ZN15CSSPropertyAPI88method17Ev
	.p2align	4, 0x90
	.type	_ZN15CSSPropertyAPI88method17Ev,@function
_ZN15CSSPropertyAPI88method17Ev:        # @_ZN15CSSPropertyAPI88method17Ev
	.cfi_startproc
# BB#0:                                 # %entry
	addl	$25, increment_me(%rip)
	retq
.Lfunc_end366:
	.size	_ZN15CSSPropertyAPI88method17Ev, .Lfunc_end366-_ZN15CSSPropertyAPI88method17Ev
	.cfi_endproc
                                        # -- End function
	.globl	_ZN15CSSPropertyAPI88method18Ev # -- Begin function _ZN15CSSPropertyAPI88method18Ev
	.p2align	4, 0x90
	.type	_ZN15CSSPropertyAPI88method18Ev,@function
_ZN15CSSPropertyAPI88method18Ev:        # @_ZN15CSSPropertyAPI88method18Ev
	.cfi_startproc
# BB#0:                                 # %entry
	addl	$26, increment_me(%rip)
	retq
.Lfunc_end367:
	.size	_ZN15CSSPropertyAPI88method18Ev, .Lfunc_end367-_ZN15CSSPropertyAPI88method18Ev
	.cfi_endproc
                                        # -- End function
	.globl	_ZN15CSSPropertyAPI88method19Ev # -- Begin function _ZN15CSSPropertyAPI88method19Ev
	.p2align	4, 0x90
	.type	_ZN15CSSPropertyAPI88method19Ev,@function
_ZN15CSSPropertyAPI88method19Ev:        # @_ZN15CSSPropertyAPI88method19Ev
	.cfi_startproc
# BB#0:                                 # %entry
	addl	$27, increment_me(%rip)
	retq
.Lfunc_end368:
	.size	_ZN15CSSPropertyAPI88method19Ev, .Lfunc_end368-_ZN15CSSPropertyAPI88method19Ev
	.cfi_endproc
                                        # -- End function
	.globl	_ZN15CSSPropertyAPI88method20Ev # -- Begin function _ZN15CSSPropertyAPI88method20Ev
	.p2align	4, 0x90
	.type	_ZN15CSSPropertyAPI88method20Ev,@function
_ZN15CSSPropertyAPI88method20Ev:        # @_ZN15CSSPropertyAPI88method20Ev
	.cfi_startproc
# BB#0:                                 # %entry
	addl	$28, increment_me(%rip)
	retq
.Lfunc_end369:
	.size	_ZN15CSSPropertyAPI88method20Ev, .Lfunc_end369-_ZN15CSSPropertyAPI88method20Ev
	.cfi_endproc
                                        # -- End function
	.globl	_ZN15CSSPropertyAPI88method21Ev # -- Begin function _ZN15CSSPropertyAPI88method21Ev
	.p2align	4, 0x90
	.type	_ZN15CSSPropertyAPI88method21Ev,@function
_ZN15CSSPropertyAPI88method21Ev:        # @_ZN15CSSPropertyAPI88method21Ev
	.cfi_startproc
# BB#0:                                 # %entry
	addl	$29, increment_me(%rip)
	retq
.Lfunc_end370:
	.size	_ZN15CSSPropertyAPI88method21Ev, .Lfunc_end370-_ZN15CSSPropertyAPI88method21Ev
	.cfi_endproc
                                        # -- End function
	.globl	_ZN15CSSPropertyAPI88method22Ev # -- Begin function _ZN15CSSPropertyAPI88method22Ev
	.p2align	4, 0x90
	.type	_ZN15CSSPropertyAPI88method22Ev,@function
_ZN15CSSPropertyAPI88method22Ev:        # @_ZN15CSSPropertyAPI88method22Ev
	.cfi_startproc
# BB#0:                                 # %entry
	addl	$30, increment_me(%rip)
	retq
.Lfunc_end371:
	.size	_ZN15CSSPropertyAPI88method22Ev, .Lfunc_end371-_ZN15CSSPropertyAPI88method22Ev
	.cfi_endproc
                                        # -- End function
	.globl	_ZN15CSSPropertyAPI88method23Ev # -- Begin function _ZN15CSSPropertyAPI88method23Ev
	.p2align	4, 0x90
	.type	_ZN15CSSPropertyAPI88method23Ev,@function
_ZN15CSSPropertyAPI88method23Ev:        # @_ZN15CSSPropertyAPI88method23Ev
	.cfi_startproc
# BB#0:                                 # %entry
	addl	$31, increment_me(%rip)
	retq
.Lfunc_end372:
	.size	_ZN15CSSPropertyAPI88method23Ev, .Lfunc_end372-_ZN15CSSPropertyAPI88method23Ev
	.cfi_endproc
                                        # -- End function
	.globl	_ZN15CSSPropertyAPI88method24Ev # -- Begin function _ZN15CSSPropertyAPI88method24Ev
	.p2align	4, 0x90
	.type	_ZN15CSSPropertyAPI88method24Ev,@function
_ZN15CSSPropertyAPI88method24Ev:        # @_ZN15CSSPropertyAPI88method24Ev
	.cfi_startproc
# BB#0:                                 # %entry
	addl	$32, increment_me(%rip)
	retq
.Lfunc_end373:
	.size	_ZN15CSSPropertyAPI88method24Ev, .Lfunc_end373-_ZN15CSSPropertyAPI88method24Ev
	.cfi_endproc
                                        # -- End function
	.globl	_ZN15CSSPropertyAPI88method25Ev # -- Begin function _ZN15CSSPropertyAPI88method25Ev
	.p2align	4, 0x90
	.type	_ZN15CSSPropertyAPI88method25Ev,@function
_ZN15CSSPropertyAPI88method25Ev:        # @_ZN15CSSPropertyAPI88method25Ev
	.cfi_startproc
# BB#0:                                 # %entry
	addl	$33, increment_me(%rip)
	retq
.Lfunc_end374:
	.size	_ZN15CSSPropertyAPI88method25Ev, .Lfunc_end374-_ZN15CSSPropertyAPI88method25Ev
	.cfi_endproc
                                        # -- End function
	.globl	_ZN15CSSPropertyAPI88method26Ev # -- Begin function _ZN15CSSPropertyAPI88method26Ev
	.p2align	4, 0x90
	.type	_ZN15CSSPropertyAPI88method26Ev,@function
_ZN15CSSPropertyAPI88method26Ev:        # @_ZN15CSSPropertyAPI88method26Ev
	.cfi_startproc
# BB#0:                                 # %entry
	addl	$34, increment_me(%rip)
	retq
.Lfunc_end375:
	.size	_ZN15CSSPropertyAPI88method26Ev, .Lfunc_end375-_ZN15CSSPropertyAPI88method26Ev
	.cfi_endproc
                                        # -- End function
	.globl	_ZN15CSSPropertyAPI88method27Ev # -- Begin function _ZN15CSSPropertyAPI88method27Ev
	.p2align	4, 0x90
	.type	_ZN15CSSPropertyAPI88method27Ev,@function
_ZN15CSSPropertyAPI88method27Ev:        # @_ZN15CSSPropertyAPI88method27Ev
	.cfi_startproc
# BB#0:                                 # %entry
	addl	$35, increment_me(%rip)
	retq
.Lfunc_end376:
	.size	_ZN15CSSPropertyAPI88method27Ev, .Lfunc_end376-_ZN15CSSPropertyAPI88method27Ev
	.cfi_endproc
                                        # -- End function
	.globl	_ZN15CSSPropertyAPI88method28Ev # -- Begin function _ZN15CSSPropertyAPI88method28Ev
	.p2align	4, 0x90
	.type	_ZN15CSSPropertyAPI88method28Ev,@function
_ZN15CSSPropertyAPI88method28Ev:        # @_ZN15CSSPropertyAPI88method28Ev
	.cfi_startproc
# BB#0:                                 # %entry
	addl	$36, increment_me(%rip)
	retq
.Lfunc_end377:
	.size	_ZN15CSSPropertyAPI88method28Ev, .Lfunc_end377-_ZN15CSSPropertyAPI88method28Ev
	.cfi_endproc
                                        # -- End function
	.globl	_ZN15CSSPropertyAPI88method29Ev # -- Begin function _ZN15CSSPropertyAPI88method29Ev
	.p2align	4, 0x90
	.type	_ZN15CSSPropertyAPI88method29Ev,@function
_ZN15CSSPropertyAPI88method29Ev:        # @_ZN15CSSPropertyAPI88method29Ev
	.cfi_startproc
# BB#0:                                 # %entry
	addl	$37, increment_me(%rip)
	retq
.Lfunc_end378:
	.size	_ZN15CSSPropertyAPI88method29Ev, .Lfunc_end378-_ZN15CSSPropertyAPI88method29Ev
	.cfi_endproc
                                        # -- End function
	.globl	_ZN15CSSPropertyAPI88method30Ev # -- Begin function _ZN15CSSPropertyAPI88method30Ev
	.p2align	4, 0x90
	.type	_ZN15CSSPropertyAPI88method30Ev,@function
_ZN15CSSPropertyAPI88method30Ev:        # @_ZN15CSSPropertyAPI88method30Ev
	.cfi_startproc
# BB#0:                                 # %entry
	addl	$38, increment_me(%rip)
	retq
.Lfunc_end379:
	.size	_ZN15CSSPropertyAPI88method30Ev, .Lfunc_end379-_ZN15CSSPropertyAPI88method30Ev
	.cfi_endproc
                                        # -- End function
	.globl	_ZN15CSSPropertyAPI88method31Ev # -- Begin function _ZN15CSSPropertyAPI88method31Ev
	.p2align	4, 0x90
	.type	_ZN15CSSPropertyAPI88method31Ev,@function
_ZN15CSSPropertyAPI88method31Ev:        # @_ZN15CSSPropertyAPI88method31Ev
	.cfi_startproc
# BB#0:                                 # %entry
	addl	$39, increment_me(%rip)
	retq
.Lfunc_end380:
	.size	_ZN15CSSPropertyAPI88method31Ev, .Lfunc_end380-_ZN15CSSPropertyAPI88method31Ev
	.cfi_endproc
                                        # -- End function
	.globl	_ZN15CSSPropertyAPI88method32Ev # -- Begin function _ZN15CSSPropertyAPI88method32Ev
	.p2align	4, 0x90
	.type	_ZN15CSSPropertyAPI88method32Ev,@function
_ZN15CSSPropertyAPI88method32Ev:        # @_ZN15CSSPropertyAPI88method32Ev
	.cfi_startproc
# BB#0:                                 # %entry
	addl	$40, increment_me(%rip)
	retq
.Lfunc_end381:
	.size	_ZN15CSSPropertyAPI88method32Ev, .Lfunc_end381-_ZN15CSSPropertyAPI88method32Ev
	.cfi_endproc
                                        # -- End function
	.globl	_ZN15CSSPropertyAPI88method33Ev # -- Begin function _ZN15CSSPropertyAPI88method33Ev
	.p2align	4, 0x90
	.type	_ZN15CSSPropertyAPI88method33Ev,@function
_ZN15CSSPropertyAPI88method33Ev:        # @_ZN15CSSPropertyAPI88method33Ev
	.cfi_startproc
# BB#0:                                 # %entry
	addl	$41, increment_me(%rip)
	retq
.Lfunc_end382:
	.size	_ZN15CSSPropertyAPI88method33Ev, .Lfunc_end382-_ZN15CSSPropertyAPI88method33Ev
	.cfi_endproc
                                        # -- End function
	.globl	_ZN15CSSPropertyAPI88method34Ev # -- Begin function _ZN15CSSPropertyAPI88method34Ev
	.p2align	4, 0x90
	.type	_ZN15CSSPropertyAPI88method34Ev,@function
_ZN15CSSPropertyAPI88method34Ev:        # @_ZN15CSSPropertyAPI88method34Ev
	.cfi_startproc
# BB#0:                                 # %entry
	addl	$42, increment_me(%rip)
	retq
.Lfunc_end383:
	.size	_ZN15CSSPropertyAPI88method34Ev, .Lfunc_end383-_ZN15CSSPropertyAPI88method34Ev
	.cfi_endproc
                                        # -- End function
	.globl	_ZN15CSSPropertyAPI88method35Ev # -- Begin function _ZN15CSSPropertyAPI88method35Ev
	.p2align	4, 0x90
	.type	_ZN15CSSPropertyAPI88method35Ev,@function
_ZN15CSSPropertyAPI88method35Ev:        # @_ZN15CSSPropertyAPI88method35Ev
	.cfi_startproc
# BB#0:                                 # %entry
	addl	$43, increment_me(%rip)
	retq
.Lfunc_end384:
	.size	_ZN15CSSPropertyAPI88method35Ev, .Lfunc_end384-_ZN15CSSPropertyAPI88method35Ev
	.cfi_endproc
                                        # -- End function
	.globl	_ZN15CSSPropertyAPI88method36Ev # -- Begin function _ZN15CSSPropertyAPI88method36Ev
	.p2align	4, 0x90
	.type	_ZN15CSSPropertyAPI88method36Ev,@function
_ZN15CSSPropertyAPI88method36Ev:        # @_ZN15CSSPropertyAPI88method36Ev
	.cfi_startproc
# BB#0:                                 # %entry
	addl	$44, increment_me(%rip)
	retq
.Lfunc_end385:
	.size	_ZN15CSSPropertyAPI88method36Ev, .Lfunc_end385-_ZN15CSSPropertyAPI88method36Ev
	.cfi_endproc
                                        # -- End function
	.globl	_ZN15CSSPropertyAPI88method37Ev # -- Begin function _ZN15CSSPropertyAPI88method37Ev
	.p2align	4, 0x90
	.type	_ZN15CSSPropertyAPI88method37Ev,@function
_ZN15CSSPropertyAPI88method37Ev:        # @_ZN15CSSPropertyAPI88method37Ev
	.cfi_startproc
# BB#0:                                 # %entry
	addl	$45, increment_me(%rip)
	retq
.Lfunc_end386:
	.size	_ZN15CSSPropertyAPI88method37Ev, .Lfunc_end386-_ZN15CSSPropertyAPI88method37Ev
	.cfi_endproc
                                        # -- End function
	.globl	_ZN15CSSPropertyAPI88method38Ev # -- Begin function _ZN15CSSPropertyAPI88method38Ev
	.p2align	4, 0x90
	.type	_ZN15CSSPropertyAPI88method38Ev,@function
_ZN15CSSPropertyAPI88method38Ev:        # @_ZN15CSSPropertyAPI88method38Ev
	.cfi_startproc
# BB#0:                                 # %entry
	addl	$46, increment_me(%rip)
	retq
.Lfunc_end387:
	.size	_ZN15CSSPropertyAPI88method38Ev, .Lfunc_end387-_ZN15CSSPropertyAPI88method38Ev
	.cfi_endproc
                                        # -- End function
	.globl	_ZN15CSSPropertyAPI88method39Ev # -- Begin function _ZN15CSSPropertyAPI88method39Ev
	.p2align	4, 0x90
	.type	_ZN15CSSPropertyAPI88method39Ev,@function
_ZN15CSSPropertyAPI88method39Ev:        # @_ZN15CSSPropertyAPI88method39Ev
	.cfi_startproc
# BB#0:                                 # %entry
	addl	$47, increment_me(%rip)
	retq
.Lfunc_end388:
	.size	_ZN15CSSPropertyAPI88method39Ev, .Lfunc_end388-_ZN15CSSPropertyAPI88method39Ev
	.cfi_endproc
                                        # -- End function
	.globl	_ZN15CSSPropertyAPI88method40Ev # -- Begin function _ZN15CSSPropertyAPI88method40Ev
	.p2align	4, 0x90
	.type	_ZN15CSSPropertyAPI88method40Ev,@function
_ZN15CSSPropertyAPI88method40Ev:        # @_ZN15CSSPropertyAPI88method40Ev
	.cfi_startproc
# BB#0:                                 # %entry
	addl	$48, increment_me(%rip)
	retq
.Lfunc_end389:
	.size	_ZN15CSSPropertyAPI88method40Ev, .Lfunc_end389-_ZN15CSSPropertyAPI88method40Ev
	.cfi_endproc
                                        # -- End function
	.globl	_ZN15CSSPropertyAPI88method41Ev # -- Begin function _ZN15CSSPropertyAPI88method41Ev
	.p2align	4, 0x90
	.type	_ZN15CSSPropertyAPI88method41Ev,@function
_ZN15CSSPropertyAPI88method41Ev:        # @_ZN15CSSPropertyAPI88method41Ev
	.cfi_startproc
# BB#0:                                 # %entry
	addl	$49, increment_me(%rip)
	retq
.Lfunc_end390:
	.size	_ZN15CSSPropertyAPI88method41Ev, .Lfunc_end390-_ZN15CSSPropertyAPI88method41Ev
	.cfi_endproc
                                        # -- End function
	.globl	_ZN15CSSPropertyAPI88method42Ev # -- Begin function _ZN15CSSPropertyAPI88method42Ev
	.p2align	4, 0x90
	.type	_ZN15CSSPropertyAPI88method42Ev,@function
_ZN15CSSPropertyAPI88method42Ev:        # @_ZN15CSSPropertyAPI88method42Ev
	.cfi_startproc
# BB#0:                                 # %entry
	addl	$50, increment_me(%rip)
	retq
.Lfunc_end391:
	.size	_ZN15CSSPropertyAPI88method42Ev, .Lfunc_end391-_ZN15CSSPropertyAPI88method42Ev
	.cfi_endproc
                                        # -- End function
	.globl	_ZN15CSSPropertyAPI88method43Ev # -- Begin function _ZN15CSSPropertyAPI88method43Ev
	.p2align	4, 0x90
	.type	_ZN15CSSPropertyAPI88method43Ev,@function
_ZN15CSSPropertyAPI88method43Ev:        # @_ZN15CSSPropertyAPI88method43Ev
	.cfi_startproc
# BB#0:                                 # %entry
	addl	$51, increment_me(%rip)
	retq
.Lfunc_end392:
	.size	_ZN15CSSPropertyAPI88method43Ev, .Lfunc_end392-_ZN15CSSPropertyAPI88method43Ev
	.cfi_endproc
                                        # -- End function
	.globl	_ZN15CSSPropertyAPI88method44Ev # -- Begin function _ZN15CSSPropertyAPI88method44Ev
	.p2align	4, 0x90
	.type	_ZN15CSSPropertyAPI88method44Ev,@function
_ZN15CSSPropertyAPI88method44Ev:        # @_ZN15CSSPropertyAPI88method44Ev
	.cfi_startproc
# BB#0:                                 # %entry
	addl	$52, increment_me(%rip)
	retq
.Lfunc_end393:
	.size	_ZN15CSSPropertyAPI88method44Ev, .Lfunc_end393-_ZN15CSSPropertyAPI88method44Ev
	.cfi_endproc
                                        # -- End function
	.globl	_ZN15CSSPropertyAPI88method45Ev # -- Begin function _ZN15CSSPropertyAPI88method45Ev
	.p2align	4, 0x90
	.type	_ZN15CSSPropertyAPI88method45Ev,@function
_ZN15CSSPropertyAPI88method45Ev:        # @_ZN15CSSPropertyAPI88method45Ev
	.cfi_startproc
# BB#0:                                 # %entry
	addl	$53, increment_me(%rip)
	retq
.Lfunc_end394:
	.size	_ZN15CSSPropertyAPI88method45Ev, .Lfunc_end394-_ZN15CSSPropertyAPI88method45Ev
	.cfi_endproc
                                        # -- End function
	.globl	_ZN15CSSPropertyAPI88method46Ev # -- Begin function _ZN15CSSPropertyAPI88method46Ev
	.p2align	4, 0x90
	.type	_ZN15CSSPropertyAPI88method46Ev,@function
_ZN15CSSPropertyAPI88method46Ev:        # @_ZN15CSSPropertyAPI88method46Ev
	.cfi_startproc
# BB#0:                                 # %entry
	addl	$54, increment_me(%rip)
	retq
.Lfunc_end395:
	.size	_ZN15CSSPropertyAPI88method46Ev, .Lfunc_end395-_ZN15CSSPropertyAPI88method46Ev
	.cfi_endproc
                                        # -- End function
	.globl	_ZN15CSSPropertyAPI88method47Ev # -- Begin function _ZN15CSSPropertyAPI88method47Ev
	.p2align	4, 0x90
	.type	_ZN15CSSPropertyAPI88method47Ev,@function
_ZN15CSSPropertyAPI88method47Ev:        # @_ZN15CSSPropertyAPI88method47Ev
	.cfi_startproc
# BB#0:                                 # %entry
	addl	$55, increment_me(%rip)
	retq
.Lfunc_end396:
	.size	_ZN15CSSPropertyAPI88method47Ev, .Lfunc_end396-_ZN15CSSPropertyAPI88method47Ev
	.cfi_endproc
                                        # -- End function
	.globl	_ZN15CSSPropertyAPI88method48Ev # -- Begin function _ZN15CSSPropertyAPI88method48Ev
	.p2align	4, 0x90
	.type	_ZN15CSSPropertyAPI88method48Ev,@function
_ZN15CSSPropertyAPI88method48Ev:        # @_ZN15CSSPropertyAPI88method48Ev
	.cfi_startproc
# BB#0:                                 # %entry
	addl	$56, increment_me(%rip)
	retq
.Lfunc_end397:
	.size	_ZN15CSSPropertyAPI88method48Ev, .Lfunc_end397-_ZN15CSSPropertyAPI88method48Ev
	.cfi_endproc
                                        # -- End function
	.globl	_ZN15CSSPropertyAPI88method49Ev # -- Begin function _ZN15CSSPropertyAPI88method49Ev
	.p2align	4, 0x90
	.type	_ZN15CSSPropertyAPI88method49Ev,@function
_ZN15CSSPropertyAPI88method49Ev:        # @_ZN15CSSPropertyAPI88method49Ev
	.cfi_startproc
# BB#0:                                 # %entry
	addl	$57, increment_me(%rip)
	retq
.Lfunc_end398:
	.size	_ZN15CSSPropertyAPI88method49Ev, .Lfunc_end398-_ZN15CSSPropertyAPI88method49Ev
	.cfi_endproc
                                        # -- End function
	.globl	_ZN15CSSPropertyAPI88method50Ev # -- Begin function _ZN15CSSPropertyAPI88method50Ev
	.p2align	4, 0x90
	.type	_ZN15CSSPropertyAPI88method50Ev,@function
_ZN15CSSPropertyAPI88method50Ev:        # @_ZN15CSSPropertyAPI88method50Ev
	.cfi_startproc
# BB#0:                                 # %entry
	addl	$58, increment_me(%rip)
	retq
.Lfunc_end399:
	.size	_ZN15CSSPropertyAPI88method50Ev, .Lfunc_end399-_ZN15CSSPropertyAPI88method50Ev
	.cfi_endproc
                                        # -- End function
	.globl	_ZN15CSSPropertyAPI97method1Ev # -- Begin function _ZN15CSSPropertyAPI97method1Ev
	.p2align	4, 0x90
	.type	_ZN15CSSPropertyAPI97method1Ev,@function
_ZN15CSSPropertyAPI97method1Ev:         # @_ZN15CSSPropertyAPI97method1Ev
	.cfi_startproc
# BB#0:                                 # %entry
	addl	$10, increment_me(%rip)
	retq
.Lfunc_end400:
	.size	_ZN15CSSPropertyAPI97method1Ev, .Lfunc_end400-_ZN15CSSPropertyAPI97method1Ev
	.cfi_endproc
                                        # -- End function
	.globl	_ZN15CSSPropertyAPI97method2Ev # -- Begin function _ZN15CSSPropertyAPI97method2Ev
	.p2align	4, 0x90
	.type	_ZN15CSSPropertyAPI97method2Ev,@function
_ZN15CSSPropertyAPI97method2Ev:         # @_ZN15CSSPropertyAPI97method2Ev
	.cfi_startproc
# BB#0:                                 # %entry
	addl	$11, increment_me(%rip)
	retq
.Lfunc_end401:
	.size	_ZN15CSSPropertyAPI97method2Ev, .Lfunc_end401-_ZN15CSSPropertyAPI97method2Ev
	.cfi_endproc
                                        # -- End function
	.globl	_ZN15CSSPropertyAPI97method3Ev # -- Begin function _ZN15CSSPropertyAPI97method3Ev
	.p2align	4, 0x90
	.type	_ZN15CSSPropertyAPI97method3Ev,@function
_ZN15CSSPropertyAPI97method3Ev:         # @_ZN15CSSPropertyAPI97method3Ev
	.cfi_startproc
# BB#0:                                 # %entry
	addl	$12, increment_me(%rip)
	retq
.Lfunc_end402:
	.size	_ZN15CSSPropertyAPI97method3Ev, .Lfunc_end402-_ZN15CSSPropertyAPI97method3Ev
	.cfi_endproc
                                        # -- End function
	.globl	_ZN15CSSPropertyAPI97method4Ev # -- Begin function _ZN15CSSPropertyAPI97method4Ev
	.p2align	4, 0x90
	.type	_ZN15CSSPropertyAPI97method4Ev,@function
_ZN15CSSPropertyAPI97method4Ev:         # @_ZN15CSSPropertyAPI97method4Ev
	.cfi_startproc
# BB#0:                                 # %entry
	addl	$13, increment_me(%rip)
	retq
.Lfunc_end403:
	.size	_ZN15CSSPropertyAPI97method4Ev, .Lfunc_end403-_ZN15CSSPropertyAPI97method4Ev
	.cfi_endproc
                                        # -- End function
	.globl	_ZN15CSSPropertyAPI97method5Ev # -- Begin function _ZN15CSSPropertyAPI97method5Ev
	.p2align	4, 0x90
	.type	_ZN15CSSPropertyAPI97method5Ev,@function
_ZN15CSSPropertyAPI97method5Ev:         # @_ZN15CSSPropertyAPI97method5Ev
	.cfi_startproc
# BB#0:                                 # %entry
	addl	$14, increment_me(%rip)
	retq
.Lfunc_end404:
	.size	_ZN15CSSPropertyAPI97method5Ev, .Lfunc_end404-_ZN15CSSPropertyAPI97method5Ev
	.cfi_endproc
                                        # -- End function
	.globl	_ZN15CSSPropertyAPI97method6Ev # -- Begin function _ZN15CSSPropertyAPI97method6Ev
	.p2align	4, 0x90
	.type	_ZN15CSSPropertyAPI97method6Ev,@function
_ZN15CSSPropertyAPI97method6Ev:         # @_ZN15CSSPropertyAPI97method6Ev
	.cfi_startproc
# BB#0:                                 # %entry
	addl	$15, increment_me(%rip)
	retq
.Lfunc_end405:
	.size	_ZN15CSSPropertyAPI97method6Ev, .Lfunc_end405-_ZN15CSSPropertyAPI97method6Ev
	.cfi_endproc
                                        # -- End function
	.globl	_ZN15CSSPropertyAPI97method7Ev # -- Begin function _ZN15CSSPropertyAPI97method7Ev
	.p2align	4, 0x90
	.type	_ZN15CSSPropertyAPI97method7Ev,@function
_ZN15CSSPropertyAPI97method7Ev:         # @_ZN15CSSPropertyAPI97method7Ev
	.cfi_startproc
# BB#0:                                 # %entry
	addl	$16, increment_me(%rip)
	retq
.Lfunc_end406:
	.size	_ZN15CSSPropertyAPI97method7Ev, .Lfunc_end406-_ZN15CSSPropertyAPI97method7Ev
	.cfi_endproc
                                        # -- End function
	.globl	_ZN15CSSPropertyAPI97method8Ev # -- Begin function _ZN15CSSPropertyAPI97method8Ev
	.p2align	4, 0x90
	.type	_ZN15CSSPropertyAPI97method8Ev,@function
_ZN15CSSPropertyAPI97method8Ev:         # @_ZN15CSSPropertyAPI97method8Ev
	.cfi_startproc
# BB#0:                                 # %entry
	addl	$17, increment_me(%rip)
	retq
.Lfunc_end407:
	.size	_ZN15CSSPropertyAPI97method8Ev, .Lfunc_end407-_ZN15CSSPropertyAPI97method8Ev
	.cfi_endproc
                                        # -- End function
	.globl	_ZN15CSSPropertyAPI97method9Ev # -- Begin function _ZN15CSSPropertyAPI97method9Ev
	.p2align	4, 0x90
	.type	_ZN15CSSPropertyAPI97method9Ev,@function
_ZN15CSSPropertyAPI97method9Ev:         # @_ZN15CSSPropertyAPI97method9Ev
	.cfi_startproc
# BB#0:                                 # %entry
	addl	$18, increment_me(%rip)
	retq
.Lfunc_end408:
	.size	_ZN15CSSPropertyAPI97method9Ev, .Lfunc_end408-_ZN15CSSPropertyAPI97method9Ev
	.cfi_endproc
                                        # -- End function
	.globl	_ZN15CSSPropertyAPI98method10Ev # -- Begin function _ZN15CSSPropertyAPI98method10Ev
	.p2align	4, 0x90
	.type	_ZN15CSSPropertyAPI98method10Ev,@function
_ZN15CSSPropertyAPI98method10Ev:        # @_ZN15CSSPropertyAPI98method10Ev
	.cfi_startproc
# BB#0:                                 # %entry
	addl	$19, increment_me(%rip)
	retq
.Lfunc_end409:
	.size	_ZN15CSSPropertyAPI98method10Ev, .Lfunc_end409-_ZN15CSSPropertyAPI98method10Ev
	.cfi_endproc
                                        # -- End function
	.globl	_ZN15CSSPropertyAPI98method11Ev # -- Begin function _ZN15CSSPropertyAPI98method11Ev
	.p2align	4, 0x90
	.type	_ZN15CSSPropertyAPI98method11Ev,@function
_ZN15CSSPropertyAPI98method11Ev:        # @_ZN15CSSPropertyAPI98method11Ev
	.cfi_startproc
# BB#0:                                 # %entry
	addl	$20, increment_me(%rip)
	retq
.Lfunc_end410:
	.size	_ZN15CSSPropertyAPI98method11Ev, .Lfunc_end410-_ZN15CSSPropertyAPI98method11Ev
	.cfi_endproc
                                        # -- End function
	.globl	_ZN15CSSPropertyAPI98method12Ev # -- Begin function _ZN15CSSPropertyAPI98method12Ev
	.p2align	4, 0x90
	.type	_ZN15CSSPropertyAPI98method12Ev,@function
_ZN15CSSPropertyAPI98method12Ev:        # @_ZN15CSSPropertyAPI98method12Ev
	.cfi_startproc
# BB#0:                                 # %entry
	addl	$21, increment_me(%rip)
	retq
.Lfunc_end411:
	.size	_ZN15CSSPropertyAPI98method12Ev, .Lfunc_end411-_ZN15CSSPropertyAPI98method12Ev
	.cfi_endproc
                                        # -- End function
	.globl	_ZN15CSSPropertyAPI98method13Ev # -- Begin function _ZN15CSSPropertyAPI98method13Ev
	.p2align	4, 0x90
	.type	_ZN15CSSPropertyAPI98method13Ev,@function
_ZN15CSSPropertyAPI98method13Ev:        # @_ZN15CSSPropertyAPI98method13Ev
	.cfi_startproc
# BB#0:                                 # %entry
	addl	$22, increment_me(%rip)
	retq
.Lfunc_end412:
	.size	_ZN15CSSPropertyAPI98method13Ev, .Lfunc_end412-_ZN15CSSPropertyAPI98method13Ev
	.cfi_endproc
                                        # -- End function
	.globl	_ZN15CSSPropertyAPI98method14Ev # -- Begin function _ZN15CSSPropertyAPI98method14Ev
	.p2align	4, 0x90
	.type	_ZN15CSSPropertyAPI98method14Ev,@function
_ZN15CSSPropertyAPI98method14Ev:        # @_ZN15CSSPropertyAPI98method14Ev
	.cfi_startproc
# BB#0:                                 # %entry
	addl	$23, increment_me(%rip)
	retq
.Lfunc_end413:
	.size	_ZN15CSSPropertyAPI98method14Ev, .Lfunc_end413-_ZN15CSSPropertyAPI98method14Ev
	.cfi_endproc
                                        # -- End function
	.globl	_ZN15CSSPropertyAPI98method15Ev # -- Begin function _ZN15CSSPropertyAPI98method15Ev
	.p2align	4, 0x90
	.type	_ZN15CSSPropertyAPI98method15Ev,@function
_ZN15CSSPropertyAPI98method15Ev:        # @_ZN15CSSPropertyAPI98method15Ev
	.cfi_startproc
# BB#0:                                 # %entry
	addl	$24, increment_me(%rip)
	retq
.Lfunc_end414:
	.size	_ZN15CSSPropertyAPI98method15Ev, .Lfunc_end414-_ZN15CSSPropertyAPI98method15Ev
	.cfi_endproc
                                        # -- End function
	.globl	_ZN15CSSPropertyAPI98method16Ev # -- Begin function _ZN15CSSPropertyAPI98method16Ev
	.p2align	4, 0x90
	.type	_ZN15CSSPropertyAPI98method16Ev,@function
_ZN15CSSPropertyAPI98method16Ev:        # @_ZN15CSSPropertyAPI98method16Ev
	.cfi_startproc
# BB#0:                                 # %entry
	addl	$25, increment_me(%rip)
	retq
.Lfunc_end415:
	.size	_ZN15CSSPropertyAPI98method16Ev, .Lfunc_end415-_ZN15CSSPropertyAPI98method16Ev
	.cfi_endproc
                                        # -- End function
	.globl	_ZN15CSSPropertyAPI98method17Ev # -- Begin function _ZN15CSSPropertyAPI98method17Ev
	.p2align	4, 0x90
	.type	_ZN15CSSPropertyAPI98method17Ev,@function
_ZN15CSSPropertyAPI98method17Ev:        # @_ZN15CSSPropertyAPI98method17Ev
	.cfi_startproc
# BB#0:                                 # %entry
	addl	$26, increment_me(%rip)
	retq
.Lfunc_end416:
	.size	_ZN15CSSPropertyAPI98method17Ev, .Lfunc_end416-_ZN15CSSPropertyAPI98method17Ev
	.cfi_endproc
                                        # -- End function
	.globl	_ZN15CSSPropertyAPI98method18Ev # -- Begin function _ZN15CSSPropertyAPI98method18Ev
	.p2align	4, 0x90
	.type	_ZN15CSSPropertyAPI98method18Ev,@function
_ZN15CSSPropertyAPI98method18Ev:        # @_ZN15CSSPropertyAPI98method18Ev
	.cfi_startproc
# BB#0:                                 # %entry
	addl	$27, increment_me(%rip)
	retq
.Lfunc_end417:
	.size	_ZN15CSSPropertyAPI98method18Ev, .Lfunc_end417-_ZN15CSSPropertyAPI98method18Ev
	.cfi_endproc
                                        # -- End function
	.globl	_ZN15CSSPropertyAPI98method19Ev # -- Begin function _ZN15CSSPropertyAPI98method19Ev
	.p2align	4, 0x90
	.type	_ZN15CSSPropertyAPI98method19Ev,@function
_ZN15CSSPropertyAPI98method19Ev:        # @_ZN15CSSPropertyAPI98method19Ev
	.cfi_startproc
# BB#0:                                 # %entry
	addl	$28, increment_me(%rip)
	retq
.Lfunc_end418:
	.size	_ZN15CSSPropertyAPI98method19Ev, .Lfunc_end418-_ZN15CSSPropertyAPI98method19Ev
	.cfi_endproc
                                        # -- End function
	.globl	_ZN15CSSPropertyAPI98method20Ev # -- Begin function _ZN15CSSPropertyAPI98method20Ev
	.p2align	4, 0x90
	.type	_ZN15CSSPropertyAPI98method20Ev,@function
_ZN15CSSPropertyAPI98method20Ev:        # @_ZN15CSSPropertyAPI98method20Ev
	.cfi_startproc
# BB#0:                                 # %entry
	addl	$29, increment_me(%rip)
	retq
.Lfunc_end419:
	.size	_ZN15CSSPropertyAPI98method20Ev, .Lfunc_end419-_ZN15CSSPropertyAPI98method20Ev
	.cfi_endproc
                                        # -- End function
	.globl	_ZN15CSSPropertyAPI98method21Ev # -- Begin function _ZN15CSSPropertyAPI98method21Ev
	.p2align	4, 0x90
	.type	_ZN15CSSPropertyAPI98method21Ev,@function
_ZN15CSSPropertyAPI98method21Ev:        # @_ZN15CSSPropertyAPI98method21Ev
	.cfi_startproc
# BB#0:                                 # %entry
	addl	$30, increment_me(%rip)
	retq
.Lfunc_end420:
	.size	_ZN15CSSPropertyAPI98method21Ev, .Lfunc_end420-_ZN15CSSPropertyAPI98method21Ev
	.cfi_endproc
                                        # -- End function
	.globl	_ZN15CSSPropertyAPI98method22Ev # -- Begin function _ZN15CSSPropertyAPI98method22Ev
	.p2align	4, 0x90
	.type	_ZN15CSSPropertyAPI98method22Ev,@function
_ZN15CSSPropertyAPI98method22Ev:        # @_ZN15CSSPropertyAPI98method22Ev
	.cfi_startproc
# BB#0:                                 # %entry
	addl	$31, increment_me(%rip)
	retq
.Lfunc_end421:
	.size	_ZN15CSSPropertyAPI98method22Ev, .Lfunc_end421-_ZN15CSSPropertyAPI98method22Ev
	.cfi_endproc
                                        # -- End function
	.globl	_ZN15CSSPropertyAPI98method23Ev # -- Begin function _ZN15CSSPropertyAPI98method23Ev
	.p2align	4, 0x90
	.type	_ZN15CSSPropertyAPI98method23Ev,@function
_ZN15CSSPropertyAPI98method23Ev:        # @_ZN15CSSPropertyAPI98method23Ev
	.cfi_startproc
# BB#0:                                 # %entry
	addl	$32, increment_me(%rip)
	retq
.Lfunc_end422:
	.size	_ZN15CSSPropertyAPI98method23Ev, .Lfunc_end422-_ZN15CSSPropertyAPI98method23Ev
	.cfi_endproc
                                        # -- End function
	.globl	_ZN15CSSPropertyAPI98method24Ev # -- Begin function _ZN15CSSPropertyAPI98method24Ev
	.p2align	4, 0x90
	.type	_ZN15CSSPropertyAPI98method24Ev,@function
_ZN15CSSPropertyAPI98method24Ev:        # @_ZN15CSSPropertyAPI98method24Ev
	.cfi_startproc
# BB#0:                                 # %entry
	addl	$33, increment_me(%rip)
	retq
.Lfunc_end423:
	.size	_ZN15CSSPropertyAPI98method24Ev, .Lfunc_end423-_ZN15CSSPropertyAPI98method24Ev
	.cfi_endproc
                                        # -- End function
	.globl	_ZN15CSSPropertyAPI98method25Ev # -- Begin function _ZN15CSSPropertyAPI98method25Ev
	.p2align	4, 0x90
	.type	_ZN15CSSPropertyAPI98method25Ev,@function
_ZN15CSSPropertyAPI98method25Ev:        # @_ZN15CSSPropertyAPI98method25Ev
	.cfi_startproc
# BB#0:                                 # %entry
	addl	$34, increment_me(%rip)
	retq
.Lfunc_end424:
	.size	_ZN15CSSPropertyAPI98method25Ev, .Lfunc_end424-_ZN15CSSPropertyAPI98method25Ev
	.cfi_endproc
                                        # -- End function
	.globl	_ZN15CSSPropertyAPI98method26Ev # -- Begin function _ZN15CSSPropertyAPI98method26Ev
	.p2align	4, 0x90
	.type	_ZN15CSSPropertyAPI98method26Ev,@function
_ZN15CSSPropertyAPI98method26Ev:        # @_ZN15CSSPropertyAPI98method26Ev
	.cfi_startproc
# BB#0:                                 # %entry
	addl	$35, increment_me(%rip)
	retq
.Lfunc_end425:
	.size	_ZN15CSSPropertyAPI98method26Ev, .Lfunc_end425-_ZN15CSSPropertyAPI98method26Ev
	.cfi_endproc
                                        # -- End function
	.globl	_ZN15CSSPropertyAPI98method27Ev # -- Begin function _ZN15CSSPropertyAPI98method27Ev
	.p2align	4, 0x90
	.type	_ZN15CSSPropertyAPI98method27Ev,@function
_ZN15CSSPropertyAPI98method27Ev:        # @_ZN15CSSPropertyAPI98method27Ev
	.cfi_startproc
# BB#0:                                 # %entry
	addl	$36, increment_me(%rip)
	retq
.Lfunc_end426:
	.size	_ZN15CSSPropertyAPI98method27Ev, .Lfunc_end426-_ZN15CSSPropertyAPI98method27Ev
	.cfi_endproc
                                        # -- End function
	.globl	_ZN15CSSPropertyAPI98method28Ev # -- Begin function _ZN15CSSPropertyAPI98method28Ev
	.p2align	4, 0x90
	.type	_ZN15CSSPropertyAPI98method28Ev,@function
_ZN15CSSPropertyAPI98method28Ev:        # @_ZN15CSSPropertyAPI98method28Ev
	.cfi_startproc
# BB#0:                                 # %entry
	addl	$37, increment_me(%rip)
	retq
.Lfunc_end427:
	.size	_ZN15CSSPropertyAPI98method28Ev, .Lfunc_end427-_ZN15CSSPropertyAPI98method28Ev
	.cfi_endproc
                                        # -- End function
	.globl	_ZN15CSSPropertyAPI98method29Ev # -- Begin function _ZN15CSSPropertyAPI98method29Ev
	.p2align	4, 0x90
	.type	_ZN15CSSPropertyAPI98method29Ev,@function
_ZN15CSSPropertyAPI98method29Ev:        # @_ZN15CSSPropertyAPI98method29Ev
	.cfi_startproc
# BB#0:                                 # %entry
	addl	$38, increment_me(%rip)
	retq
.Lfunc_end428:
	.size	_ZN15CSSPropertyAPI98method29Ev, .Lfunc_end428-_ZN15CSSPropertyAPI98method29Ev
	.cfi_endproc
                                        # -- End function
	.globl	_ZN15CSSPropertyAPI98method30Ev # -- Begin function _ZN15CSSPropertyAPI98method30Ev
	.p2align	4, 0x90
	.type	_ZN15CSSPropertyAPI98method30Ev,@function
_ZN15CSSPropertyAPI98method30Ev:        # @_ZN15CSSPropertyAPI98method30Ev
	.cfi_startproc
# BB#0:                                 # %entry
	addl	$39, increment_me(%rip)
	retq
.Lfunc_end429:
	.size	_ZN15CSSPropertyAPI98method30Ev, .Lfunc_end429-_ZN15CSSPropertyAPI98method30Ev
	.cfi_endproc
                                        # -- End function
	.globl	_ZN15CSSPropertyAPI98method31Ev # -- Begin function _ZN15CSSPropertyAPI98method31Ev
	.p2align	4, 0x90
	.type	_ZN15CSSPropertyAPI98method31Ev,@function
_ZN15CSSPropertyAPI98method31Ev:        # @_ZN15CSSPropertyAPI98method31Ev
	.cfi_startproc
# BB#0:                                 # %entry
	addl	$40, increment_me(%rip)
	retq
.Lfunc_end430:
	.size	_ZN15CSSPropertyAPI98method31Ev, .Lfunc_end430-_ZN15CSSPropertyAPI98method31Ev
	.cfi_endproc
                                        # -- End function
	.globl	_ZN15CSSPropertyAPI98method32Ev # -- Begin function _ZN15CSSPropertyAPI98method32Ev
	.p2align	4, 0x90
	.type	_ZN15CSSPropertyAPI98method32Ev,@function
_ZN15CSSPropertyAPI98method32Ev:        # @_ZN15CSSPropertyAPI98method32Ev
	.cfi_startproc
# BB#0:                                 # %entry
	addl	$41, increment_me(%rip)
	retq
.Lfunc_end431:
	.size	_ZN15CSSPropertyAPI98method32Ev, .Lfunc_end431-_ZN15CSSPropertyAPI98method32Ev
	.cfi_endproc
                                        # -- End function
	.globl	_ZN15CSSPropertyAPI98method33Ev # -- Begin function _ZN15CSSPropertyAPI98method33Ev
	.p2align	4, 0x90
	.type	_ZN15CSSPropertyAPI98method33Ev,@function
_ZN15CSSPropertyAPI98method33Ev:        # @_ZN15CSSPropertyAPI98method33Ev
	.cfi_startproc
# BB#0:                                 # %entry
	addl	$42, increment_me(%rip)
	retq
.Lfunc_end432:
	.size	_ZN15CSSPropertyAPI98method33Ev, .Lfunc_end432-_ZN15CSSPropertyAPI98method33Ev
	.cfi_endproc
                                        # -- End function
	.globl	_ZN15CSSPropertyAPI98method34Ev # -- Begin function _ZN15CSSPropertyAPI98method34Ev
	.p2align	4, 0x90
	.type	_ZN15CSSPropertyAPI98method34Ev,@function
_ZN15CSSPropertyAPI98method34Ev:        # @_ZN15CSSPropertyAPI98method34Ev
	.cfi_startproc
# BB#0:                                 # %entry
	addl	$43, increment_me(%rip)
	retq
.Lfunc_end433:
	.size	_ZN15CSSPropertyAPI98method34Ev, .Lfunc_end433-_ZN15CSSPropertyAPI98method34Ev
	.cfi_endproc
                                        # -- End function
	.globl	_ZN15CSSPropertyAPI98method35Ev # -- Begin function _ZN15CSSPropertyAPI98method35Ev
	.p2align	4, 0x90
	.type	_ZN15CSSPropertyAPI98method35Ev,@function
_ZN15CSSPropertyAPI98method35Ev:        # @_ZN15CSSPropertyAPI98method35Ev
	.cfi_startproc
# BB#0:                                 # %entry
	addl	$44, increment_me(%rip)
	retq
.Lfunc_end434:
	.size	_ZN15CSSPropertyAPI98method35Ev, .Lfunc_end434-_ZN15CSSPropertyAPI98method35Ev
	.cfi_endproc
                                        # -- End function
	.globl	_ZN15CSSPropertyAPI98method36Ev # -- Begin function _ZN15CSSPropertyAPI98method36Ev
	.p2align	4, 0x90
	.type	_ZN15CSSPropertyAPI98method36Ev,@function
_ZN15CSSPropertyAPI98method36Ev:        # @_ZN15CSSPropertyAPI98method36Ev
	.cfi_startproc
# BB#0:                                 # %entry
	addl	$45, increment_me(%rip)
	retq
.Lfunc_end435:
	.size	_ZN15CSSPropertyAPI98method36Ev, .Lfunc_end435-_ZN15CSSPropertyAPI98method36Ev
	.cfi_endproc
                                        # -- End function
	.globl	_ZN15CSSPropertyAPI98method37Ev # -- Begin function _ZN15CSSPropertyAPI98method37Ev
	.p2align	4, 0x90
	.type	_ZN15CSSPropertyAPI98method37Ev,@function
_ZN15CSSPropertyAPI98method37Ev:        # @_ZN15CSSPropertyAPI98method37Ev
	.cfi_startproc
# BB#0:                                 # %entry
	addl	$46, increment_me(%rip)
	retq
.Lfunc_end436:
	.size	_ZN15CSSPropertyAPI98method37Ev, .Lfunc_end436-_ZN15CSSPropertyAPI98method37Ev
	.cfi_endproc
                                        # -- End function
	.globl	_ZN15CSSPropertyAPI98method38Ev # -- Begin function _ZN15CSSPropertyAPI98method38Ev
	.p2align	4, 0x90
	.type	_ZN15CSSPropertyAPI98method38Ev,@function
_ZN15CSSPropertyAPI98method38Ev:        # @_ZN15CSSPropertyAPI98method38Ev
	.cfi_startproc
# BB#0:                                 # %entry
	addl	$47, increment_me(%rip)
	retq
.Lfunc_end437:
	.size	_ZN15CSSPropertyAPI98method38Ev, .Lfunc_end437-_ZN15CSSPropertyAPI98method38Ev
	.cfi_endproc
                                        # -- End function
	.globl	_ZN15CSSPropertyAPI98method39Ev # -- Begin function _ZN15CSSPropertyAPI98method39Ev
	.p2align	4, 0x90
	.type	_ZN15CSSPropertyAPI98method39Ev,@function
_ZN15CSSPropertyAPI98method39Ev:        # @_ZN15CSSPropertyAPI98method39Ev
	.cfi_startproc
# BB#0:                                 # %entry
	addl	$48, increment_me(%rip)
	retq
.Lfunc_end438:
	.size	_ZN15CSSPropertyAPI98method39Ev, .Lfunc_end438-_ZN15CSSPropertyAPI98method39Ev
	.cfi_endproc
                                        # -- End function
	.globl	_ZN15CSSPropertyAPI98method40Ev # -- Begin function _ZN15CSSPropertyAPI98method40Ev
	.p2align	4, 0x90
	.type	_ZN15CSSPropertyAPI98method40Ev,@function
_ZN15CSSPropertyAPI98method40Ev:        # @_ZN15CSSPropertyAPI98method40Ev
	.cfi_startproc
# BB#0:                                 # %entry
	addl	$49, increment_me(%rip)
	retq
.Lfunc_end439:
	.size	_ZN15CSSPropertyAPI98method40Ev, .Lfunc_end439-_ZN15CSSPropertyAPI98method40Ev
	.cfi_endproc
                                        # -- End function
	.globl	_ZN15CSSPropertyAPI98method41Ev # -- Begin function _ZN15CSSPropertyAPI98method41Ev
	.p2align	4, 0x90
	.type	_ZN15CSSPropertyAPI98method41Ev,@function
_ZN15CSSPropertyAPI98method41Ev:        # @_ZN15CSSPropertyAPI98method41Ev
	.cfi_startproc
# BB#0:                                 # %entry
	addl	$50, increment_me(%rip)
	retq
.Lfunc_end440:
	.size	_ZN15CSSPropertyAPI98method41Ev, .Lfunc_end440-_ZN15CSSPropertyAPI98method41Ev
	.cfi_endproc
                                        # -- End function
	.globl	_ZN15CSSPropertyAPI98method42Ev # -- Begin function _ZN15CSSPropertyAPI98method42Ev
	.p2align	4, 0x90
	.type	_ZN15CSSPropertyAPI98method42Ev,@function
_ZN15CSSPropertyAPI98method42Ev:        # @_ZN15CSSPropertyAPI98method42Ev
	.cfi_startproc
# BB#0:                                 # %entry
	addl	$51, increment_me(%rip)
	retq
.Lfunc_end441:
	.size	_ZN15CSSPropertyAPI98method42Ev, .Lfunc_end441-_ZN15CSSPropertyAPI98method42Ev
	.cfi_endproc
                                        # -- End function
	.globl	_ZN15CSSPropertyAPI98method43Ev # -- Begin function _ZN15CSSPropertyAPI98method43Ev
	.p2align	4, 0x90
	.type	_ZN15CSSPropertyAPI98method43Ev,@function
_ZN15CSSPropertyAPI98method43Ev:        # @_ZN15CSSPropertyAPI98method43Ev
	.cfi_startproc
# BB#0:                                 # %entry
	addl	$52, increment_me(%rip)
	retq
.Lfunc_end442:
	.size	_ZN15CSSPropertyAPI98method43Ev, .Lfunc_end442-_ZN15CSSPropertyAPI98method43Ev
	.cfi_endproc
                                        # -- End function
	.globl	_ZN15CSSPropertyAPI98method44Ev # -- Begin function _ZN15CSSPropertyAPI98method44Ev
	.p2align	4, 0x90
	.type	_ZN15CSSPropertyAPI98method44Ev,@function
_ZN15CSSPropertyAPI98method44Ev:        # @_ZN15CSSPropertyAPI98method44Ev
	.cfi_startproc
# BB#0:                                 # %entry
	addl	$53, increment_me(%rip)
	retq
.Lfunc_end443:
	.size	_ZN15CSSPropertyAPI98method44Ev, .Lfunc_end443-_ZN15CSSPropertyAPI98method44Ev
	.cfi_endproc
                                        # -- End function
	.globl	_ZN15CSSPropertyAPI98method45Ev # -- Begin function _ZN15CSSPropertyAPI98method45Ev
	.p2align	4, 0x90
	.type	_ZN15CSSPropertyAPI98method45Ev,@function
_ZN15CSSPropertyAPI98method45Ev:        # @_ZN15CSSPropertyAPI98method45Ev
	.cfi_startproc
# BB#0:                                 # %entry
	addl	$54, increment_me(%rip)
	retq
.Lfunc_end444:
	.size	_ZN15CSSPropertyAPI98method45Ev, .Lfunc_end444-_ZN15CSSPropertyAPI98method45Ev
	.cfi_endproc
                                        # -- End function
	.globl	_ZN15CSSPropertyAPI98method46Ev # -- Begin function _ZN15CSSPropertyAPI98method46Ev
	.p2align	4, 0x90
	.type	_ZN15CSSPropertyAPI98method46Ev,@function
_ZN15CSSPropertyAPI98method46Ev:        # @_ZN15CSSPropertyAPI98method46Ev
	.cfi_startproc
# BB#0:                                 # %entry
	addl	$55, increment_me(%rip)
	retq
.Lfunc_end445:
	.size	_ZN15CSSPropertyAPI98method46Ev, .Lfunc_end445-_ZN15CSSPropertyAPI98method46Ev
	.cfi_endproc
                                        # -- End function
	.globl	_ZN15CSSPropertyAPI98method47Ev # -- Begin function _ZN15CSSPropertyAPI98method47Ev
	.p2align	4, 0x90
	.type	_ZN15CSSPropertyAPI98method47Ev,@function
_ZN15CSSPropertyAPI98method47Ev:        # @_ZN15CSSPropertyAPI98method47Ev
	.cfi_startproc
# BB#0:                                 # %entry
	addl	$56, increment_me(%rip)
	retq
.Lfunc_end446:
	.size	_ZN15CSSPropertyAPI98method47Ev, .Lfunc_end446-_ZN15CSSPropertyAPI98method47Ev
	.cfi_endproc
                                        # -- End function
	.globl	_ZN15CSSPropertyAPI98method48Ev # -- Begin function _ZN15CSSPropertyAPI98method48Ev
	.p2align	4, 0x90
	.type	_ZN15CSSPropertyAPI98method48Ev,@function
_ZN15CSSPropertyAPI98method48Ev:        # @_ZN15CSSPropertyAPI98method48Ev
	.cfi_startproc
# BB#0:                                 # %entry
	addl	$57, increment_me(%rip)
	retq
.Lfunc_end447:
	.size	_ZN15CSSPropertyAPI98method48Ev, .Lfunc_end447-_ZN15CSSPropertyAPI98method48Ev
	.cfi_endproc
                                        # -- End function
	.globl	_ZN15CSSPropertyAPI98method49Ev # -- Begin function _ZN15CSSPropertyAPI98method49Ev
	.p2align	4, 0x90
	.type	_ZN15CSSPropertyAPI98method49Ev,@function
_ZN15CSSPropertyAPI98method49Ev:        # @_ZN15CSSPropertyAPI98method49Ev
	.cfi_startproc
# BB#0:                                 # %entry
	addl	$58, increment_me(%rip)
	retq
.Lfunc_end448:
	.size	_ZN15CSSPropertyAPI98method49Ev, .Lfunc_end448-_ZN15CSSPropertyAPI98method49Ev
	.cfi_endproc
                                        # -- End function
	.globl	_ZN15CSSPropertyAPI98method50Ev # -- Begin function _ZN15CSSPropertyAPI98method50Ev
	.p2align	4, 0x90
	.type	_ZN15CSSPropertyAPI98method50Ev,@function
_ZN15CSSPropertyAPI98method50Ev:        # @_ZN15CSSPropertyAPI98method50Ev
	.cfi_startproc
# BB#0:                                 # %entry
	addl	$59, increment_me(%rip)
	retq
.Lfunc_end449:
	.size	_ZN15CSSPropertyAPI98method50Ev, .Lfunc_end449-_ZN15CSSPropertyAPI98method50Ev
	.cfi_endproc
                                        # -- End function
	.globl	_ZN16CSSPropertyAPI107method1Ev # -- Begin function _ZN16CSSPropertyAPI107method1Ev
	.p2align	4, 0x90
	.type	_ZN16CSSPropertyAPI107method1Ev,@function
_ZN16CSSPropertyAPI107method1Ev:        # @_ZN16CSSPropertyAPI107method1Ev
	.cfi_startproc
# BB#0:                                 # %entry
	addl	$11, increment_me(%rip)
	retq
.Lfunc_end450:
	.size	_ZN16CSSPropertyAPI107method1Ev, .Lfunc_end450-_ZN16CSSPropertyAPI107method1Ev
	.cfi_endproc
                                        # -- End function
	.globl	_ZN16CSSPropertyAPI107method2Ev # -- Begin function _ZN16CSSPropertyAPI107method2Ev
	.p2align	4, 0x90
	.type	_ZN16CSSPropertyAPI107method2Ev,@function
_ZN16CSSPropertyAPI107method2Ev:        # @_ZN16CSSPropertyAPI107method2Ev
	.cfi_startproc
# BB#0:                                 # %entry
	addl	$12, increment_me(%rip)
	retq
.Lfunc_end451:
	.size	_ZN16CSSPropertyAPI107method2Ev, .Lfunc_end451-_ZN16CSSPropertyAPI107method2Ev
	.cfi_endproc
                                        # -- End function
	.globl	_ZN16CSSPropertyAPI107method3Ev # -- Begin function _ZN16CSSPropertyAPI107method3Ev
	.p2align	4, 0x90
	.type	_ZN16CSSPropertyAPI107method3Ev,@function
_ZN16CSSPropertyAPI107method3Ev:        # @_ZN16CSSPropertyAPI107method3Ev
	.cfi_startproc
# BB#0:                                 # %entry
	addl	$13, increment_me(%rip)
	retq
.Lfunc_end452:
	.size	_ZN16CSSPropertyAPI107method3Ev, .Lfunc_end452-_ZN16CSSPropertyAPI107method3Ev
	.cfi_endproc
                                        # -- End function
	.globl	_ZN16CSSPropertyAPI107method4Ev # -- Begin function _ZN16CSSPropertyAPI107method4Ev
	.p2align	4, 0x90
	.type	_ZN16CSSPropertyAPI107method4Ev,@function
_ZN16CSSPropertyAPI107method4Ev:        # @_ZN16CSSPropertyAPI107method4Ev
	.cfi_startproc
# BB#0:                                 # %entry
	addl	$14, increment_me(%rip)
	retq
.Lfunc_end453:
	.size	_ZN16CSSPropertyAPI107method4Ev, .Lfunc_end453-_ZN16CSSPropertyAPI107method4Ev
	.cfi_endproc
                                        # -- End function
	.globl	_ZN16CSSPropertyAPI107method5Ev # -- Begin function _ZN16CSSPropertyAPI107method5Ev
	.p2align	4, 0x90
	.type	_ZN16CSSPropertyAPI107method5Ev,@function
_ZN16CSSPropertyAPI107method5Ev:        # @_ZN16CSSPropertyAPI107method5Ev
	.cfi_startproc
# BB#0:                                 # %entry
	addl	$15, increment_me(%rip)
	retq
.Lfunc_end454:
	.size	_ZN16CSSPropertyAPI107method5Ev, .Lfunc_end454-_ZN16CSSPropertyAPI107method5Ev
	.cfi_endproc
                                        # -- End function
	.globl	_ZN16CSSPropertyAPI107method6Ev # -- Begin function _ZN16CSSPropertyAPI107method6Ev
	.p2align	4, 0x90
	.type	_ZN16CSSPropertyAPI107method6Ev,@function
_ZN16CSSPropertyAPI107method6Ev:        # @_ZN16CSSPropertyAPI107method6Ev
	.cfi_startproc
# BB#0:                                 # %entry
	addl	$16, increment_me(%rip)
	retq
.Lfunc_end455:
	.size	_ZN16CSSPropertyAPI107method6Ev, .Lfunc_end455-_ZN16CSSPropertyAPI107method6Ev
	.cfi_endproc
                                        # -- End function
	.globl	_ZN16CSSPropertyAPI107method7Ev # -- Begin function _ZN16CSSPropertyAPI107method7Ev
	.p2align	4, 0x90
	.type	_ZN16CSSPropertyAPI107method7Ev,@function
_ZN16CSSPropertyAPI107method7Ev:        # @_ZN16CSSPropertyAPI107method7Ev
	.cfi_startproc
# BB#0:                                 # %entry
	addl	$17, increment_me(%rip)
	retq
.Lfunc_end456:
	.size	_ZN16CSSPropertyAPI107method7Ev, .Lfunc_end456-_ZN16CSSPropertyAPI107method7Ev
	.cfi_endproc
                                        # -- End function
	.globl	_ZN16CSSPropertyAPI107method8Ev # -- Begin function _ZN16CSSPropertyAPI107method8Ev
	.p2align	4, 0x90
	.type	_ZN16CSSPropertyAPI107method8Ev,@function
_ZN16CSSPropertyAPI107method8Ev:        # @_ZN16CSSPropertyAPI107method8Ev
	.cfi_startproc
# BB#0:                                 # %entry
	addl	$18, increment_me(%rip)
	retq
.Lfunc_end457:
	.size	_ZN16CSSPropertyAPI107method8Ev, .Lfunc_end457-_ZN16CSSPropertyAPI107method8Ev
	.cfi_endproc
                                        # -- End function
	.globl	_ZN16CSSPropertyAPI107method9Ev # -- Begin function _ZN16CSSPropertyAPI107method9Ev
	.p2align	4, 0x90
	.type	_ZN16CSSPropertyAPI107method9Ev,@function
_ZN16CSSPropertyAPI107method9Ev:        # @_ZN16CSSPropertyAPI107method9Ev
	.cfi_startproc
# BB#0:                                 # %entry
	addl	$19, increment_me(%rip)
	retq
.Lfunc_end458:
	.size	_ZN16CSSPropertyAPI107method9Ev, .Lfunc_end458-_ZN16CSSPropertyAPI107method9Ev
	.cfi_endproc
                                        # -- End function
	.globl	_ZN16CSSPropertyAPI108method10Ev # -- Begin function _ZN16CSSPropertyAPI108method10Ev
	.p2align	4, 0x90
	.type	_ZN16CSSPropertyAPI108method10Ev,@function
_ZN16CSSPropertyAPI108method10Ev:       # @_ZN16CSSPropertyAPI108method10Ev
	.cfi_startproc
# BB#0:                                 # %entry
	addl	$20, increment_me(%rip)
	retq
.Lfunc_end459:
	.size	_ZN16CSSPropertyAPI108method10Ev, .Lfunc_end459-_ZN16CSSPropertyAPI108method10Ev
	.cfi_endproc
                                        # -- End function
	.globl	_ZN16CSSPropertyAPI108method11Ev # -- Begin function _ZN16CSSPropertyAPI108method11Ev
	.p2align	4, 0x90
	.type	_ZN16CSSPropertyAPI108method11Ev,@function
_ZN16CSSPropertyAPI108method11Ev:       # @_ZN16CSSPropertyAPI108method11Ev
	.cfi_startproc
# BB#0:                                 # %entry
	addl	$21, increment_me(%rip)
	retq
.Lfunc_end460:
	.size	_ZN16CSSPropertyAPI108method11Ev, .Lfunc_end460-_ZN16CSSPropertyAPI108method11Ev
	.cfi_endproc
                                        # -- End function
	.globl	_ZN16CSSPropertyAPI108method12Ev # -- Begin function _ZN16CSSPropertyAPI108method12Ev
	.p2align	4, 0x90
	.type	_ZN16CSSPropertyAPI108method12Ev,@function
_ZN16CSSPropertyAPI108method12Ev:       # @_ZN16CSSPropertyAPI108method12Ev
	.cfi_startproc
# BB#0:                                 # %entry
	addl	$22, increment_me(%rip)
	retq
.Lfunc_end461:
	.size	_ZN16CSSPropertyAPI108method12Ev, .Lfunc_end461-_ZN16CSSPropertyAPI108method12Ev
	.cfi_endproc
                                        # -- End function
	.globl	_ZN16CSSPropertyAPI108method13Ev # -- Begin function _ZN16CSSPropertyAPI108method13Ev
	.p2align	4, 0x90
	.type	_ZN16CSSPropertyAPI108method13Ev,@function
_ZN16CSSPropertyAPI108method13Ev:       # @_ZN16CSSPropertyAPI108method13Ev
	.cfi_startproc
# BB#0:                                 # %entry
	addl	$23, increment_me(%rip)
	retq
.Lfunc_end462:
	.size	_ZN16CSSPropertyAPI108method13Ev, .Lfunc_end462-_ZN16CSSPropertyAPI108method13Ev
	.cfi_endproc
                                        # -- End function
	.globl	_ZN16CSSPropertyAPI108method14Ev # -- Begin function _ZN16CSSPropertyAPI108method14Ev
	.p2align	4, 0x90
	.type	_ZN16CSSPropertyAPI108method14Ev,@function
_ZN16CSSPropertyAPI108method14Ev:       # @_ZN16CSSPropertyAPI108method14Ev
	.cfi_startproc
# BB#0:                                 # %entry
	addl	$24, increment_me(%rip)
	retq
.Lfunc_end463:
	.size	_ZN16CSSPropertyAPI108method14Ev, .Lfunc_end463-_ZN16CSSPropertyAPI108method14Ev
	.cfi_endproc
                                        # -- End function
	.globl	_ZN16CSSPropertyAPI108method15Ev # -- Begin function _ZN16CSSPropertyAPI108method15Ev
	.p2align	4, 0x90
	.type	_ZN16CSSPropertyAPI108method15Ev,@function
_ZN16CSSPropertyAPI108method15Ev:       # @_ZN16CSSPropertyAPI108method15Ev
	.cfi_startproc
# BB#0:                                 # %entry
	addl	$25, increment_me(%rip)
	retq
.Lfunc_end464:
	.size	_ZN16CSSPropertyAPI108method15Ev, .Lfunc_end464-_ZN16CSSPropertyAPI108method15Ev
	.cfi_endproc
                                        # -- End function
	.globl	_ZN16CSSPropertyAPI108method16Ev # -- Begin function _ZN16CSSPropertyAPI108method16Ev
	.p2align	4, 0x90
	.type	_ZN16CSSPropertyAPI108method16Ev,@function
_ZN16CSSPropertyAPI108method16Ev:       # @_ZN16CSSPropertyAPI108method16Ev
	.cfi_startproc
# BB#0:                                 # %entry
	addl	$26, increment_me(%rip)
	retq
.Lfunc_end465:
	.size	_ZN16CSSPropertyAPI108method16Ev, .Lfunc_end465-_ZN16CSSPropertyAPI108method16Ev
	.cfi_endproc
                                        # -- End function
	.globl	_ZN16CSSPropertyAPI108method17Ev # -- Begin function _ZN16CSSPropertyAPI108method17Ev
	.p2align	4, 0x90
	.type	_ZN16CSSPropertyAPI108method17Ev,@function
_ZN16CSSPropertyAPI108method17Ev:       # @_ZN16CSSPropertyAPI108method17Ev
	.cfi_startproc
# BB#0:                                 # %entry
	addl	$27, increment_me(%rip)
	retq
.Lfunc_end466:
	.size	_ZN16CSSPropertyAPI108method17Ev, .Lfunc_end466-_ZN16CSSPropertyAPI108method17Ev
	.cfi_endproc
                                        # -- End function
	.globl	_ZN16CSSPropertyAPI108method18Ev # -- Begin function _ZN16CSSPropertyAPI108method18Ev
	.p2align	4, 0x90
	.type	_ZN16CSSPropertyAPI108method18Ev,@function
_ZN16CSSPropertyAPI108method18Ev:       # @_ZN16CSSPropertyAPI108method18Ev
	.cfi_startproc
# BB#0:                                 # %entry
	addl	$28, increment_me(%rip)
	retq
.Lfunc_end467:
	.size	_ZN16CSSPropertyAPI108method18Ev, .Lfunc_end467-_ZN16CSSPropertyAPI108method18Ev
	.cfi_endproc
                                        # -- End function
	.globl	_ZN16CSSPropertyAPI108method19Ev # -- Begin function _ZN16CSSPropertyAPI108method19Ev
	.p2align	4, 0x90
	.type	_ZN16CSSPropertyAPI108method19Ev,@function
_ZN16CSSPropertyAPI108method19Ev:       # @_ZN16CSSPropertyAPI108method19Ev
	.cfi_startproc
# BB#0:                                 # %entry
	addl	$29, increment_me(%rip)
	retq
.Lfunc_end468:
	.size	_ZN16CSSPropertyAPI108method19Ev, .Lfunc_end468-_ZN16CSSPropertyAPI108method19Ev
	.cfi_endproc
                                        # -- End function
	.globl	_ZN16CSSPropertyAPI108method20Ev # -- Begin function _ZN16CSSPropertyAPI108method20Ev
	.p2align	4, 0x90
	.type	_ZN16CSSPropertyAPI108method20Ev,@function
_ZN16CSSPropertyAPI108method20Ev:       # @_ZN16CSSPropertyAPI108method20Ev
	.cfi_startproc
# BB#0:                                 # %entry
	addl	$30, increment_me(%rip)
	retq
.Lfunc_end469:
	.size	_ZN16CSSPropertyAPI108method20Ev, .Lfunc_end469-_ZN16CSSPropertyAPI108method20Ev
	.cfi_endproc
                                        # -- End function
	.globl	_ZN16CSSPropertyAPI108method21Ev # -- Begin function _ZN16CSSPropertyAPI108method21Ev
	.p2align	4, 0x90
	.type	_ZN16CSSPropertyAPI108method21Ev,@function
_ZN16CSSPropertyAPI108method21Ev:       # @_ZN16CSSPropertyAPI108method21Ev
	.cfi_startproc
# BB#0:                                 # %entry
	addl	$31, increment_me(%rip)
	retq
.Lfunc_end470:
	.size	_ZN16CSSPropertyAPI108method21Ev, .Lfunc_end470-_ZN16CSSPropertyAPI108method21Ev
	.cfi_endproc
                                        # -- End function
	.globl	_ZN16CSSPropertyAPI108method22Ev # -- Begin function _ZN16CSSPropertyAPI108method22Ev
	.p2align	4, 0x90
	.type	_ZN16CSSPropertyAPI108method22Ev,@function
_ZN16CSSPropertyAPI108method22Ev:       # @_ZN16CSSPropertyAPI108method22Ev
	.cfi_startproc
# BB#0:                                 # %entry
	addl	$32, increment_me(%rip)
	retq
.Lfunc_end471:
	.size	_ZN16CSSPropertyAPI108method22Ev, .Lfunc_end471-_ZN16CSSPropertyAPI108method22Ev
	.cfi_endproc
                                        # -- End function
	.globl	_ZN16CSSPropertyAPI108method23Ev # -- Begin function _ZN16CSSPropertyAPI108method23Ev
	.p2align	4, 0x90
	.type	_ZN16CSSPropertyAPI108method23Ev,@function
_ZN16CSSPropertyAPI108method23Ev:       # @_ZN16CSSPropertyAPI108method23Ev
	.cfi_startproc
# BB#0:                                 # %entry
	addl	$33, increment_me(%rip)
	retq
.Lfunc_end472:
	.size	_ZN16CSSPropertyAPI108method23Ev, .Lfunc_end472-_ZN16CSSPropertyAPI108method23Ev
	.cfi_endproc
                                        # -- End function
	.globl	_ZN16CSSPropertyAPI108method24Ev # -- Begin function _ZN16CSSPropertyAPI108method24Ev
	.p2align	4, 0x90
	.type	_ZN16CSSPropertyAPI108method24Ev,@function
_ZN16CSSPropertyAPI108method24Ev:       # @_ZN16CSSPropertyAPI108method24Ev
	.cfi_startproc
# BB#0:                                 # %entry
	addl	$34, increment_me(%rip)
	retq
.Lfunc_end473:
	.size	_ZN16CSSPropertyAPI108method24Ev, .Lfunc_end473-_ZN16CSSPropertyAPI108method24Ev
	.cfi_endproc
                                        # -- End function
	.globl	_ZN16CSSPropertyAPI108method25Ev # -- Begin function _ZN16CSSPropertyAPI108method25Ev
	.p2align	4, 0x90
	.type	_ZN16CSSPropertyAPI108method25Ev,@function
_ZN16CSSPropertyAPI108method25Ev:       # @_ZN16CSSPropertyAPI108method25Ev
	.cfi_startproc
# BB#0:                                 # %entry
	addl	$35, increment_me(%rip)
	retq
.Lfunc_end474:
	.size	_ZN16CSSPropertyAPI108method25Ev, .Lfunc_end474-_ZN16CSSPropertyAPI108method25Ev
	.cfi_endproc
                                        # -- End function
	.globl	_ZN16CSSPropertyAPI108method26Ev # -- Begin function _ZN16CSSPropertyAPI108method26Ev
	.p2align	4, 0x90
	.type	_ZN16CSSPropertyAPI108method26Ev,@function
_ZN16CSSPropertyAPI108method26Ev:       # @_ZN16CSSPropertyAPI108method26Ev
	.cfi_startproc
# BB#0:                                 # %entry
	addl	$36, increment_me(%rip)
	retq
.Lfunc_end475:
	.size	_ZN16CSSPropertyAPI108method26Ev, .Lfunc_end475-_ZN16CSSPropertyAPI108method26Ev
	.cfi_endproc
                                        # -- End function
	.globl	_ZN16CSSPropertyAPI108method27Ev # -- Begin function _ZN16CSSPropertyAPI108method27Ev
	.p2align	4, 0x90
	.type	_ZN16CSSPropertyAPI108method27Ev,@function
_ZN16CSSPropertyAPI108method27Ev:       # @_ZN16CSSPropertyAPI108method27Ev
	.cfi_startproc
# BB#0:                                 # %entry
	addl	$37, increment_me(%rip)
	retq
.Lfunc_end476:
	.size	_ZN16CSSPropertyAPI108method27Ev, .Lfunc_end476-_ZN16CSSPropertyAPI108method27Ev
	.cfi_endproc
                                        # -- End function
	.globl	_ZN16CSSPropertyAPI108method28Ev # -- Begin function _ZN16CSSPropertyAPI108method28Ev
	.p2align	4, 0x90
	.type	_ZN16CSSPropertyAPI108method28Ev,@function
_ZN16CSSPropertyAPI108method28Ev:       # @_ZN16CSSPropertyAPI108method28Ev
	.cfi_startproc
# BB#0:                                 # %entry
	addl	$38, increment_me(%rip)
	retq
.Lfunc_end477:
	.size	_ZN16CSSPropertyAPI108method28Ev, .Lfunc_end477-_ZN16CSSPropertyAPI108method28Ev
	.cfi_endproc
                                        # -- End function
	.globl	_ZN16CSSPropertyAPI108method29Ev # -- Begin function _ZN16CSSPropertyAPI108method29Ev
	.p2align	4, 0x90
	.type	_ZN16CSSPropertyAPI108method29Ev,@function
_ZN16CSSPropertyAPI108method29Ev:       # @_ZN16CSSPropertyAPI108method29Ev
	.cfi_startproc
# BB#0:                                 # %entry
	addl	$39, increment_me(%rip)
	retq
.Lfunc_end478:
	.size	_ZN16CSSPropertyAPI108method29Ev, .Lfunc_end478-_ZN16CSSPropertyAPI108method29Ev
	.cfi_endproc
                                        # -- End function
	.globl	_ZN16CSSPropertyAPI108method30Ev # -- Begin function _ZN16CSSPropertyAPI108method30Ev
	.p2align	4, 0x90
	.type	_ZN16CSSPropertyAPI108method30Ev,@function
_ZN16CSSPropertyAPI108method30Ev:       # @_ZN16CSSPropertyAPI108method30Ev
	.cfi_startproc
# BB#0:                                 # %entry
	addl	$40, increment_me(%rip)
	retq
.Lfunc_end479:
	.size	_ZN16CSSPropertyAPI108method30Ev, .Lfunc_end479-_ZN16CSSPropertyAPI108method30Ev
	.cfi_endproc
                                        # -- End function
	.globl	_ZN16CSSPropertyAPI108method31Ev # -- Begin function _ZN16CSSPropertyAPI108method31Ev
	.p2align	4, 0x90
	.type	_ZN16CSSPropertyAPI108method31Ev,@function
_ZN16CSSPropertyAPI108method31Ev:       # @_ZN16CSSPropertyAPI108method31Ev
	.cfi_startproc
# BB#0:                                 # %entry
	addl	$41, increment_me(%rip)
	retq
.Lfunc_end480:
	.size	_ZN16CSSPropertyAPI108method31Ev, .Lfunc_end480-_ZN16CSSPropertyAPI108method31Ev
	.cfi_endproc
                                        # -- End function
	.globl	_ZN16CSSPropertyAPI108method32Ev # -- Begin function _ZN16CSSPropertyAPI108method32Ev
	.p2align	4, 0x90
	.type	_ZN16CSSPropertyAPI108method32Ev,@function
_ZN16CSSPropertyAPI108method32Ev:       # @_ZN16CSSPropertyAPI108method32Ev
	.cfi_startproc
# BB#0:                                 # %entry
	addl	$42, increment_me(%rip)
	retq
.Lfunc_end481:
	.size	_ZN16CSSPropertyAPI108method32Ev, .Lfunc_end481-_ZN16CSSPropertyAPI108method32Ev
	.cfi_endproc
                                        # -- End function
	.globl	_ZN16CSSPropertyAPI108method33Ev # -- Begin function _ZN16CSSPropertyAPI108method33Ev
	.p2align	4, 0x90
	.type	_ZN16CSSPropertyAPI108method33Ev,@function
_ZN16CSSPropertyAPI108method33Ev:       # @_ZN16CSSPropertyAPI108method33Ev
	.cfi_startproc
# BB#0:                                 # %entry
	addl	$43, increment_me(%rip)
	retq
.Lfunc_end482:
	.size	_ZN16CSSPropertyAPI108method33Ev, .Lfunc_end482-_ZN16CSSPropertyAPI108method33Ev
	.cfi_endproc
                                        # -- End function
	.globl	_ZN16CSSPropertyAPI108method34Ev # -- Begin function _ZN16CSSPropertyAPI108method34Ev
	.p2align	4, 0x90
	.type	_ZN16CSSPropertyAPI108method34Ev,@function
_ZN16CSSPropertyAPI108method34Ev:       # @_ZN16CSSPropertyAPI108method34Ev
	.cfi_startproc
# BB#0:                                 # %entry
	addl	$44, increment_me(%rip)
	retq
.Lfunc_end483:
	.size	_ZN16CSSPropertyAPI108method34Ev, .Lfunc_end483-_ZN16CSSPropertyAPI108method34Ev
	.cfi_endproc
                                        # -- End function
	.globl	_ZN16CSSPropertyAPI108method35Ev # -- Begin function _ZN16CSSPropertyAPI108method35Ev
	.p2align	4, 0x90
	.type	_ZN16CSSPropertyAPI108method35Ev,@function
_ZN16CSSPropertyAPI108method35Ev:       # @_ZN16CSSPropertyAPI108method35Ev
	.cfi_startproc
# BB#0:                                 # %entry
	addl	$45, increment_me(%rip)
	retq
.Lfunc_end484:
	.size	_ZN16CSSPropertyAPI108method35Ev, .Lfunc_end484-_ZN16CSSPropertyAPI108method35Ev
	.cfi_endproc
                                        # -- End function
	.globl	_ZN16CSSPropertyAPI108method36Ev # -- Begin function _ZN16CSSPropertyAPI108method36Ev
	.p2align	4, 0x90
	.type	_ZN16CSSPropertyAPI108method36Ev,@function
_ZN16CSSPropertyAPI108method36Ev:       # @_ZN16CSSPropertyAPI108method36Ev
	.cfi_startproc
# BB#0:                                 # %entry
	addl	$46, increment_me(%rip)
	retq
.Lfunc_end485:
	.size	_ZN16CSSPropertyAPI108method36Ev, .Lfunc_end485-_ZN16CSSPropertyAPI108method36Ev
	.cfi_endproc
                                        # -- End function
	.globl	_ZN16CSSPropertyAPI108method37Ev # -- Begin function _ZN16CSSPropertyAPI108method37Ev
	.p2align	4, 0x90
	.type	_ZN16CSSPropertyAPI108method37Ev,@function
_ZN16CSSPropertyAPI108method37Ev:       # @_ZN16CSSPropertyAPI108method37Ev
	.cfi_startproc
# BB#0:                                 # %entry
	addl	$47, increment_me(%rip)
	retq
.Lfunc_end486:
	.size	_ZN16CSSPropertyAPI108method37Ev, .Lfunc_end486-_ZN16CSSPropertyAPI108method37Ev
	.cfi_endproc
                                        # -- End function
	.globl	_ZN16CSSPropertyAPI108method38Ev # -- Begin function _ZN16CSSPropertyAPI108method38Ev
	.p2align	4, 0x90
	.type	_ZN16CSSPropertyAPI108method38Ev,@function
_ZN16CSSPropertyAPI108method38Ev:       # @_ZN16CSSPropertyAPI108method38Ev
	.cfi_startproc
# BB#0:                                 # %entry
	addl	$48, increment_me(%rip)
	retq
.Lfunc_end487:
	.size	_ZN16CSSPropertyAPI108method38Ev, .Lfunc_end487-_ZN16CSSPropertyAPI108method38Ev
	.cfi_endproc
                                        # -- End function
	.globl	_ZN16CSSPropertyAPI108method39Ev # -- Begin function _ZN16CSSPropertyAPI108method39Ev
	.p2align	4, 0x90
	.type	_ZN16CSSPropertyAPI108method39Ev,@function
_ZN16CSSPropertyAPI108method39Ev:       # @_ZN16CSSPropertyAPI108method39Ev
	.cfi_startproc
# BB#0:                                 # %entry
	addl	$49, increment_me(%rip)
	retq
.Lfunc_end488:
	.size	_ZN16CSSPropertyAPI108method39Ev, .Lfunc_end488-_ZN16CSSPropertyAPI108method39Ev
	.cfi_endproc
                                        # -- End function
	.globl	_ZN16CSSPropertyAPI108method40Ev # -- Begin function _ZN16CSSPropertyAPI108method40Ev
	.p2align	4, 0x90
	.type	_ZN16CSSPropertyAPI108method40Ev,@function
_ZN16CSSPropertyAPI108method40Ev:       # @_ZN16CSSPropertyAPI108method40Ev
	.cfi_startproc
# BB#0:                                 # %entry
	addl	$50, increment_me(%rip)
	retq
.Lfunc_end489:
	.size	_ZN16CSSPropertyAPI108method40Ev, .Lfunc_end489-_ZN16CSSPropertyAPI108method40Ev
	.cfi_endproc
                                        # -- End function
	.globl	_ZN16CSSPropertyAPI108method41Ev # -- Begin function _ZN16CSSPropertyAPI108method41Ev
	.p2align	4, 0x90
	.type	_ZN16CSSPropertyAPI108method41Ev,@function
_ZN16CSSPropertyAPI108method41Ev:       # @_ZN16CSSPropertyAPI108method41Ev
	.cfi_startproc
# BB#0:                                 # %entry
	addl	$51, increment_me(%rip)
	retq
.Lfunc_end490:
	.size	_ZN16CSSPropertyAPI108method41Ev, .Lfunc_end490-_ZN16CSSPropertyAPI108method41Ev
	.cfi_endproc
                                        # -- End function
	.globl	_ZN16CSSPropertyAPI108method42Ev # -- Begin function _ZN16CSSPropertyAPI108method42Ev
	.p2align	4, 0x90
	.type	_ZN16CSSPropertyAPI108method42Ev,@function
_ZN16CSSPropertyAPI108method42Ev:       # @_ZN16CSSPropertyAPI108method42Ev
	.cfi_startproc
# BB#0:                                 # %entry
	addl	$52, increment_me(%rip)
	retq
.Lfunc_end491:
	.size	_ZN16CSSPropertyAPI108method42Ev, .Lfunc_end491-_ZN16CSSPropertyAPI108method42Ev
	.cfi_endproc
                                        # -- End function
	.globl	_ZN16CSSPropertyAPI108method43Ev # -- Begin function _ZN16CSSPropertyAPI108method43Ev
	.p2align	4, 0x90
	.type	_ZN16CSSPropertyAPI108method43Ev,@function
_ZN16CSSPropertyAPI108method43Ev:       # @_ZN16CSSPropertyAPI108method43Ev
	.cfi_startproc
# BB#0:                                 # %entry
	addl	$53, increment_me(%rip)
	retq
.Lfunc_end492:
	.size	_ZN16CSSPropertyAPI108method43Ev, .Lfunc_end492-_ZN16CSSPropertyAPI108method43Ev
	.cfi_endproc
                                        # -- End function
	.globl	_ZN16CSSPropertyAPI108method44Ev # -- Begin function _ZN16CSSPropertyAPI108method44Ev
	.p2align	4, 0x90
	.type	_ZN16CSSPropertyAPI108method44Ev,@function
_ZN16CSSPropertyAPI108method44Ev:       # @_ZN16CSSPropertyAPI108method44Ev
	.cfi_startproc
# BB#0:                                 # %entry
	addl	$54, increment_me(%rip)
	retq
.Lfunc_end493:
	.size	_ZN16CSSPropertyAPI108method44Ev, .Lfunc_end493-_ZN16CSSPropertyAPI108method44Ev
	.cfi_endproc
                                        # -- End function
	.globl	_ZN16CSSPropertyAPI108method45Ev # -- Begin function _ZN16CSSPropertyAPI108method45Ev
	.p2align	4, 0x90
	.type	_ZN16CSSPropertyAPI108method45Ev,@function
_ZN16CSSPropertyAPI108method45Ev:       # @_ZN16CSSPropertyAPI108method45Ev
	.cfi_startproc
# BB#0:                                 # %entry
	addl	$55, increment_me(%rip)
	retq
.Lfunc_end494:
	.size	_ZN16CSSPropertyAPI108method45Ev, .Lfunc_end494-_ZN16CSSPropertyAPI108method45Ev
	.cfi_endproc
                                        # -- End function
	.globl	_ZN16CSSPropertyAPI108method46Ev # -- Begin function _ZN16CSSPropertyAPI108method46Ev
	.p2align	4, 0x90
	.type	_ZN16CSSPropertyAPI108method46Ev,@function
_ZN16CSSPropertyAPI108method46Ev:       # @_ZN16CSSPropertyAPI108method46Ev
	.cfi_startproc
# BB#0:                                 # %entry
	addl	$56, increment_me(%rip)
	retq
.Lfunc_end495:
	.size	_ZN16CSSPropertyAPI108method46Ev, .Lfunc_end495-_ZN16CSSPropertyAPI108method46Ev
	.cfi_endproc
                                        # -- End function
	.globl	_ZN16CSSPropertyAPI108method47Ev # -- Begin function _ZN16CSSPropertyAPI108method47Ev
	.p2align	4, 0x90
	.type	_ZN16CSSPropertyAPI108method47Ev,@function
_ZN16CSSPropertyAPI108method47Ev:       # @_ZN16CSSPropertyAPI108method47Ev
	.cfi_startproc
# BB#0:                                 # %entry
	addl	$57, increment_me(%rip)
	retq
.Lfunc_end496:
	.size	_ZN16CSSPropertyAPI108method47Ev, .Lfunc_end496-_ZN16CSSPropertyAPI108method47Ev
	.cfi_endproc
                                        # -- End function
	.globl	_ZN16CSSPropertyAPI108method48Ev # -- Begin function _ZN16CSSPropertyAPI108method48Ev
	.p2align	4, 0x90
	.type	_ZN16CSSPropertyAPI108method48Ev,@function
_ZN16CSSPropertyAPI108method48Ev:       # @_ZN16CSSPropertyAPI108method48Ev
	.cfi_startproc
# BB#0:                                 # %entry
	addl	$58, increment_me(%rip)
	retq
.Lfunc_end497:
	.size	_ZN16CSSPropertyAPI108method48Ev, .Lfunc_end497-_ZN16CSSPropertyAPI108method48Ev
	.cfi_endproc
                                        # -- End function
	.globl	_ZN16CSSPropertyAPI108method49Ev # -- Begin function _ZN16CSSPropertyAPI108method49Ev
	.p2align	4, 0x90
	.type	_ZN16CSSPropertyAPI108method49Ev,@function
_ZN16CSSPropertyAPI108method49Ev:       # @_ZN16CSSPropertyAPI108method49Ev
	.cfi_startproc
# BB#0:                                 # %entry
	addl	$59, increment_me(%rip)
	retq
.Lfunc_end498:
	.size	_ZN16CSSPropertyAPI108method49Ev, .Lfunc_end498-_ZN16CSSPropertyAPI108method49Ev
	.cfi_endproc
                                        # -- End function
	.globl	_ZN16CSSPropertyAPI108method50Ev # -- Begin function _ZN16CSSPropertyAPI108method50Ev
	.p2align	4, 0x90
	.type	_ZN16CSSPropertyAPI108method50Ev,@function
_ZN16CSSPropertyAPI108method50Ev:       # @_ZN16CSSPropertyAPI108method50Ev
	.cfi_startproc
# BB#0:                                 # %entry
	addl	$60, increment_me(%rip)
	retq
.Lfunc_end499:
	.size	_ZN16CSSPropertyAPI108method50Ev, .Lfunc_end499-_ZN16CSSPropertyAPI108method50Ev
	.cfi_endproc
                                        # -- End function
	.globl	_ZN21CSSPropertyDescriptor3GetEi # -- Begin function _ZN21CSSPropertyDescriptor3GetEi
	.p2align	4, 0x90
	.type	_ZN21CSSPropertyDescriptor3GetEi,@function
_ZN21CSSPropertyDescriptor3GetEi:       # @_ZN21CSSPropertyDescriptor3GetEi
	.cfi_startproc
# BB#0:                                 # %entry
	movslq	%edi, %rax
	imulq	$400, _ZL17descriptorIndices(,%rax,8), %rax # imm = 0x190
	leaq	_ZL11descriptors(%rax), %rax
	retq
.Lfunc_end500:
	.size	_ZN21CSSPropertyDescriptor3GetEi, .Lfunc_end500-_ZN21CSSPropertyDescriptor3GetEi
	.cfi_endproc
                                        # -- End function
	.type	increment_me,@object    # @increment_me
	.bss
	.globl	increment_me
	.p2align	2
increment_me:
	.long	0                       # 0x0
	.size	increment_me, 4

	.type	_ZL11descriptors,@object # @_ZL11descriptors
	.section	.rodata,"a",@progbits
	.p2align	4
_ZL11descriptors:
	.quad	_ZN16CSSPropertyAPI107method1Ev
	.quad	_ZN16CSSPropertyAPI107method2Ev
	.quad	_ZN16CSSPropertyAPI107method3Ev
	.quad	_ZN16CSSPropertyAPI107method4Ev
	.quad	_ZN16CSSPropertyAPI107method5Ev
	.quad	_ZN16CSSPropertyAPI107method6Ev
	.quad	_ZN16CSSPropertyAPI107method7Ev
	.quad	_ZN16CSSPropertyAPI107method8Ev
	.quad	_ZN16CSSPropertyAPI107method9Ev
	.quad	_ZN16CSSPropertyAPI108method10Ev
	.quad	_ZN16CSSPropertyAPI108method11Ev
	.quad	_ZN16CSSPropertyAPI108method12Ev
	.quad	_ZN16CSSPropertyAPI108method13Ev
	.quad	_ZN16CSSPropertyAPI108method14Ev
	.quad	_ZN16CSSPropertyAPI108method15Ev
	.quad	_ZN16CSSPropertyAPI108method16Ev
	.quad	_ZN16CSSPropertyAPI108method17Ev
	.quad	_ZN16CSSPropertyAPI108method18Ev
	.quad	_ZN16CSSPropertyAPI108method19Ev
	.quad	_ZN16CSSPropertyAPI108method20Ev
	.quad	_ZN16CSSPropertyAPI108method21Ev
	.quad	_ZN16CSSPropertyAPI108method22Ev
	.quad	_ZN16CSSPropertyAPI108method23Ev
	.quad	_ZN16CSSPropertyAPI108method24Ev
	.quad	_ZN16CSSPropertyAPI108method25Ev
	.quad	_ZN16CSSPropertyAPI108method26Ev
	.quad	_ZN16CSSPropertyAPI108method27Ev
	.quad	_ZN16CSSPropertyAPI108method28Ev
	.quad	_ZN16CSSPropertyAPI108method29Ev
	.quad	_ZN16CSSPropertyAPI108method30Ev
	.quad	_ZN16CSSPropertyAPI108method31Ev
	.quad	_ZN16CSSPropertyAPI108method32Ev
	.quad	_ZN16CSSPropertyAPI108method33Ev
	.quad	_ZN16CSSPropertyAPI108method34Ev
	.quad	_ZN16CSSPropertyAPI108method35Ev
	.quad	_ZN16CSSPropertyAPI108method36Ev
	.quad	_ZN16CSSPropertyAPI108method37Ev
	.quad	_ZN16CSSPropertyAPI108method38Ev
	.quad	_ZN16CSSPropertyAPI108method39Ev
	.quad	_ZN16CSSPropertyAPI108method40Ev
	.quad	_ZN16CSSPropertyAPI108method41Ev
	.quad	_ZN16CSSPropertyAPI108method42Ev
	.quad	_ZN16CSSPropertyAPI108method43Ev
	.quad	_ZN16CSSPropertyAPI108method44Ev
	.quad	_ZN16CSSPropertyAPI108method45Ev
	.quad	_ZN16CSSPropertyAPI108method46Ev
	.quad	_ZN16CSSPropertyAPI108method47Ev
	.quad	_ZN16CSSPropertyAPI108method48Ev
	.quad	_ZN16CSSPropertyAPI108method49Ev
	.quad	_ZN16CSSPropertyAPI108method50Ev
	.quad	_ZN15CSSPropertyAPI77method1Ev
	.quad	_ZN15CSSPropertyAPI77method2Ev
	.quad	_ZN15CSSPropertyAPI77method3Ev
	.quad	_ZN15CSSPropertyAPI77method4Ev
	.quad	_ZN15CSSPropertyAPI77method5Ev
	.quad	_ZN15CSSPropertyAPI77method6Ev
	.quad	_ZN15CSSPropertyAPI77method7Ev
	.quad	_ZN15CSSPropertyAPI77method8Ev
	.quad	_ZN15CSSPropertyAPI77method9Ev
	.quad	_ZN15CSSPropertyAPI78method10Ev
	.quad	_ZN15CSSPropertyAPI78method11Ev
	.quad	_ZN15CSSPropertyAPI78method12Ev
	.quad	_ZN15CSSPropertyAPI78method13Ev
	.quad	_ZN15CSSPropertyAPI78method14Ev
	.quad	_ZN15CSSPropertyAPI78method15Ev
	.quad	_ZN15CSSPropertyAPI78method16Ev
	.quad	_ZN15CSSPropertyAPI78method17Ev
	.quad	_ZN15CSSPropertyAPI78method18Ev
	.quad	_ZN15CSSPropertyAPI78method19Ev
	.quad	_ZN15CSSPropertyAPI78method20Ev
	.quad	_ZN15CSSPropertyAPI78method21Ev
	.quad	_ZN15CSSPropertyAPI78method22Ev
	.quad	_ZN15CSSPropertyAPI78method23Ev
	.quad	_ZN15CSSPropertyAPI78method24Ev
	.quad	_ZN15CSSPropertyAPI78method25Ev
	.quad	_ZN15CSSPropertyAPI78method26Ev
	.quad	_ZN15CSSPropertyAPI78method27Ev
	.quad	_ZN15CSSPropertyAPI78method28Ev
	.quad	_ZN15CSSPropertyAPI78method29Ev
	.quad	_ZN15CSSPropertyAPI78method30Ev
	.quad	_ZN15CSSPropertyAPI78method31Ev
	.quad	_ZN15CSSPropertyAPI78method32Ev
	.quad	_ZN15CSSPropertyAPI78method33Ev
	.quad	_ZN15CSSPropertyAPI78method34Ev
	.quad	_ZN15CSSPropertyAPI78method35Ev
	.quad	_ZN15CSSPropertyAPI78method36Ev
	.quad	_ZN15CSSPropertyAPI78method37Ev
	.quad	_ZN15CSSPropertyAPI78method38Ev
	.quad	_ZN15CSSPropertyAPI78method39Ev
	.quad	_ZN15CSSPropertyAPI78method40Ev
	.quad	_ZN15CSSPropertyAPI78method41Ev
	.quad	_ZN15CSSPropertyAPI78method42Ev
	.quad	_ZN15CSSPropertyAPI78method43Ev
	.quad	_ZN15CSSPropertyAPI78method44Ev
	.quad	_ZN15CSSPropertyAPI78method45Ev
	.quad	_ZN15CSSPropertyAPI78method46Ev
	.quad	_ZN15CSSPropertyAPI78method47Ev
	.quad	_ZN15CSSPropertyAPI78method48Ev
	.quad	_ZN15CSSPropertyAPI78method49Ev
	.quad	_ZN15CSSPropertyAPI78method50Ev
	.zero	400
	.zero	400
	.zero	400
	.quad	_ZN15CSSPropertyAPI17method1Ev
	.quad	_ZN15CSSPropertyAPI17method2Ev
	.quad	_ZN15CSSPropertyAPI17method3Ev
	.quad	_ZN15CSSPropertyAPI17method4Ev
	.quad	_ZN15CSSPropertyAPI17method5Ev
	.quad	_ZN15CSSPropertyAPI17method6Ev
	.quad	_ZN15CSSPropertyAPI17method7Ev
	.quad	_ZN15CSSPropertyAPI17method8Ev
	.quad	_ZN15CSSPropertyAPI17method9Ev
	.quad	_ZN15CSSPropertyAPI18method10Ev
	.quad	_ZN15CSSPropertyAPI18method11Ev
	.quad	_ZN15CSSPropertyAPI18method12Ev
	.quad	_ZN15CSSPropertyAPI18method13Ev
	.quad	_ZN15CSSPropertyAPI18method14Ev
	.quad	_ZN15CSSPropertyAPI18method15Ev
	.quad	_ZN15CSSPropertyAPI18method16Ev
	.quad	_ZN15CSSPropertyAPI18method17Ev
	.quad	_ZN15CSSPropertyAPI18method18Ev
	.quad	_ZN15CSSPropertyAPI18method19Ev
	.quad	_ZN15CSSPropertyAPI18method20Ev
	.quad	_ZN15CSSPropertyAPI18method21Ev
	.quad	_ZN15CSSPropertyAPI18method22Ev
	.quad	_ZN15CSSPropertyAPI18method23Ev
	.quad	_ZN15CSSPropertyAPI18method24Ev
	.quad	_ZN15CSSPropertyAPI18method25Ev
	.quad	_ZN15CSSPropertyAPI18method26Ev
	.quad	_ZN15CSSPropertyAPI18method27Ev
	.quad	_ZN15CSSPropertyAPI18method28Ev
	.quad	_ZN15CSSPropertyAPI18method29Ev
	.quad	_ZN15CSSPropertyAPI18method30Ev
	.quad	_ZN15CSSPropertyAPI18method31Ev
	.quad	_ZN15CSSPropertyAPI18method32Ev
	.quad	_ZN15CSSPropertyAPI18method33Ev
	.quad	_ZN15CSSPropertyAPI18method34Ev
	.quad	_ZN15CSSPropertyAPI18method35Ev
	.quad	_ZN15CSSPropertyAPI18method36Ev
	.quad	_ZN15CSSPropertyAPI18method37Ev
	.quad	_ZN15CSSPropertyAPI18method38Ev
	.quad	_ZN15CSSPropertyAPI18method39Ev
	.quad	_ZN15CSSPropertyAPI18method40Ev
	.quad	_ZN15CSSPropertyAPI18method41Ev
	.quad	_ZN15CSSPropertyAPI18method42Ev
	.quad	_ZN15CSSPropertyAPI18method43Ev
	.quad	_ZN15CSSPropertyAPI18method44Ev
	.quad	_ZN15CSSPropertyAPI18method45Ev
	.quad	_ZN15CSSPropertyAPI18method46Ev
	.quad	_ZN15CSSPropertyAPI18method47Ev
	.quad	_ZN15CSSPropertyAPI18method48Ev
	.quad	_ZN15CSSPropertyAPI18method49Ev
	.quad	_ZN15CSSPropertyAPI18method50Ev
	.quad	_ZN15CSSPropertyAPI47method1Ev
	.quad	_ZN15CSSPropertyAPI47method2Ev
	.quad	_ZN15CSSPropertyAPI47method3Ev
	.quad	_ZN15CSSPropertyAPI47method4Ev
	.quad	_ZN15CSSPropertyAPI47method5Ev
	.quad	_ZN15CSSPropertyAPI47method6Ev
	.quad	_ZN15CSSPropertyAPI47method7Ev
	.quad	_ZN15CSSPropertyAPI47method8Ev
	.quad	_ZN15CSSPropertyAPI47method9Ev
	.quad	_ZN15CSSPropertyAPI48method10Ev
	.quad	_ZN15CSSPropertyAPI48method11Ev
	.quad	_ZN15CSSPropertyAPI48method12Ev
	.quad	_ZN15CSSPropertyAPI48method13Ev
	.quad	_ZN15CSSPropertyAPI48method14Ev
	.quad	_ZN15CSSPropertyAPI48method15Ev
	.quad	_ZN15CSSPropertyAPI48method16Ev
	.quad	_ZN15CSSPropertyAPI48method17Ev
	.quad	_ZN15CSSPropertyAPI48method18Ev
	.quad	_ZN15CSSPropertyAPI48method19Ev
	.quad	_ZN15CSSPropertyAPI48method20Ev
	.quad	_ZN15CSSPropertyAPI48method21Ev
	.quad	_ZN15CSSPropertyAPI48method22Ev
	.quad	_ZN15CSSPropertyAPI48method23Ev
	.quad	_ZN15CSSPropertyAPI48method24Ev
	.quad	_ZN15CSSPropertyAPI48method25Ev
	.quad	_ZN15CSSPropertyAPI48method26Ev
	.quad	_ZN15CSSPropertyAPI48method27Ev
	.quad	_ZN15CSSPropertyAPI48method28Ev
	.quad	_ZN15CSSPropertyAPI48method29Ev
	.quad	_ZN15CSSPropertyAPI48method30Ev
	.quad	_ZN15CSSPropertyAPI48method31Ev
	.quad	_ZN15CSSPropertyAPI48method32Ev
	.quad	_ZN15CSSPropertyAPI48method33Ev
	.quad	_ZN15CSSPropertyAPI48method34Ev
	.quad	_ZN15CSSPropertyAPI48method35Ev
	.quad	_ZN15CSSPropertyAPI48method36Ev
	.quad	_ZN15CSSPropertyAPI48method37Ev
	.quad	_ZN15CSSPropertyAPI48method38Ev
	.quad	_ZN15CSSPropertyAPI48method39Ev
	.quad	_ZN15CSSPropertyAPI48method40Ev
	.quad	_ZN15CSSPropertyAPI48method41Ev
	.quad	_ZN15CSSPropertyAPI48method42Ev
	.quad	_ZN15CSSPropertyAPI48method43Ev
	.quad	_ZN15CSSPropertyAPI48method44Ev
	.quad	_ZN15CSSPropertyAPI48method45Ev
	.quad	_ZN15CSSPropertyAPI48method46Ev
	.quad	_ZN15CSSPropertyAPI48method47Ev
	.quad	_ZN15CSSPropertyAPI48method48Ev
	.quad	_ZN15CSSPropertyAPI48method49Ev
	.quad	_ZN15CSSPropertyAPI48method50Ev
	.quad	_ZN15CSSPropertyAPI67method1Ev
	.quad	_ZN15CSSPropertyAPI67method2Ev
	.quad	_ZN15CSSPropertyAPI67method3Ev
	.quad	_ZN15CSSPropertyAPI67method4Ev
	.quad	_ZN15CSSPropertyAPI67method5Ev
	.quad	_ZN15CSSPropertyAPI67method6Ev
	.quad	_ZN15CSSPropertyAPI67method7Ev
	.quad	_ZN15CSSPropertyAPI67method8Ev
	.quad	_ZN15CSSPropertyAPI67method9Ev
	.quad	_ZN15CSSPropertyAPI68method10Ev
	.quad	_ZN15CSSPropertyAPI68method11Ev
	.quad	_ZN15CSSPropertyAPI68method12Ev
	.quad	_ZN15CSSPropertyAPI68method13Ev
	.quad	_ZN15CSSPropertyAPI68method14Ev
	.quad	_ZN15CSSPropertyAPI68method15Ev
	.quad	_ZN15CSSPropertyAPI68method16Ev
	.quad	_ZN15CSSPropertyAPI68method17Ev
	.quad	_ZN15CSSPropertyAPI68method18Ev
	.quad	_ZN15CSSPropertyAPI68method19Ev
	.quad	_ZN15CSSPropertyAPI68method20Ev
	.quad	_ZN15CSSPropertyAPI68method21Ev
	.quad	_ZN15CSSPropertyAPI68method22Ev
	.quad	_ZN15CSSPropertyAPI68method23Ev
	.quad	_ZN15CSSPropertyAPI68method24Ev
	.quad	_ZN15CSSPropertyAPI68method25Ev
	.quad	_ZN15CSSPropertyAPI68method26Ev
	.quad	_ZN15CSSPropertyAPI68method27Ev
	.quad	_ZN15CSSPropertyAPI68method28Ev
	.quad	_ZN15CSSPropertyAPI68method29Ev
	.quad	_ZN15CSSPropertyAPI68method30Ev
	.quad	_ZN15CSSPropertyAPI68method31Ev
	.quad	_ZN15CSSPropertyAPI68method32Ev
	.quad	_ZN15CSSPropertyAPI68method33Ev
	.quad	_ZN15CSSPropertyAPI68method34Ev
	.quad	_ZN15CSSPropertyAPI68method35Ev
	.quad	_ZN15CSSPropertyAPI68method36Ev
	.quad	_ZN15CSSPropertyAPI68method37Ev
	.quad	_ZN15CSSPropertyAPI68method38Ev
	.quad	_ZN15CSSPropertyAPI68method39Ev
	.quad	_ZN15CSSPropertyAPI68method40Ev
	.quad	_ZN15CSSPropertyAPI68method41Ev
	.quad	_ZN15CSSPropertyAPI68method42Ev
	.quad	_ZN15CSSPropertyAPI68method43Ev
	.quad	_ZN15CSSPropertyAPI68method44Ev
	.quad	_ZN15CSSPropertyAPI68method45Ev
	.quad	_ZN15CSSPropertyAPI68method46Ev
	.quad	_ZN15CSSPropertyAPI68method47Ev
	.quad	_ZN15CSSPropertyAPI68method48Ev
	.quad	_ZN15CSSPropertyAPI68method49Ev
	.quad	_ZN15CSSPropertyAPI68method50Ev
	.zero	400
	.zero	400
	.quad	_ZN15CSSPropertyAPI27method1Ev
	.quad	_ZN15CSSPropertyAPI27method2Ev
	.quad	_ZN15CSSPropertyAPI27method3Ev
	.quad	_ZN15CSSPropertyAPI27method4Ev
	.quad	_ZN15CSSPropertyAPI27method5Ev
	.quad	_ZN15CSSPropertyAPI27method6Ev
	.quad	_ZN15CSSPropertyAPI27method7Ev
	.quad	_ZN15CSSPropertyAPI27method8Ev
	.quad	_ZN15CSSPropertyAPI27method9Ev
	.quad	_ZN15CSSPropertyAPI28method10Ev
	.quad	_ZN15CSSPropertyAPI28method11Ev
	.quad	_ZN15CSSPropertyAPI28method12Ev
	.quad	_ZN15CSSPropertyAPI28method13Ev
	.quad	_ZN15CSSPropertyAPI28method14Ev
	.quad	_ZN15CSSPropertyAPI28method15Ev
	.quad	_ZN15CSSPropertyAPI28method16Ev
	.quad	_ZN15CSSPropertyAPI28method17Ev
	.quad	_ZN15CSSPropertyAPI28method18Ev
	.quad	_ZN15CSSPropertyAPI28method19Ev
	.quad	_ZN15CSSPropertyAPI28method20Ev
	.quad	_ZN15CSSPropertyAPI28method21Ev
	.quad	_ZN15CSSPropertyAPI28method22Ev
	.quad	_ZN15CSSPropertyAPI28method23Ev
	.quad	_ZN15CSSPropertyAPI28method24Ev
	.quad	_ZN15CSSPropertyAPI28method25Ev
	.quad	_ZN15CSSPropertyAPI28method26Ev
	.quad	_ZN15CSSPropertyAPI28method27Ev
	.quad	_ZN15CSSPropertyAPI28method28Ev
	.quad	_ZN15CSSPropertyAPI28method29Ev
	.quad	_ZN15CSSPropertyAPI28method30Ev
	.quad	_ZN15CSSPropertyAPI28method31Ev
	.quad	_ZN15CSSPropertyAPI28method32Ev
	.quad	_ZN15CSSPropertyAPI28method33Ev
	.quad	_ZN15CSSPropertyAPI28method34Ev
	.quad	_ZN15CSSPropertyAPI28method35Ev
	.quad	_ZN15CSSPropertyAPI28method36Ev
	.quad	_ZN15CSSPropertyAPI28method37Ev
	.quad	_ZN15CSSPropertyAPI28method38Ev
	.quad	_ZN15CSSPropertyAPI28method39Ev
	.quad	_ZN15CSSPropertyAPI28method40Ev
	.quad	_ZN15CSSPropertyAPI28method41Ev
	.quad	_ZN15CSSPropertyAPI28method42Ev
	.quad	_ZN15CSSPropertyAPI28method43Ev
	.quad	_ZN15CSSPropertyAPI28method44Ev
	.quad	_ZN15CSSPropertyAPI28method45Ev
	.quad	_ZN15CSSPropertyAPI28method46Ev
	.quad	_ZN15CSSPropertyAPI28method47Ev
	.quad	_ZN15CSSPropertyAPI28method48Ev
	.quad	_ZN15CSSPropertyAPI28method49Ev
	.quad	_ZN15CSSPropertyAPI28method50Ev
	.zero	400
	.quad	_ZN15CSSPropertyAPI57method1Ev
	.quad	_ZN15CSSPropertyAPI57method2Ev
	.quad	_ZN15CSSPropertyAPI57method3Ev
	.quad	_ZN15CSSPropertyAPI57method4Ev
	.quad	_ZN15CSSPropertyAPI57method5Ev
	.quad	_ZN15CSSPropertyAPI57method6Ev
	.quad	_ZN15CSSPropertyAPI57method7Ev
	.quad	_ZN15CSSPropertyAPI57method8Ev
	.quad	_ZN15CSSPropertyAPI57method9Ev
	.quad	_ZN15CSSPropertyAPI58method10Ev
	.quad	_ZN15CSSPropertyAPI58method11Ev
	.quad	_ZN15CSSPropertyAPI58method12Ev
	.quad	_ZN15CSSPropertyAPI58method13Ev
	.quad	_ZN15CSSPropertyAPI58method14Ev
	.quad	_ZN15CSSPropertyAPI58method15Ev
	.quad	_ZN15CSSPropertyAPI58method16Ev
	.quad	_ZN15CSSPropertyAPI58method17Ev
	.quad	_ZN15CSSPropertyAPI58method18Ev
	.quad	_ZN15CSSPropertyAPI58method19Ev
	.quad	_ZN15CSSPropertyAPI58method20Ev
	.quad	_ZN15CSSPropertyAPI58method21Ev
	.quad	_ZN15CSSPropertyAPI58method22Ev
	.quad	_ZN15CSSPropertyAPI58method23Ev
	.quad	_ZN15CSSPropertyAPI58method24Ev
	.quad	_ZN15CSSPropertyAPI58method25Ev
	.quad	_ZN15CSSPropertyAPI58method26Ev
	.quad	_ZN15CSSPropertyAPI58method27Ev
	.quad	_ZN15CSSPropertyAPI58method28Ev
	.quad	_ZN15CSSPropertyAPI58method29Ev
	.quad	_ZN15CSSPropertyAPI58method30Ev
	.quad	_ZN15CSSPropertyAPI58method31Ev
	.quad	_ZN15CSSPropertyAPI58method32Ev
	.quad	_ZN15CSSPropertyAPI58method33Ev
	.quad	_ZN15CSSPropertyAPI58method34Ev
	.quad	_ZN15CSSPropertyAPI58method35Ev
	.quad	_ZN15CSSPropertyAPI58method36Ev
	.quad	_ZN15CSSPropertyAPI58method37Ev
	.quad	_ZN15CSSPropertyAPI58method38Ev
	.quad	_ZN15CSSPropertyAPI58method39Ev
	.quad	_ZN15CSSPropertyAPI58method40Ev
	.quad	_ZN15CSSPropertyAPI58method41Ev
	.quad	_ZN15CSSPropertyAPI58method42Ev
	.quad	_ZN15CSSPropertyAPI58method43Ev
	.quad	_ZN15CSSPropertyAPI58method44Ev
	.quad	_ZN15CSSPropertyAPI58method45Ev
	.quad	_ZN15CSSPropertyAPI58method46Ev
	.quad	_ZN15CSSPropertyAPI58method47Ev
	.quad	_ZN15CSSPropertyAPI58method48Ev
	.quad	_ZN15CSSPropertyAPI58method49Ev
	.quad	_ZN15CSSPropertyAPI58method50Ev
	.zero	400
	.quad	_ZN15CSSPropertyAPI97method1Ev
	.quad	_ZN15CSSPropertyAPI97method2Ev
	.quad	_ZN15CSSPropertyAPI97method3Ev
	.quad	_ZN15CSSPropertyAPI97method4Ev
	.quad	_ZN15CSSPropertyAPI97method5Ev
	.quad	_ZN15CSSPropertyAPI97method6Ev
	.quad	_ZN15CSSPropertyAPI97method7Ev
	.quad	_ZN15CSSPropertyAPI97method8Ev
	.quad	_ZN15CSSPropertyAPI97method9Ev
	.quad	_ZN15CSSPropertyAPI98method10Ev
	.quad	_ZN15CSSPropertyAPI98method11Ev
	.quad	_ZN15CSSPropertyAPI98method12Ev
	.quad	_ZN15CSSPropertyAPI98method13Ev
	.quad	_ZN15CSSPropertyAPI98method14Ev
	.quad	_ZN15CSSPropertyAPI98method15Ev
	.quad	_ZN15CSSPropertyAPI98method16Ev
	.quad	_ZN15CSSPropertyAPI98method17Ev
	.quad	_ZN15CSSPropertyAPI98method18Ev
	.quad	_ZN15CSSPropertyAPI98method19Ev
	.quad	_ZN15CSSPropertyAPI98method20Ev
	.quad	_ZN15CSSPropertyAPI98method21Ev
	.quad	_ZN15CSSPropertyAPI98method22Ev
	.quad	_ZN15CSSPropertyAPI98method23Ev
	.quad	_ZN15CSSPropertyAPI98method24Ev
	.quad	_ZN15CSSPropertyAPI98method25Ev
	.quad	_ZN15CSSPropertyAPI98method26Ev
	.quad	_ZN15CSSPropertyAPI98method27Ev
	.quad	_ZN15CSSPropertyAPI98method28Ev
	.quad	_ZN15CSSPropertyAPI98method29Ev
	.quad	_ZN15CSSPropertyAPI98method30Ev
	.quad	_ZN15CSSPropertyAPI98method31Ev
	.quad	_ZN15CSSPropertyAPI98method32Ev
	.quad	_ZN15CSSPropertyAPI98method33Ev
	.quad	_ZN15CSSPropertyAPI98method34Ev
	.quad	_ZN15CSSPropertyAPI98method35Ev
	.quad	_ZN15CSSPropertyAPI98method36Ev
	.quad	_ZN15CSSPropertyAPI98method37Ev
	.quad	_ZN15CSSPropertyAPI98method38Ev
	.quad	_ZN15CSSPropertyAPI98method39Ev
	.quad	_ZN15CSSPropertyAPI98method40Ev
	.quad	_ZN15CSSPropertyAPI98method41Ev
	.quad	_ZN15CSSPropertyAPI98method42Ev
	.quad	_ZN15CSSPropertyAPI98method43Ev
	.quad	_ZN15CSSPropertyAPI98method44Ev
	.quad	_ZN15CSSPropertyAPI98method45Ev
	.quad	_ZN15CSSPropertyAPI98method46Ev
	.quad	_ZN15CSSPropertyAPI98method47Ev
	.quad	_ZN15CSSPropertyAPI98method48Ev
	.quad	_ZN15CSSPropertyAPI98method49Ev
	.quad	_ZN15CSSPropertyAPI98method50Ev
	.zero	400
	.zero	400
	.zero	400
	.quad	_ZN15CSSPropertyAPI87method1Ev
	.quad	_ZN15CSSPropertyAPI87method2Ev
	.quad	_ZN15CSSPropertyAPI87method3Ev
	.quad	_ZN15CSSPropertyAPI87method4Ev
	.quad	_ZN15CSSPropertyAPI87method5Ev
	.quad	_ZN15CSSPropertyAPI87method6Ev
	.quad	_ZN15CSSPropertyAPI87method7Ev
	.quad	_ZN15CSSPropertyAPI87method8Ev
	.quad	_ZN15CSSPropertyAPI87method9Ev
	.quad	_ZN15CSSPropertyAPI88method10Ev
	.quad	_ZN15CSSPropertyAPI88method11Ev
	.quad	_ZN15CSSPropertyAPI88method12Ev
	.quad	_ZN15CSSPropertyAPI88method13Ev
	.quad	_ZN15CSSPropertyAPI88method14Ev
	.quad	_ZN15CSSPropertyAPI88method15Ev
	.quad	_ZN15CSSPropertyAPI88method16Ev
	.quad	_ZN15CSSPropertyAPI88method17Ev
	.quad	_ZN15CSSPropertyAPI88method18Ev
	.quad	_ZN15CSSPropertyAPI88method19Ev
	.quad	_ZN15CSSPropertyAPI88method20Ev
	.quad	_ZN15CSSPropertyAPI88method21Ev
	.quad	_ZN15CSSPropertyAPI88method22Ev
	.quad	_ZN15CSSPropertyAPI88method23Ev
	.quad	_ZN15CSSPropertyAPI88method24Ev
	.quad	_ZN15CSSPropertyAPI88method25Ev
	.quad	_ZN15CSSPropertyAPI88method26Ev
	.quad	_ZN15CSSPropertyAPI88method27Ev
	.quad	_ZN15CSSPropertyAPI88method28Ev
	.quad	_ZN15CSSPropertyAPI88method29Ev
	.quad	_ZN15CSSPropertyAPI88method30Ev
	.quad	_ZN15CSSPropertyAPI88method31Ev
	.quad	_ZN15CSSPropertyAPI88method32Ev
	.quad	_ZN15CSSPropertyAPI88method33Ev
	.quad	_ZN15CSSPropertyAPI88method34Ev
	.quad	_ZN15CSSPropertyAPI88method35Ev
	.quad	_ZN15CSSPropertyAPI88method36Ev
	.quad	_ZN15CSSPropertyAPI88method37Ev
	.quad	_ZN15CSSPropertyAPI88method38Ev
	.quad	_ZN15CSSPropertyAPI88method39Ev
	.quad	_ZN15CSSPropertyAPI88method40Ev
	.quad	_ZN15CSSPropertyAPI88method41Ev
	.quad	_ZN15CSSPropertyAPI88method42Ev
	.quad	_ZN15CSSPropertyAPI88method43Ev
	.quad	_ZN15CSSPropertyAPI88method44Ev
	.quad	_ZN15CSSPropertyAPI88method45Ev
	.quad	_ZN15CSSPropertyAPI88method46Ev
	.quad	_ZN15CSSPropertyAPI88method47Ev
	.quad	_ZN15CSSPropertyAPI88method48Ev
	.quad	_ZN15CSSPropertyAPI88method49Ev
	.quad	_ZN15CSSPropertyAPI88method50Ev
	.quad	_ZN15CSSPropertyAPI37method1Ev
	.quad	_ZN15CSSPropertyAPI37method2Ev
	.quad	_ZN15CSSPropertyAPI37method3Ev
	.quad	_ZN15CSSPropertyAPI37method4Ev
	.quad	_ZN15CSSPropertyAPI37method5Ev
	.quad	_ZN15CSSPropertyAPI37method6Ev
	.quad	_ZN15CSSPropertyAPI37method7Ev
	.quad	_ZN15CSSPropertyAPI37method8Ev
	.quad	_ZN15CSSPropertyAPI37method9Ev
	.quad	_ZN15CSSPropertyAPI38method10Ev
	.quad	_ZN15CSSPropertyAPI38method11Ev
	.quad	_ZN15CSSPropertyAPI38method12Ev
	.quad	_ZN15CSSPropertyAPI38method13Ev
	.quad	_ZN15CSSPropertyAPI38method14Ev
	.quad	_ZN15CSSPropertyAPI38method15Ev
	.quad	_ZN15CSSPropertyAPI38method16Ev
	.quad	_ZN15CSSPropertyAPI38method17Ev
	.quad	_ZN15CSSPropertyAPI38method18Ev
	.quad	_ZN15CSSPropertyAPI38method19Ev
	.quad	_ZN15CSSPropertyAPI38method20Ev
	.quad	_ZN15CSSPropertyAPI38method21Ev
	.quad	_ZN15CSSPropertyAPI38method22Ev
	.quad	_ZN15CSSPropertyAPI38method23Ev
	.quad	_ZN15CSSPropertyAPI38method24Ev
	.quad	_ZN15CSSPropertyAPI38method25Ev
	.quad	_ZN15CSSPropertyAPI38method26Ev
	.quad	_ZN15CSSPropertyAPI38method27Ev
	.quad	_ZN15CSSPropertyAPI38method28Ev
	.quad	_ZN15CSSPropertyAPI38method29Ev
	.quad	_ZN15CSSPropertyAPI38method30Ev
	.quad	_ZN15CSSPropertyAPI38method31Ev
	.quad	_ZN15CSSPropertyAPI38method32Ev
	.quad	_ZN15CSSPropertyAPI38method33Ev
	.quad	_ZN15CSSPropertyAPI38method34Ev
	.quad	_ZN15CSSPropertyAPI38method35Ev
	.quad	_ZN15CSSPropertyAPI38method36Ev
	.quad	_ZN15CSSPropertyAPI38method37Ev
	.quad	_ZN15CSSPropertyAPI38method38Ev
	.quad	_ZN15CSSPropertyAPI38method39Ev
	.quad	_ZN15CSSPropertyAPI38method40Ev
	.quad	_ZN15CSSPropertyAPI38method41Ev
	.quad	_ZN15CSSPropertyAPI38method42Ev
	.quad	_ZN15CSSPropertyAPI38method43Ev
	.quad	_ZN15CSSPropertyAPI38method44Ev
	.quad	_ZN15CSSPropertyAPI38method45Ev
	.quad	_ZN15CSSPropertyAPI38method46Ev
	.quad	_ZN15CSSPropertyAPI38method47Ev
	.quad	_ZN15CSSPropertyAPI38method48Ev
	.quad	_ZN15CSSPropertyAPI38method49Ev
	.quad	_ZN15CSSPropertyAPI38method50Ev
	.size	_ZL11descriptors, 8000

	.type	_ZL17descriptorIndices,@object # @_ZL17descriptorIndices
	.p2align	4
_ZL17descriptorIndices:
	.quad	9                       # 0x9
	.quad	16                      # 0x10
	.quad	2                       # 0x2
	.quad	11                      # 0xb
	.quad	19                      # 0x13
	.quad	3                       # 0x3
	.quad	0                       # 0x0
	.quad	17                      # 0x11
	.quad	5                       # 0x5
	.quad	10                      # 0xa
	.quad	12                      # 0xc
	.quad	15                      # 0xf
	.quad	8                       # 0x8
	.quad	4                       # 0x4
	.quad	13                      # 0xd
	.quad	14                      # 0xe
	.quad	7                       # 0x7
	.quad	6                       # 0x6
	.quad	18                      # 0x12
	.quad	1                       # 0x1
	.size	_ZL17descriptorIndices, 160


	.ident	"clang version 5.0.0 (trunk 307486)"
	.section	".note.GNU-stack","",@progbits
