	.text
	.file	"generated/descriptor-with-default-noindices-split-10-classes-calls-test/descriptor-with-default-noindices-split-10-classes-calls-test.cpp"
	.globl	_ZN21CSSPropertyAPIDefault5parseEv # -- Begin function _ZN21CSSPropertyAPIDefault5parseEv
	.p2align	4, 0x90
	.type	_ZN21CSSPropertyAPIDefault5parseEv,@function
_ZN21CSSPropertyAPIDefault5parseEv:     # @_ZN21CSSPropertyAPIDefault5parseEv
	.cfi_startproc
# BB#0:                                 # %entry
	movl	increment_me(%rip), %eax
	addl	%eax, increment_me(%rip)
	retq
.Lfunc_end0:
	.size	_ZN21CSSPropertyAPIDefault5parseEv, .Lfunc_end0-_ZN21CSSPropertyAPIDefault5parseEv
	.cfi_endproc
                                        # -- End function
	.globl	_ZN21CSSPropertyAPIDefault5otherEv # -- Begin function _ZN21CSSPropertyAPIDefault5otherEv
	.p2align	4, 0x90
	.type	_ZN21CSSPropertyAPIDefault5otherEv,@function
_ZN21CSSPropertyAPIDefault5otherEv:     # @_ZN21CSSPropertyAPIDefault5otherEv
	.cfi_startproc
# BB#0:                                 # %entry
	addl	$10, increment_me(%rip)
	retq
.Lfunc_end1:
	.size	_ZN21CSSPropertyAPIDefault5otherEv, .Lfunc_end1-_ZN21CSSPropertyAPIDefault5otherEv
	.cfi_endproc
                                        # -- End function
	.globl	_ZN15CSSPropertyAPI15parseEv # -- Begin function _ZN15CSSPropertyAPI15parseEv
	.p2align	4, 0x90
	.type	_ZN15CSSPropertyAPI15parseEv,@function
_ZN15CSSPropertyAPI15parseEv:           # @_ZN15CSSPropertyAPI15parseEv
	.cfi_startproc
# BB#0:                                 # %entry
	incl	increment_me(%rip)
	retq
.Lfunc_end2:
	.size	_ZN15CSSPropertyAPI15parseEv, .Lfunc_end2-_ZN15CSSPropertyAPI15parseEv
	.cfi_endproc
                                        # -- End function
	.globl	_ZN15CSSPropertyAPI15otherEv # -- Begin function _ZN15CSSPropertyAPI15otherEv
	.p2align	4, 0x90
	.type	_ZN15CSSPropertyAPI15otherEv,@function
_ZN15CSSPropertyAPI15otherEv:           # @_ZN15CSSPropertyAPI15otherEv
	.cfi_startproc
# BB#0:                                 # %entry
	addl	$2, increment_me(%rip)
	retq
.Lfunc_end3:
	.size	_ZN15CSSPropertyAPI15otherEv, .Lfunc_end3-_ZN15CSSPropertyAPI15otherEv
	.cfi_endproc
                                        # -- End function
	.globl	_ZN15CSSPropertyAPI25parseEv # -- Begin function _ZN15CSSPropertyAPI25parseEv
	.p2align	4, 0x90
	.type	_ZN15CSSPropertyAPI25parseEv,@function
_ZN15CSSPropertyAPI25parseEv:           # @_ZN15CSSPropertyAPI25parseEv
	.cfi_startproc
# BB#0:                                 # %entry
	addl	$2, increment_me(%rip)
	retq
.Lfunc_end4:
	.size	_ZN15CSSPropertyAPI25parseEv, .Lfunc_end4-_ZN15CSSPropertyAPI25parseEv
	.cfi_endproc
                                        # -- End function
	.globl	_ZN15CSSPropertyAPI25otherEv # -- Begin function _ZN15CSSPropertyAPI25otherEv
	.p2align	4, 0x90
	.type	_ZN15CSSPropertyAPI25otherEv,@function
_ZN15CSSPropertyAPI25otherEv:           # @_ZN15CSSPropertyAPI25otherEv
	.cfi_startproc
# BB#0:                                 # %entry
	addl	$3, increment_me(%rip)
	retq
.Lfunc_end5:
	.size	_ZN15CSSPropertyAPI25otherEv, .Lfunc_end5-_ZN15CSSPropertyAPI25otherEv
	.cfi_endproc
                                        # -- End function
	.globl	_ZN15CSSPropertyAPI35parseEv # -- Begin function _ZN15CSSPropertyAPI35parseEv
	.p2align	4, 0x90
	.type	_ZN15CSSPropertyAPI35parseEv,@function
_ZN15CSSPropertyAPI35parseEv:           # @_ZN15CSSPropertyAPI35parseEv
	.cfi_startproc
# BB#0:                                 # %entry
	addl	$3, increment_me(%rip)
	retq
.Lfunc_end6:
	.size	_ZN15CSSPropertyAPI35parseEv, .Lfunc_end6-_ZN15CSSPropertyAPI35parseEv
	.cfi_endproc
                                        # -- End function
	.globl	_ZN15CSSPropertyAPI35otherEv # -- Begin function _ZN15CSSPropertyAPI35otherEv
	.p2align	4, 0x90
	.type	_ZN15CSSPropertyAPI35otherEv,@function
_ZN15CSSPropertyAPI35otherEv:           # @_ZN15CSSPropertyAPI35otherEv
	.cfi_startproc
# BB#0:                                 # %entry
	addl	$4, increment_me(%rip)
	retq
.Lfunc_end7:
	.size	_ZN15CSSPropertyAPI35otherEv, .Lfunc_end7-_ZN15CSSPropertyAPI35otherEv
	.cfi_endproc
                                        # -- End function
	.globl	_ZN15CSSPropertyAPI45parseEv # -- Begin function _ZN15CSSPropertyAPI45parseEv
	.p2align	4, 0x90
	.type	_ZN15CSSPropertyAPI45parseEv,@function
_ZN15CSSPropertyAPI45parseEv:           # @_ZN15CSSPropertyAPI45parseEv
	.cfi_startproc
# BB#0:                                 # %entry
	addl	$4, increment_me(%rip)
	retq
.Lfunc_end8:
	.size	_ZN15CSSPropertyAPI45parseEv, .Lfunc_end8-_ZN15CSSPropertyAPI45parseEv
	.cfi_endproc
                                        # -- End function
	.globl	_ZN15CSSPropertyAPI45otherEv # -- Begin function _ZN15CSSPropertyAPI45otherEv
	.p2align	4, 0x90
	.type	_ZN15CSSPropertyAPI45otherEv,@function
_ZN15CSSPropertyAPI45otherEv:           # @_ZN15CSSPropertyAPI45otherEv
	.cfi_startproc
# BB#0:                                 # %entry
	addl	$5, increment_me(%rip)
	retq
.Lfunc_end9:
	.size	_ZN15CSSPropertyAPI45otherEv, .Lfunc_end9-_ZN15CSSPropertyAPI45otherEv
	.cfi_endproc
                                        # -- End function
	.globl	_ZN15CSSPropertyAPI55parseEv # -- Begin function _ZN15CSSPropertyAPI55parseEv
	.p2align	4, 0x90
	.type	_ZN15CSSPropertyAPI55parseEv,@function
_ZN15CSSPropertyAPI55parseEv:           # @_ZN15CSSPropertyAPI55parseEv
	.cfi_startproc
# BB#0:                                 # %entry
	addl	$5, increment_me(%rip)
	retq
.Lfunc_end10:
	.size	_ZN15CSSPropertyAPI55parseEv, .Lfunc_end10-_ZN15CSSPropertyAPI55parseEv
	.cfi_endproc
                                        # -- End function
	.globl	_ZN15CSSPropertyAPI55otherEv # -- Begin function _ZN15CSSPropertyAPI55otherEv
	.p2align	4, 0x90
	.type	_ZN15CSSPropertyAPI55otherEv,@function
_ZN15CSSPropertyAPI55otherEv:           # @_ZN15CSSPropertyAPI55otherEv
	.cfi_startproc
# BB#0:                                 # %entry
	addl	$6, increment_me(%rip)
	retq
.Lfunc_end11:
	.size	_ZN15CSSPropertyAPI55otherEv, .Lfunc_end11-_ZN15CSSPropertyAPI55otherEv
	.cfi_endproc
                                        # -- End function
	.globl	_ZN15CSSPropertyAPI65parseEv # -- Begin function _ZN15CSSPropertyAPI65parseEv
	.p2align	4, 0x90
	.type	_ZN15CSSPropertyAPI65parseEv,@function
_ZN15CSSPropertyAPI65parseEv:           # @_ZN15CSSPropertyAPI65parseEv
	.cfi_startproc
# BB#0:                                 # %entry
	addl	$6, increment_me(%rip)
	retq
.Lfunc_end12:
	.size	_ZN15CSSPropertyAPI65parseEv, .Lfunc_end12-_ZN15CSSPropertyAPI65parseEv
	.cfi_endproc
                                        # -- End function
	.globl	_ZN15CSSPropertyAPI65otherEv # -- Begin function _ZN15CSSPropertyAPI65otherEv
	.p2align	4, 0x90
	.type	_ZN15CSSPropertyAPI65otherEv,@function
_ZN15CSSPropertyAPI65otherEv:           # @_ZN15CSSPropertyAPI65otherEv
	.cfi_startproc
# BB#0:                                 # %entry
	addl	$7, increment_me(%rip)
	retq
.Lfunc_end13:
	.size	_ZN15CSSPropertyAPI65otherEv, .Lfunc_end13-_ZN15CSSPropertyAPI65otherEv
	.cfi_endproc
                                        # -- End function
	.globl	_ZN15CSSPropertyAPI75parseEv # -- Begin function _ZN15CSSPropertyAPI75parseEv
	.p2align	4, 0x90
	.type	_ZN15CSSPropertyAPI75parseEv,@function
_ZN15CSSPropertyAPI75parseEv:           # @_ZN15CSSPropertyAPI75parseEv
	.cfi_startproc
# BB#0:                                 # %entry
	addl	$7, increment_me(%rip)
	retq
.Lfunc_end14:
	.size	_ZN15CSSPropertyAPI75parseEv, .Lfunc_end14-_ZN15CSSPropertyAPI75parseEv
	.cfi_endproc
                                        # -- End function
	.globl	_ZN15CSSPropertyAPI75otherEv # -- Begin function _ZN15CSSPropertyAPI75otherEv
	.p2align	4, 0x90
	.type	_ZN15CSSPropertyAPI75otherEv,@function
_ZN15CSSPropertyAPI75otherEv:           # @_ZN15CSSPropertyAPI75otherEv
	.cfi_startproc
# BB#0:                                 # %entry
	addl	$8, increment_me(%rip)
	retq
.Lfunc_end15:
	.size	_ZN15CSSPropertyAPI75otherEv, .Lfunc_end15-_ZN15CSSPropertyAPI75otherEv
	.cfi_endproc
                                        # -- End function
	.globl	_ZN15CSSPropertyAPI85parseEv # -- Begin function _ZN15CSSPropertyAPI85parseEv
	.p2align	4, 0x90
	.type	_ZN15CSSPropertyAPI85parseEv,@function
_ZN15CSSPropertyAPI85parseEv:           # @_ZN15CSSPropertyAPI85parseEv
	.cfi_startproc
# BB#0:                                 # %entry
	addl	$8, increment_me(%rip)
	retq
.Lfunc_end16:
	.size	_ZN15CSSPropertyAPI85parseEv, .Lfunc_end16-_ZN15CSSPropertyAPI85parseEv
	.cfi_endproc
                                        # -- End function
	.globl	_ZN15CSSPropertyAPI85otherEv # -- Begin function _ZN15CSSPropertyAPI85otherEv
	.p2align	4, 0x90
	.type	_ZN15CSSPropertyAPI85otherEv,@function
_ZN15CSSPropertyAPI85otherEv:           # @_ZN15CSSPropertyAPI85otherEv
	.cfi_startproc
# BB#0:                                 # %entry
	addl	$9, increment_me(%rip)
	retq
.Lfunc_end17:
	.size	_ZN15CSSPropertyAPI85otherEv, .Lfunc_end17-_ZN15CSSPropertyAPI85otherEv
	.cfi_endproc
                                        # -- End function
	.globl	_ZN15CSSPropertyAPI95parseEv # -- Begin function _ZN15CSSPropertyAPI95parseEv
	.p2align	4, 0x90
	.type	_ZN15CSSPropertyAPI95parseEv,@function
_ZN15CSSPropertyAPI95parseEv:           # @_ZN15CSSPropertyAPI95parseEv
	.cfi_startproc
# BB#0:                                 # %entry
	addl	$9, increment_me(%rip)
	retq
.Lfunc_end18:
	.size	_ZN15CSSPropertyAPI95parseEv, .Lfunc_end18-_ZN15CSSPropertyAPI95parseEv
	.cfi_endproc
                                        # -- End function
	.globl	_ZN15CSSPropertyAPI95otherEv # -- Begin function _ZN15CSSPropertyAPI95otherEv
	.p2align	4, 0x90
	.type	_ZN15CSSPropertyAPI95otherEv,@function
_ZN15CSSPropertyAPI95otherEv:           # @_ZN15CSSPropertyAPI95otherEv
	.cfi_startproc
# BB#0:                                 # %entry
	addl	$10, increment_me(%rip)
	retq
.Lfunc_end19:
	.size	_ZN15CSSPropertyAPI95otherEv, .Lfunc_end19-_ZN15CSSPropertyAPI95otherEv
	.cfi_endproc
                                        # -- End function
	.globl	_ZN16CSSPropertyAPI105parseEv # -- Begin function _ZN16CSSPropertyAPI105parseEv
	.p2align	4, 0x90
	.type	_ZN16CSSPropertyAPI105parseEv,@function
_ZN16CSSPropertyAPI105parseEv:          # @_ZN16CSSPropertyAPI105parseEv
	.cfi_startproc
# BB#0:                                 # %entry
	addl	$10, increment_me(%rip)
	retq
.Lfunc_end20:
	.size	_ZN16CSSPropertyAPI105parseEv, .Lfunc_end20-_ZN16CSSPropertyAPI105parseEv
	.cfi_endproc
                                        # -- End function
	.globl	_ZN16CSSPropertyAPI105otherEv # -- Begin function _ZN16CSSPropertyAPI105otherEv
	.p2align	4, 0x90
	.type	_ZN16CSSPropertyAPI105otherEv,@function
_ZN16CSSPropertyAPI105otherEv:          # @_ZN16CSSPropertyAPI105otherEv
	.cfi_startproc
# BB#0:                                 # %entry
	addl	$11, increment_me(%rip)
	retq
.Lfunc_end21:
	.size	_ZN16CSSPropertyAPI105otherEv, .Lfunc_end21-_ZN16CSSPropertyAPI105otherEv
	.cfi_endproc
                                        # -- End function
	.globl	_ZN21CSSPropertyDescriptor3GetEi # -- Begin function _ZN21CSSPropertyDescriptor3GetEi
	.p2align	4, 0x90
	.type	_ZN21CSSPropertyDescriptor3GetEi,@function
_ZN21CSSPropertyDescriptor3GetEi:       # @_ZN21CSSPropertyDescriptor3GetEi
	.cfi_startproc
# BB#0:                                 # %entry
	movslq	%edi, %rax
	shlq	$4, %rax
	leaq	_ZL11descriptors(%rax), %rax
	retq
.Lfunc_end22:
	.size	_ZN21CSSPropertyDescriptor3GetEi, .Lfunc_end22-_ZN21CSSPropertyDescriptor3GetEi
	.cfi_endproc
                                        # -- End function
	.type	increment_me,@object    # @increment_me
	.bss
	.globl	increment_me
	.p2align	2
increment_me:
	.long	0                       # 0x0
	.size	increment_me, 4

	.type	_ZL11descriptors,@object # @_ZL11descriptors
	.section	.rodata,"a",@progbits
	.p2align	4
_ZL11descriptors:
	.quad	_ZN21CSSPropertyAPIDefault5parseEv
	.quad	_ZN21CSSPropertyAPIDefault5otherEv
	.quad	_ZN16CSSPropertyAPI105parseEv
	.quad	_ZN16CSSPropertyAPI105otherEv
	.quad	_ZN21CSSPropertyAPIDefault5parseEv
	.quad	_ZN21CSSPropertyAPIDefault5otherEv
	.quad	_ZN21CSSPropertyAPIDefault5parseEv
	.quad	_ZN21CSSPropertyAPIDefault5otherEv
	.quad	_ZN21CSSPropertyAPIDefault5parseEv
	.quad	_ZN21CSSPropertyAPIDefault5otherEv
	.quad	_ZN15CSSPropertyAPI15parseEv
	.quad	_ZN15CSSPropertyAPI15otherEv
	.quad	_ZN15CSSPropertyAPI55parseEv
	.quad	_ZN15CSSPropertyAPI55otherEv
	.quad	_ZN21CSSPropertyAPIDefault5parseEv
	.quad	_ZN21CSSPropertyAPIDefault5otherEv
	.quad	_ZN15CSSPropertyAPI65parseEv
	.quad	_ZN15CSSPropertyAPI65otherEv
	.quad	_ZN15CSSPropertyAPI95parseEv
	.quad	_ZN15CSSPropertyAPI95otherEv
	.quad	_ZN21CSSPropertyAPIDefault5parseEv
	.quad	_ZN21CSSPropertyAPIDefault5otherEv
	.quad	_ZN15CSSPropertyAPI45parseEv
	.quad	_ZN15CSSPropertyAPI45otherEv
	.quad	_ZN15CSSPropertyAPI35parseEv
	.quad	_ZN15CSSPropertyAPI35otherEv
	.quad	_ZN15CSSPropertyAPI75parseEv
	.quad	_ZN15CSSPropertyAPI75otherEv
	.quad	_ZN21CSSPropertyAPIDefault5parseEv
	.quad	_ZN21CSSPropertyAPIDefault5otherEv
	.quad	_ZN21CSSPropertyAPIDefault5parseEv
	.quad	_ZN21CSSPropertyAPIDefault5otherEv
	.quad	_ZN21CSSPropertyAPIDefault5parseEv
	.quad	_ZN21CSSPropertyAPIDefault5otherEv
	.quad	_ZN15CSSPropertyAPI85parseEv
	.quad	_ZN15CSSPropertyAPI85otherEv
	.quad	_ZN15CSSPropertyAPI25parseEv
	.quad	_ZN15CSSPropertyAPI25otherEv
	.quad	_ZN21CSSPropertyAPIDefault5parseEv
	.quad	_ZN21CSSPropertyAPIDefault5otherEv
	.size	_ZL11descriptors, 320


	.ident	"clang version 5.0.0 (trunk 307486)"
	.section	".note.GNU-stack","",@progbits
