	.text
	.file	"generated/descriptor-moremethods-split-10-classes-20-methods-calls-test/descriptor-moremethods-split-10-classes-20-methods-calls-test.cpp"
	.globl	_ZN15CSSPropertyAPI17method1Ev # -- Begin function _ZN15CSSPropertyAPI17method1Ev
	.p2align	4, 0x90
	.type	_ZN15CSSPropertyAPI17method1Ev,@function
_ZN15CSSPropertyAPI17method1Ev:         # @_ZN15CSSPropertyAPI17method1Ev
	.cfi_startproc
# BB#0:                                 # %entry
	addl	$2, increment_me(%rip)
	retq
.Lfunc_end0:
	.size	_ZN15CSSPropertyAPI17method1Ev, .Lfunc_end0-_ZN15CSSPropertyAPI17method1Ev
	.cfi_endproc
                                        # -- End function
	.globl	_ZN15CSSPropertyAPI17method2Ev # -- Begin function _ZN15CSSPropertyAPI17method2Ev
	.p2align	4, 0x90
	.type	_ZN15CSSPropertyAPI17method2Ev,@function
_ZN15CSSPropertyAPI17method2Ev:         # @_ZN15CSSPropertyAPI17method2Ev
	.cfi_startproc
# BB#0:                                 # %entry
	addl	$3, increment_me(%rip)
	retq
.Lfunc_end1:
	.size	_ZN15CSSPropertyAPI17method2Ev, .Lfunc_end1-_ZN15CSSPropertyAPI17method2Ev
	.cfi_endproc
                                        # -- End function
	.globl	_ZN15CSSPropertyAPI17method3Ev # -- Begin function _ZN15CSSPropertyAPI17method3Ev
	.p2align	4, 0x90
	.type	_ZN15CSSPropertyAPI17method3Ev,@function
_ZN15CSSPropertyAPI17method3Ev:         # @_ZN15CSSPropertyAPI17method3Ev
	.cfi_startproc
# BB#0:                                 # %entry
	addl	$4, increment_me(%rip)
	retq
.Lfunc_end2:
	.size	_ZN15CSSPropertyAPI17method3Ev, .Lfunc_end2-_ZN15CSSPropertyAPI17method3Ev
	.cfi_endproc
                                        # -- End function
	.globl	_ZN15CSSPropertyAPI17method4Ev # -- Begin function _ZN15CSSPropertyAPI17method4Ev
	.p2align	4, 0x90
	.type	_ZN15CSSPropertyAPI17method4Ev,@function
_ZN15CSSPropertyAPI17method4Ev:         # @_ZN15CSSPropertyAPI17method4Ev
	.cfi_startproc
# BB#0:                                 # %entry
	addl	$5, increment_me(%rip)
	retq
.Lfunc_end3:
	.size	_ZN15CSSPropertyAPI17method4Ev, .Lfunc_end3-_ZN15CSSPropertyAPI17method4Ev
	.cfi_endproc
                                        # -- End function
	.globl	_ZN15CSSPropertyAPI17method5Ev # -- Begin function _ZN15CSSPropertyAPI17method5Ev
	.p2align	4, 0x90
	.type	_ZN15CSSPropertyAPI17method5Ev,@function
_ZN15CSSPropertyAPI17method5Ev:         # @_ZN15CSSPropertyAPI17method5Ev
	.cfi_startproc
# BB#0:                                 # %entry
	addl	$6, increment_me(%rip)
	retq
.Lfunc_end4:
	.size	_ZN15CSSPropertyAPI17method5Ev, .Lfunc_end4-_ZN15CSSPropertyAPI17method5Ev
	.cfi_endproc
                                        # -- End function
	.globl	_ZN15CSSPropertyAPI17method6Ev # -- Begin function _ZN15CSSPropertyAPI17method6Ev
	.p2align	4, 0x90
	.type	_ZN15CSSPropertyAPI17method6Ev,@function
_ZN15CSSPropertyAPI17method6Ev:         # @_ZN15CSSPropertyAPI17method6Ev
	.cfi_startproc
# BB#0:                                 # %entry
	addl	$7, increment_me(%rip)
	retq
.Lfunc_end5:
	.size	_ZN15CSSPropertyAPI17method6Ev, .Lfunc_end5-_ZN15CSSPropertyAPI17method6Ev
	.cfi_endproc
                                        # -- End function
	.globl	_ZN15CSSPropertyAPI17method7Ev # -- Begin function _ZN15CSSPropertyAPI17method7Ev
	.p2align	4, 0x90
	.type	_ZN15CSSPropertyAPI17method7Ev,@function
_ZN15CSSPropertyAPI17method7Ev:         # @_ZN15CSSPropertyAPI17method7Ev
	.cfi_startproc
# BB#0:                                 # %entry
	addl	$8, increment_me(%rip)
	retq
.Lfunc_end6:
	.size	_ZN15CSSPropertyAPI17method7Ev, .Lfunc_end6-_ZN15CSSPropertyAPI17method7Ev
	.cfi_endproc
                                        # -- End function
	.globl	_ZN15CSSPropertyAPI17method8Ev # -- Begin function _ZN15CSSPropertyAPI17method8Ev
	.p2align	4, 0x90
	.type	_ZN15CSSPropertyAPI17method8Ev,@function
_ZN15CSSPropertyAPI17method8Ev:         # @_ZN15CSSPropertyAPI17method8Ev
	.cfi_startproc
# BB#0:                                 # %entry
	addl	$9, increment_me(%rip)
	retq
.Lfunc_end7:
	.size	_ZN15CSSPropertyAPI17method8Ev, .Lfunc_end7-_ZN15CSSPropertyAPI17method8Ev
	.cfi_endproc
                                        # -- End function
	.globl	_ZN15CSSPropertyAPI17method9Ev # -- Begin function _ZN15CSSPropertyAPI17method9Ev
	.p2align	4, 0x90
	.type	_ZN15CSSPropertyAPI17method9Ev,@function
_ZN15CSSPropertyAPI17method9Ev:         # @_ZN15CSSPropertyAPI17method9Ev
	.cfi_startproc
# BB#0:                                 # %entry
	addl	$10, increment_me(%rip)
	retq
.Lfunc_end8:
	.size	_ZN15CSSPropertyAPI17method9Ev, .Lfunc_end8-_ZN15CSSPropertyAPI17method9Ev
	.cfi_endproc
                                        # -- End function
	.globl	_ZN15CSSPropertyAPI18method10Ev # -- Begin function _ZN15CSSPropertyAPI18method10Ev
	.p2align	4, 0x90
	.type	_ZN15CSSPropertyAPI18method10Ev,@function
_ZN15CSSPropertyAPI18method10Ev:        # @_ZN15CSSPropertyAPI18method10Ev
	.cfi_startproc
# BB#0:                                 # %entry
	addl	$11, increment_me(%rip)
	retq
.Lfunc_end9:
	.size	_ZN15CSSPropertyAPI18method10Ev, .Lfunc_end9-_ZN15CSSPropertyAPI18method10Ev
	.cfi_endproc
                                        # -- End function
	.globl	_ZN15CSSPropertyAPI18method11Ev # -- Begin function _ZN15CSSPropertyAPI18method11Ev
	.p2align	4, 0x90
	.type	_ZN15CSSPropertyAPI18method11Ev,@function
_ZN15CSSPropertyAPI18method11Ev:        # @_ZN15CSSPropertyAPI18method11Ev
	.cfi_startproc
# BB#0:                                 # %entry
	addl	$12, increment_me(%rip)
	retq
.Lfunc_end10:
	.size	_ZN15CSSPropertyAPI18method11Ev, .Lfunc_end10-_ZN15CSSPropertyAPI18method11Ev
	.cfi_endproc
                                        # -- End function
	.globl	_ZN15CSSPropertyAPI18method12Ev # -- Begin function _ZN15CSSPropertyAPI18method12Ev
	.p2align	4, 0x90
	.type	_ZN15CSSPropertyAPI18method12Ev,@function
_ZN15CSSPropertyAPI18method12Ev:        # @_ZN15CSSPropertyAPI18method12Ev
	.cfi_startproc
# BB#0:                                 # %entry
	addl	$13, increment_me(%rip)
	retq
.Lfunc_end11:
	.size	_ZN15CSSPropertyAPI18method12Ev, .Lfunc_end11-_ZN15CSSPropertyAPI18method12Ev
	.cfi_endproc
                                        # -- End function
	.globl	_ZN15CSSPropertyAPI18method13Ev # -- Begin function _ZN15CSSPropertyAPI18method13Ev
	.p2align	4, 0x90
	.type	_ZN15CSSPropertyAPI18method13Ev,@function
_ZN15CSSPropertyAPI18method13Ev:        # @_ZN15CSSPropertyAPI18method13Ev
	.cfi_startproc
# BB#0:                                 # %entry
	addl	$14, increment_me(%rip)
	retq
.Lfunc_end12:
	.size	_ZN15CSSPropertyAPI18method13Ev, .Lfunc_end12-_ZN15CSSPropertyAPI18method13Ev
	.cfi_endproc
                                        # -- End function
	.globl	_ZN15CSSPropertyAPI18method14Ev # -- Begin function _ZN15CSSPropertyAPI18method14Ev
	.p2align	4, 0x90
	.type	_ZN15CSSPropertyAPI18method14Ev,@function
_ZN15CSSPropertyAPI18method14Ev:        # @_ZN15CSSPropertyAPI18method14Ev
	.cfi_startproc
# BB#0:                                 # %entry
	addl	$15, increment_me(%rip)
	retq
.Lfunc_end13:
	.size	_ZN15CSSPropertyAPI18method14Ev, .Lfunc_end13-_ZN15CSSPropertyAPI18method14Ev
	.cfi_endproc
                                        # -- End function
	.globl	_ZN15CSSPropertyAPI18method15Ev # -- Begin function _ZN15CSSPropertyAPI18method15Ev
	.p2align	4, 0x90
	.type	_ZN15CSSPropertyAPI18method15Ev,@function
_ZN15CSSPropertyAPI18method15Ev:        # @_ZN15CSSPropertyAPI18method15Ev
	.cfi_startproc
# BB#0:                                 # %entry
	addl	$16, increment_me(%rip)
	retq
.Lfunc_end14:
	.size	_ZN15CSSPropertyAPI18method15Ev, .Lfunc_end14-_ZN15CSSPropertyAPI18method15Ev
	.cfi_endproc
                                        # -- End function
	.globl	_ZN15CSSPropertyAPI18method16Ev # -- Begin function _ZN15CSSPropertyAPI18method16Ev
	.p2align	4, 0x90
	.type	_ZN15CSSPropertyAPI18method16Ev,@function
_ZN15CSSPropertyAPI18method16Ev:        # @_ZN15CSSPropertyAPI18method16Ev
	.cfi_startproc
# BB#0:                                 # %entry
	addl	$17, increment_me(%rip)
	retq
.Lfunc_end15:
	.size	_ZN15CSSPropertyAPI18method16Ev, .Lfunc_end15-_ZN15CSSPropertyAPI18method16Ev
	.cfi_endproc
                                        # -- End function
	.globl	_ZN15CSSPropertyAPI18method17Ev # -- Begin function _ZN15CSSPropertyAPI18method17Ev
	.p2align	4, 0x90
	.type	_ZN15CSSPropertyAPI18method17Ev,@function
_ZN15CSSPropertyAPI18method17Ev:        # @_ZN15CSSPropertyAPI18method17Ev
	.cfi_startproc
# BB#0:                                 # %entry
	addl	$18, increment_me(%rip)
	retq
.Lfunc_end16:
	.size	_ZN15CSSPropertyAPI18method17Ev, .Lfunc_end16-_ZN15CSSPropertyAPI18method17Ev
	.cfi_endproc
                                        # -- End function
	.globl	_ZN15CSSPropertyAPI18method18Ev # -- Begin function _ZN15CSSPropertyAPI18method18Ev
	.p2align	4, 0x90
	.type	_ZN15CSSPropertyAPI18method18Ev,@function
_ZN15CSSPropertyAPI18method18Ev:        # @_ZN15CSSPropertyAPI18method18Ev
	.cfi_startproc
# BB#0:                                 # %entry
	addl	$19, increment_me(%rip)
	retq
.Lfunc_end17:
	.size	_ZN15CSSPropertyAPI18method18Ev, .Lfunc_end17-_ZN15CSSPropertyAPI18method18Ev
	.cfi_endproc
                                        # -- End function
	.globl	_ZN15CSSPropertyAPI18method19Ev # -- Begin function _ZN15CSSPropertyAPI18method19Ev
	.p2align	4, 0x90
	.type	_ZN15CSSPropertyAPI18method19Ev,@function
_ZN15CSSPropertyAPI18method19Ev:        # @_ZN15CSSPropertyAPI18method19Ev
	.cfi_startproc
# BB#0:                                 # %entry
	addl	$20, increment_me(%rip)
	retq
.Lfunc_end18:
	.size	_ZN15CSSPropertyAPI18method19Ev, .Lfunc_end18-_ZN15CSSPropertyAPI18method19Ev
	.cfi_endproc
                                        # -- End function
	.globl	_ZN15CSSPropertyAPI18method20Ev # -- Begin function _ZN15CSSPropertyAPI18method20Ev
	.p2align	4, 0x90
	.type	_ZN15CSSPropertyAPI18method20Ev,@function
_ZN15CSSPropertyAPI18method20Ev:        # @_ZN15CSSPropertyAPI18method20Ev
	.cfi_startproc
# BB#0:                                 # %entry
	addl	$21, increment_me(%rip)
	retq
.Lfunc_end19:
	.size	_ZN15CSSPropertyAPI18method20Ev, .Lfunc_end19-_ZN15CSSPropertyAPI18method20Ev
	.cfi_endproc
                                        # -- End function
	.globl	_ZN15CSSPropertyAPI27method1Ev # -- Begin function _ZN15CSSPropertyAPI27method1Ev
	.p2align	4, 0x90
	.type	_ZN15CSSPropertyAPI27method1Ev,@function
_ZN15CSSPropertyAPI27method1Ev:         # @_ZN15CSSPropertyAPI27method1Ev
	.cfi_startproc
# BB#0:                                 # %entry
	addl	$3, increment_me(%rip)
	retq
.Lfunc_end20:
	.size	_ZN15CSSPropertyAPI27method1Ev, .Lfunc_end20-_ZN15CSSPropertyAPI27method1Ev
	.cfi_endproc
                                        # -- End function
	.globl	_ZN15CSSPropertyAPI27method2Ev # -- Begin function _ZN15CSSPropertyAPI27method2Ev
	.p2align	4, 0x90
	.type	_ZN15CSSPropertyAPI27method2Ev,@function
_ZN15CSSPropertyAPI27method2Ev:         # @_ZN15CSSPropertyAPI27method2Ev
	.cfi_startproc
# BB#0:                                 # %entry
	addl	$4, increment_me(%rip)
	retq
.Lfunc_end21:
	.size	_ZN15CSSPropertyAPI27method2Ev, .Lfunc_end21-_ZN15CSSPropertyAPI27method2Ev
	.cfi_endproc
                                        # -- End function
	.globl	_ZN15CSSPropertyAPI27method3Ev # -- Begin function _ZN15CSSPropertyAPI27method3Ev
	.p2align	4, 0x90
	.type	_ZN15CSSPropertyAPI27method3Ev,@function
_ZN15CSSPropertyAPI27method3Ev:         # @_ZN15CSSPropertyAPI27method3Ev
	.cfi_startproc
# BB#0:                                 # %entry
	addl	$5, increment_me(%rip)
	retq
.Lfunc_end22:
	.size	_ZN15CSSPropertyAPI27method3Ev, .Lfunc_end22-_ZN15CSSPropertyAPI27method3Ev
	.cfi_endproc
                                        # -- End function
	.globl	_ZN15CSSPropertyAPI27method4Ev # -- Begin function _ZN15CSSPropertyAPI27method4Ev
	.p2align	4, 0x90
	.type	_ZN15CSSPropertyAPI27method4Ev,@function
_ZN15CSSPropertyAPI27method4Ev:         # @_ZN15CSSPropertyAPI27method4Ev
	.cfi_startproc
# BB#0:                                 # %entry
	addl	$6, increment_me(%rip)
	retq
.Lfunc_end23:
	.size	_ZN15CSSPropertyAPI27method4Ev, .Lfunc_end23-_ZN15CSSPropertyAPI27method4Ev
	.cfi_endproc
                                        # -- End function
	.globl	_ZN15CSSPropertyAPI27method5Ev # -- Begin function _ZN15CSSPropertyAPI27method5Ev
	.p2align	4, 0x90
	.type	_ZN15CSSPropertyAPI27method5Ev,@function
_ZN15CSSPropertyAPI27method5Ev:         # @_ZN15CSSPropertyAPI27method5Ev
	.cfi_startproc
# BB#0:                                 # %entry
	addl	$7, increment_me(%rip)
	retq
.Lfunc_end24:
	.size	_ZN15CSSPropertyAPI27method5Ev, .Lfunc_end24-_ZN15CSSPropertyAPI27method5Ev
	.cfi_endproc
                                        # -- End function
	.globl	_ZN15CSSPropertyAPI27method6Ev # -- Begin function _ZN15CSSPropertyAPI27method6Ev
	.p2align	4, 0x90
	.type	_ZN15CSSPropertyAPI27method6Ev,@function
_ZN15CSSPropertyAPI27method6Ev:         # @_ZN15CSSPropertyAPI27method6Ev
	.cfi_startproc
# BB#0:                                 # %entry
	addl	$8, increment_me(%rip)
	retq
.Lfunc_end25:
	.size	_ZN15CSSPropertyAPI27method6Ev, .Lfunc_end25-_ZN15CSSPropertyAPI27method6Ev
	.cfi_endproc
                                        # -- End function
	.globl	_ZN15CSSPropertyAPI27method7Ev # -- Begin function _ZN15CSSPropertyAPI27method7Ev
	.p2align	4, 0x90
	.type	_ZN15CSSPropertyAPI27method7Ev,@function
_ZN15CSSPropertyAPI27method7Ev:         # @_ZN15CSSPropertyAPI27method7Ev
	.cfi_startproc
# BB#0:                                 # %entry
	addl	$9, increment_me(%rip)
	retq
.Lfunc_end26:
	.size	_ZN15CSSPropertyAPI27method7Ev, .Lfunc_end26-_ZN15CSSPropertyAPI27method7Ev
	.cfi_endproc
                                        # -- End function
	.globl	_ZN15CSSPropertyAPI27method8Ev # -- Begin function _ZN15CSSPropertyAPI27method8Ev
	.p2align	4, 0x90
	.type	_ZN15CSSPropertyAPI27method8Ev,@function
_ZN15CSSPropertyAPI27method8Ev:         # @_ZN15CSSPropertyAPI27method8Ev
	.cfi_startproc
# BB#0:                                 # %entry
	addl	$10, increment_me(%rip)
	retq
.Lfunc_end27:
	.size	_ZN15CSSPropertyAPI27method8Ev, .Lfunc_end27-_ZN15CSSPropertyAPI27method8Ev
	.cfi_endproc
                                        # -- End function
	.globl	_ZN15CSSPropertyAPI27method9Ev # -- Begin function _ZN15CSSPropertyAPI27method9Ev
	.p2align	4, 0x90
	.type	_ZN15CSSPropertyAPI27method9Ev,@function
_ZN15CSSPropertyAPI27method9Ev:         # @_ZN15CSSPropertyAPI27method9Ev
	.cfi_startproc
# BB#0:                                 # %entry
	addl	$11, increment_me(%rip)
	retq
.Lfunc_end28:
	.size	_ZN15CSSPropertyAPI27method9Ev, .Lfunc_end28-_ZN15CSSPropertyAPI27method9Ev
	.cfi_endproc
                                        # -- End function
	.globl	_ZN15CSSPropertyAPI28method10Ev # -- Begin function _ZN15CSSPropertyAPI28method10Ev
	.p2align	4, 0x90
	.type	_ZN15CSSPropertyAPI28method10Ev,@function
_ZN15CSSPropertyAPI28method10Ev:        # @_ZN15CSSPropertyAPI28method10Ev
	.cfi_startproc
# BB#0:                                 # %entry
	addl	$12, increment_me(%rip)
	retq
.Lfunc_end29:
	.size	_ZN15CSSPropertyAPI28method10Ev, .Lfunc_end29-_ZN15CSSPropertyAPI28method10Ev
	.cfi_endproc
                                        # -- End function
	.globl	_ZN15CSSPropertyAPI28method11Ev # -- Begin function _ZN15CSSPropertyAPI28method11Ev
	.p2align	4, 0x90
	.type	_ZN15CSSPropertyAPI28method11Ev,@function
_ZN15CSSPropertyAPI28method11Ev:        # @_ZN15CSSPropertyAPI28method11Ev
	.cfi_startproc
# BB#0:                                 # %entry
	addl	$13, increment_me(%rip)
	retq
.Lfunc_end30:
	.size	_ZN15CSSPropertyAPI28method11Ev, .Lfunc_end30-_ZN15CSSPropertyAPI28method11Ev
	.cfi_endproc
                                        # -- End function
	.globl	_ZN15CSSPropertyAPI28method12Ev # -- Begin function _ZN15CSSPropertyAPI28method12Ev
	.p2align	4, 0x90
	.type	_ZN15CSSPropertyAPI28method12Ev,@function
_ZN15CSSPropertyAPI28method12Ev:        # @_ZN15CSSPropertyAPI28method12Ev
	.cfi_startproc
# BB#0:                                 # %entry
	addl	$14, increment_me(%rip)
	retq
.Lfunc_end31:
	.size	_ZN15CSSPropertyAPI28method12Ev, .Lfunc_end31-_ZN15CSSPropertyAPI28method12Ev
	.cfi_endproc
                                        # -- End function
	.globl	_ZN15CSSPropertyAPI28method13Ev # -- Begin function _ZN15CSSPropertyAPI28method13Ev
	.p2align	4, 0x90
	.type	_ZN15CSSPropertyAPI28method13Ev,@function
_ZN15CSSPropertyAPI28method13Ev:        # @_ZN15CSSPropertyAPI28method13Ev
	.cfi_startproc
# BB#0:                                 # %entry
	addl	$15, increment_me(%rip)
	retq
.Lfunc_end32:
	.size	_ZN15CSSPropertyAPI28method13Ev, .Lfunc_end32-_ZN15CSSPropertyAPI28method13Ev
	.cfi_endproc
                                        # -- End function
	.globl	_ZN15CSSPropertyAPI28method14Ev # -- Begin function _ZN15CSSPropertyAPI28method14Ev
	.p2align	4, 0x90
	.type	_ZN15CSSPropertyAPI28method14Ev,@function
_ZN15CSSPropertyAPI28method14Ev:        # @_ZN15CSSPropertyAPI28method14Ev
	.cfi_startproc
# BB#0:                                 # %entry
	addl	$16, increment_me(%rip)
	retq
.Lfunc_end33:
	.size	_ZN15CSSPropertyAPI28method14Ev, .Lfunc_end33-_ZN15CSSPropertyAPI28method14Ev
	.cfi_endproc
                                        # -- End function
	.globl	_ZN15CSSPropertyAPI28method15Ev # -- Begin function _ZN15CSSPropertyAPI28method15Ev
	.p2align	4, 0x90
	.type	_ZN15CSSPropertyAPI28method15Ev,@function
_ZN15CSSPropertyAPI28method15Ev:        # @_ZN15CSSPropertyAPI28method15Ev
	.cfi_startproc
# BB#0:                                 # %entry
	addl	$17, increment_me(%rip)
	retq
.Lfunc_end34:
	.size	_ZN15CSSPropertyAPI28method15Ev, .Lfunc_end34-_ZN15CSSPropertyAPI28method15Ev
	.cfi_endproc
                                        # -- End function
	.globl	_ZN15CSSPropertyAPI28method16Ev # -- Begin function _ZN15CSSPropertyAPI28method16Ev
	.p2align	4, 0x90
	.type	_ZN15CSSPropertyAPI28method16Ev,@function
_ZN15CSSPropertyAPI28method16Ev:        # @_ZN15CSSPropertyAPI28method16Ev
	.cfi_startproc
# BB#0:                                 # %entry
	addl	$18, increment_me(%rip)
	retq
.Lfunc_end35:
	.size	_ZN15CSSPropertyAPI28method16Ev, .Lfunc_end35-_ZN15CSSPropertyAPI28method16Ev
	.cfi_endproc
                                        # -- End function
	.globl	_ZN15CSSPropertyAPI28method17Ev # -- Begin function _ZN15CSSPropertyAPI28method17Ev
	.p2align	4, 0x90
	.type	_ZN15CSSPropertyAPI28method17Ev,@function
_ZN15CSSPropertyAPI28method17Ev:        # @_ZN15CSSPropertyAPI28method17Ev
	.cfi_startproc
# BB#0:                                 # %entry
	addl	$19, increment_me(%rip)
	retq
.Lfunc_end36:
	.size	_ZN15CSSPropertyAPI28method17Ev, .Lfunc_end36-_ZN15CSSPropertyAPI28method17Ev
	.cfi_endproc
                                        # -- End function
	.globl	_ZN15CSSPropertyAPI28method18Ev # -- Begin function _ZN15CSSPropertyAPI28method18Ev
	.p2align	4, 0x90
	.type	_ZN15CSSPropertyAPI28method18Ev,@function
_ZN15CSSPropertyAPI28method18Ev:        # @_ZN15CSSPropertyAPI28method18Ev
	.cfi_startproc
# BB#0:                                 # %entry
	addl	$20, increment_me(%rip)
	retq
.Lfunc_end37:
	.size	_ZN15CSSPropertyAPI28method18Ev, .Lfunc_end37-_ZN15CSSPropertyAPI28method18Ev
	.cfi_endproc
                                        # -- End function
	.globl	_ZN15CSSPropertyAPI28method19Ev # -- Begin function _ZN15CSSPropertyAPI28method19Ev
	.p2align	4, 0x90
	.type	_ZN15CSSPropertyAPI28method19Ev,@function
_ZN15CSSPropertyAPI28method19Ev:        # @_ZN15CSSPropertyAPI28method19Ev
	.cfi_startproc
# BB#0:                                 # %entry
	addl	$21, increment_me(%rip)
	retq
.Lfunc_end38:
	.size	_ZN15CSSPropertyAPI28method19Ev, .Lfunc_end38-_ZN15CSSPropertyAPI28method19Ev
	.cfi_endproc
                                        # -- End function
	.globl	_ZN15CSSPropertyAPI28method20Ev # -- Begin function _ZN15CSSPropertyAPI28method20Ev
	.p2align	4, 0x90
	.type	_ZN15CSSPropertyAPI28method20Ev,@function
_ZN15CSSPropertyAPI28method20Ev:        # @_ZN15CSSPropertyAPI28method20Ev
	.cfi_startproc
# BB#0:                                 # %entry
	addl	$22, increment_me(%rip)
	retq
.Lfunc_end39:
	.size	_ZN15CSSPropertyAPI28method20Ev, .Lfunc_end39-_ZN15CSSPropertyAPI28method20Ev
	.cfi_endproc
                                        # -- End function
	.globl	_ZN15CSSPropertyAPI37method1Ev # -- Begin function _ZN15CSSPropertyAPI37method1Ev
	.p2align	4, 0x90
	.type	_ZN15CSSPropertyAPI37method1Ev,@function
_ZN15CSSPropertyAPI37method1Ev:         # @_ZN15CSSPropertyAPI37method1Ev
	.cfi_startproc
# BB#0:                                 # %entry
	addl	$4, increment_me(%rip)
	retq
.Lfunc_end40:
	.size	_ZN15CSSPropertyAPI37method1Ev, .Lfunc_end40-_ZN15CSSPropertyAPI37method1Ev
	.cfi_endproc
                                        # -- End function
	.globl	_ZN15CSSPropertyAPI37method2Ev # -- Begin function _ZN15CSSPropertyAPI37method2Ev
	.p2align	4, 0x90
	.type	_ZN15CSSPropertyAPI37method2Ev,@function
_ZN15CSSPropertyAPI37method2Ev:         # @_ZN15CSSPropertyAPI37method2Ev
	.cfi_startproc
# BB#0:                                 # %entry
	addl	$5, increment_me(%rip)
	retq
.Lfunc_end41:
	.size	_ZN15CSSPropertyAPI37method2Ev, .Lfunc_end41-_ZN15CSSPropertyAPI37method2Ev
	.cfi_endproc
                                        # -- End function
	.globl	_ZN15CSSPropertyAPI37method3Ev # -- Begin function _ZN15CSSPropertyAPI37method3Ev
	.p2align	4, 0x90
	.type	_ZN15CSSPropertyAPI37method3Ev,@function
_ZN15CSSPropertyAPI37method3Ev:         # @_ZN15CSSPropertyAPI37method3Ev
	.cfi_startproc
# BB#0:                                 # %entry
	addl	$6, increment_me(%rip)
	retq
.Lfunc_end42:
	.size	_ZN15CSSPropertyAPI37method3Ev, .Lfunc_end42-_ZN15CSSPropertyAPI37method3Ev
	.cfi_endproc
                                        # -- End function
	.globl	_ZN15CSSPropertyAPI37method4Ev # -- Begin function _ZN15CSSPropertyAPI37method4Ev
	.p2align	4, 0x90
	.type	_ZN15CSSPropertyAPI37method4Ev,@function
_ZN15CSSPropertyAPI37method4Ev:         # @_ZN15CSSPropertyAPI37method4Ev
	.cfi_startproc
# BB#0:                                 # %entry
	addl	$7, increment_me(%rip)
	retq
.Lfunc_end43:
	.size	_ZN15CSSPropertyAPI37method4Ev, .Lfunc_end43-_ZN15CSSPropertyAPI37method4Ev
	.cfi_endproc
                                        # -- End function
	.globl	_ZN15CSSPropertyAPI37method5Ev # -- Begin function _ZN15CSSPropertyAPI37method5Ev
	.p2align	4, 0x90
	.type	_ZN15CSSPropertyAPI37method5Ev,@function
_ZN15CSSPropertyAPI37method5Ev:         # @_ZN15CSSPropertyAPI37method5Ev
	.cfi_startproc
# BB#0:                                 # %entry
	addl	$8, increment_me(%rip)
	retq
.Lfunc_end44:
	.size	_ZN15CSSPropertyAPI37method5Ev, .Lfunc_end44-_ZN15CSSPropertyAPI37method5Ev
	.cfi_endproc
                                        # -- End function
	.globl	_ZN15CSSPropertyAPI37method6Ev # -- Begin function _ZN15CSSPropertyAPI37method6Ev
	.p2align	4, 0x90
	.type	_ZN15CSSPropertyAPI37method6Ev,@function
_ZN15CSSPropertyAPI37method6Ev:         # @_ZN15CSSPropertyAPI37method6Ev
	.cfi_startproc
# BB#0:                                 # %entry
	addl	$9, increment_me(%rip)
	retq
.Lfunc_end45:
	.size	_ZN15CSSPropertyAPI37method6Ev, .Lfunc_end45-_ZN15CSSPropertyAPI37method6Ev
	.cfi_endproc
                                        # -- End function
	.globl	_ZN15CSSPropertyAPI37method7Ev # -- Begin function _ZN15CSSPropertyAPI37method7Ev
	.p2align	4, 0x90
	.type	_ZN15CSSPropertyAPI37method7Ev,@function
_ZN15CSSPropertyAPI37method7Ev:         # @_ZN15CSSPropertyAPI37method7Ev
	.cfi_startproc
# BB#0:                                 # %entry
	addl	$10, increment_me(%rip)
	retq
.Lfunc_end46:
	.size	_ZN15CSSPropertyAPI37method7Ev, .Lfunc_end46-_ZN15CSSPropertyAPI37method7Ev
	.cfi_endproc
                                        # -- End function
	.globl	_ZN15CSSPropertyAPI37method8Ev # -- Begin function _ZN15CSSPropertyAPI37method8Ev
	.p2align	4, 0x90
	.type	_ZN15CSSPropertyAPI37method8Ev,@function
_ZN15CSSPropertyAPI37method8Ev:         # @_ZN15CSSPropertyAPI37method8Ev
	.cfi_startproc
# BB#0:                                 # %entry
	addl	$11, increment_me(%rip)
	retq
.Lfunc_end47:
	.size	_ZN15CSSPropertyAPI37method8Ev, .Lfunc_end47-_ZN15CSSPropertyAPI37method8Ev
	.cfi_endproc
                                        # -- End function
	.globl	_ZN15CSSPropertyAPI37method9Ev # -- Begin function _ZN15CSSPropertyAPI37method9Ev
	.p2align	4, 0x90
	.type	_ZN15CSSPropertyAPI37method9Ev,@function
_ZN15CSSPropertyAPI37method9Ev:         # @_ZN15CSSPropertyAPI37method9Ev
	.cfi_startproc
# BB#0:                                 # %entry
	addl	$12, increment_me(%rip)
	retq
.Lfunc_end48:
	.size	_ZN15CSSPropertyAPI37method9Ev, .Lfunc_end48-_ZN15CSSPropertyAPI37method9Ev
	.cfi_endproc
                                        # -- End function
	.globl	_ZN15CSSPropertyAPI38method10Ev # -- Begin function _ZN15CSSPropertyAPI38method10Ev
	.p2align	4, 0x90
	.type	_ZN15CSSPropertyAPI38method10Ev,@function
_ZN15CSSPropertyAPI38method10Ev:        # @_ZN15CSSPropertyAPI38method10Ev
	.cfi_startproc
# BB#0:                                 # %entry
	addl	$13, increment_me(%rip)
	retq
.Lfunc_end49:
	.size	_ZN15CSSPropertyAPI38method10Ev, .Lfunc_end49-_ZN15CSSPropertyAPI38method10Ev
	.cfi_endproc
                                        # -- End function
	.globl	_ZN15CSSPropertyAPI38method11Ev # -- Begin function _ZN15CSSPropertyAPI38method11Ev
	.p2align	4, 0x90
	.type	_ZN15CSSPropertyAPI38method11Ev,@function
_ZN15CSSPropertyAPI38method11Ev:        # @_ZN15CSSPropertyAPI38method11Ev
	.cfi_startproc
# BB#0:                                 # %entry
	addl	$14, increment_me(%rip)
	retq
.Lfunc_end50:
	.size	_ZN15CSSPropertyAPI38method11Ev, .Lfunc_end50-_ZN15CSSPropertyAPI38method11Ev
	.cfi_endproc
                                        # -- End function
	.globl	_ZN15CSSPropertyAPI38method12Ev # -- Begin function _ZN15CSSPropertyAPI38method12Ev
	.p2align	4, 0x90
	.type	_ZN15CSSPropertyAPI38method12Ev,@function
_ZN15CSSPropertyAPI38method12Ev:        # @_ZN15CSSPropertyAPI38method12Ev
	.cfi_startproc
# BB#0:                                 # %entry
	addl	$15, increment_me(%rip)
	retq
.Lfunc_end51:
	.size	_ZN15CSSPropertyAPI38method12Ev, .Lfunc_end51-_ZN15CSSPropertyAPI38method12Ev
	.cfi_endproc
                                        # -- End function
	.globl	_ZN15CSSPropertyAPI38method13Ev # -- Begin function _ZN15CSSPropertyAPI38method13Ev
	.p2align	4, 0x90
	.type	_ZN15CSSPropertyAPI38method13Ev,@function
_ZN15CSSPropertyAPI38method13Ev:        # @_ZN15CSSPropertyAPI38method13Ev
	.cfi_startproc
# BB#0:                                 # %entry
	addl	$16, increment_me(%rip)
	retq
.Lfunc_end52:
	.size	_ZN15CSSPropertyAPI38method13Ev, .Lfunc_end52-_ZN15CSSPropertyAPI38method13Ev
	.cfi_endproc
                                        # -- End function
	.globl	_ZN15CSSPropertyAPI38method14Ev # -- Begin function _ZN15CSSPropertyAPI38method14Ev
	.p2align	4, 0x90
	.type	_ZN15CSSPropertyAPI38method14Ev,@function
_ZN15CSSPropertyAPI38method14Ev:        # @_ZN15CSSPropertyAPI38method14Ev
	.cfi_startproc
# BB#0:                                 # %entry
	addl	$17, increment_me(%rip)
	retq
.Lfunc_end53:
	.size	_ZN15CSSPropertyAPI38method14Ev, .Lfunc_end53-_ZN15CSSPropertyAPI38method14Ev
	.cfi_endproc
                                        # -- End function
	.globl	_ZN15CSSPropertyAPI38method15Ev # -- Begin function _ZN15CSSPropertyAPI38method15Ev
	.p2align	4, 0x90
	.type	_ZN15CSSPropertyAPI38method15Ev,@function
_ZN15CSSPropertyAPI38method15Ev:        # @_ZN15CSSPropertyAPI38method15Ev
	.cfi_startproc
# BB#0:                                 # %entry
	addl	$18, increment_me(%rip)
	retq
.Lfunc_end54:
	.size	_ZN15CSSPropertyAPI38method15Ev, .Lfunc_end54-_ZN15CSSPropertyAPI38method15Ev
	.cfi_endproc
                                        # -- End function
	.globl	_ZN15CSSPropertyAPI38method16Ev # -- Begin function _ZN15CSSPropertyAPI38method16Ev
	.p2align	4, 0x90
	.type	_ZN15CSSPropertyAPI38method16Ev,@function
_ZN15CSSPropertyAPI38method16Ev:        # @_ZN15CSSPropertyAPI38method16Ev
	.cfi_startproc
# BB#0:                                 # %entry
	addl	$19, increment_me(%rip)
	retq
.Lfunc_end55:
	.size	_ZN15CSSPropertyAPI38method16Ev, .Lfunc_end55-_ZN15CSSPropertyAPI38method16Ev
	.cfi_endproc
                                        # -- End function
	.globl	_ZN15CSSPropertyAPI38method17Ev # -- Begin function _ZN15CSSPropertyAPI38method17Ev
	.p2align	4, 0x90
	.type	_ZN15CSSPropertyAPI38method17Ev,@function
_ZN15CSSPropertyAPI38method17Ev:        # @_ZN15CSSPropertyAPI38method17Ev
	.cfi_startproc
# BB#0:                                 # %entry
	addl	$20, increment_me(%rip)
	retq
.Lfunc_end56:
	.size	_ZN15CSSPropertyAPI38method17Ev, .Lfunc_end56-_ZN15CSSPropertyAPI38method17Ev
	.cfi_endproc
                                        # -- End function
	.globl	_ZN15CSSPropertyAPI38method18Ev # -- Begin function _ZN15CSSPropertyAPI38method18Ev
	.p2align	4, 0x90
	.type	_ZN15CSSPropertyAPI38method18Ev,@function
_ZN15CSSPropertyAPI38method18Ev:        # @_ZN15CSSPropertyAPI38method18Ev
	.cfi_startproc
# BB#0:                                 # %entry
	addl	$21, increment_me(%rip)
	retq
.Lfunc_end57:
	.size	_ZN15CSSPropertyAPI38method18Ev, .Lfunc_end57-_ZN15CSSPropertyAPI38method18Ev
	.cfi_endproc
                                        # -- End function
	.globl	_ZN15CSSPropertyAPI38method19Ev # -- Begin function _ZN15CSSPropertyAPI38method19Ev
	.p2align	4, 0x90
	.type	_ZN15CSSPropertyAPI38method19Ev,@function
_ZN15CSSPropertyAPI38method19Ev:        # @_ZN15CSSPropertyAPI38method19Ev
	.cfi_startproc
# BB#0:                                 # %entry
	addl	$22, increment_me(%rip)
	retq
.Lfunc_end58:
	.size	_ZN15CSSPropertyAPI38method19Ev, .Lfunc_end58-_ZN15CSSPropertyAPI38method19Ev
	.cfi_endproc
                                        # -- End function
	.globl	_ZN15CSSPropertyAPI38method20Ev # -- Begin function _ZN15CSSPropertyAPI38method20Ev
	.p2align	4, 0x90
	.type	_ZN15CSSPropertyAPI38method20Ev,@function
_ZN15CSSPropertyAPI38method20Ev:        # @_ZN15CSSPropertyAPI38method20Ev
	.cfi_startproc
# BB#0:                                 # %entry
	addl	$23, increment_me(%rip)
	retq
.Lfunc_end59:
	.size	_ZN15CSSPropertyAPI38method20Ev, .Lfunc_end59-_ZN15CSSPropertyAPI38method20Ev
	.cfi_endproc
                                        # -- End function
	.globl	_ZN15CSSPropertyAPI47method1Ev # -- Begin function _ZN15CSSPropertyAPI47method1Ev
	.p2align	4, 0x90
	.type	_ZN15CSSPropertyAPI47method1Ev,@function
_ZN15CSSPropertyAPI47method1Ev:         # @_ZN15CSSPropertyAPI47method1Ev
	.cfi_startproc
# BB#0:                                 # %entry
	addl	$5, increment_me(%rip)
	retq
.Lfunc_end60:
	.size	_ZN15CSSPropertyAPI47method1Ev, .Lfunc_end60-_ZN15CSSPropertyAPI47method1Ev
	.cfi_endproc
                                        # -- End function
	.globl	_ZN15CSSPropertyAPI47method2Ev # -- Begin function _ZN15CSSPropertyAPI47method2Ev
	.p2align	4, 0x90
	.type	_ZN15CSSPropertyAPI47method2Ev,@function
_ZN15CSSPropertyAPI47method2Ev:         # @_ZN15CSSPropertyAPI47method2Ev
	.cfi_startproc
# BB#0:                                 # %entry
	addl	$6, increment_me(%rip)
	retq
.Lfunc_end61:
	.size	_ZN15CSSPropertyAPI47method2Ev, .Lfunc_end61-_ZN15CSSPropertyAPI47method2Ev
	.cfi_endproc
                                        # -- End function
	.globl	_ZN15CSSPropertyAPI47method3Ev # -- Begin function _ZN15CSSPropertyAPI47method3Ev
	.p2align	4, 0x90
	.type	_ZN15CSSPropertyAPI47method3Ev,@function
_ZN15CSSPropertyAPI47method3Ev:         # @_ZN15CSSPropertyAPI47method3Ev
	.cfi_startproc
# BB#0:                                 # %entry
	addl	$7, increment_me(%rip)
	retq
.Lfunc_end62:
	.size	_ZN15CSSPropertyAPI47method3Ev, .Lfunc_end62-_ZN15CSSPropertyAPI47method3Ev
	.cfi_endproc
                                        # -- End function
	.globl	_ZN15CSSPropertyAPI47method4Ev # -- Begin function _ZN15CSSPropertyAPI47method4Ev
	.p2align	4, 0x90
	.type	_ZN15CSSPropertyAPI47method4Ev,@function
_ZN15CSSPropertyAPI47method4Ev:         # @_ZN15CSSPropertyAPI47method4Ev
	.cfi_startproc
# BB#0:                                 # %entry
	addl	$8, increment_me(%rip)
	retq
.Lfunc_end63:
	.size	_ZN15CSSPropertyAPI47method4Ev, .Lfunc_end63-_ZN15CSSPropertyAPI47method4Ev
	.cfi_endproc
                                        # -- End function
	.globl	_ZN15CSSPropertyAPI47method5Ev # -- Begin function _ZN15CSSPropertyAPI47method5Ev
	.p2align	4, 0x90
	.type	_ZN15CSSPropertyAPI47method5Ev,@function
_ZN15CSSPropertyAPI47method5Ev:         # @_ZN15CSSPropertyAPI47method5Ev
	.cfi_startproc
# BB#0:                                 # %entry
	addl	$9, increment_me(%rip)
	retq
.Lfunc_end64:
	.size	_ZN15CSSPropertyAPI47method5Ev, .Lfunc_end64-_ZN15CSSPropertyAPI47method5Ev
	.cfi_endproc
                                        # -- End function
	.globl	_ZN15CSSPropertyAPI47method6Ev # -- Begin function _ZN15CSSPropertyAPI47method6Ev
	.p2align	4, 0x90
	.type	_ZN15CSSPropertyAPI47method6Ev,@function
_ZN15CSSPropertyAPI47method6Ev:         # @_ZN15CSSPropertyAPI47method6Ev
	.cfi_startproc
# BB#0:                                 # %entry
	addl	$10, increment_me(%rip)
	retq
.Lfunc_end65:
	.size	_ZN15CSSPropertyAPI47method6Ev, .Lfunc_end65-_ZN15CSSPropertyAPI47method6Ev
	.cfi_endproc
                                        # -- End function
	.globl	_ZN15CSSPropertyAPI47method7Ev # -- Begin function _ZN15CSSPropertyAPI47method7Ev
	.p2align	4, 0x90
	.type	_ZN15CSSPropertyAPI47method7Ev,@function
_ZN15CSSPropertyAPI47method7Ev:         # @_ZN15CSSPropertyAPI47method7Ev
	.cfi_startproc
# BB#0:                                 # %entry
	addl	$11, increment_me(%rip)
	retq
.Lfunc_end66:
	.size	_ZN15CSSPropertyAPI47method7Ev, .Lfunc_end66-_ZN15CSSPropertyAPI47method7Ev
	.cfi_endproc
                                        # -- End function
	.globl	_ZN15CSSPropertyAPI47method8Ev # -- Begin function _ZN15CSSPropertyAPI47method8Ev
	.p2align	4, 0x90
	.type	_ZN15CSSPropertyAPI47method8Ev,@function
_ZN15CSSPropertyAPI47method8Ev:         # @_ZN15CSSPropertyAPI47method8Ev
	.cfi_startproc
# BB#0:                                 # %entry
	addl	$12, increment_me(%rip)
	retq
.Lfunc_end67:
	.size	_ZN15CSSPropertyAPI47method8Ev, .Lfunc_end67-_ZN15CSSPropertyAPI47method8Ev
	.cfi_endproc
                                        # -- End function
	.globl	_ZN15CSSPropertyAPI47method9Ev # -- Begin function _ZN15CSSPropertyAPI47method9Ev
	.p2align	4, 0x90
	.type	_ZN15CSSPropertyAPI47method9Ev,@function
_ZN15CSSPropertyAPI47method9Ev:         # @_ZN15CSSPropertyAPI47method9Ev
	.cfi_startproc
# BB#0:                                 # %entry
	addl	$13, increment_me(%rip)
	retq
.Lfunc_end68:
	.size	_ZN15CSSPropertyAPI47method9Ev, .Lfunc_end68-_ZN15CSSPropertyAPI47method9Ev
	.cfi_endproc
                                        # -- End function
	.globl	_ZN15CSSPropertyAPI48method10Ev # -- Begin function _ZN15CSSPropertyAPI48method10Ev
	.p2align	4, 0x90
	.type	_ZN15CSSPropertyAPI48method10Ev,@function
_ZN15CSSPropertyAPI48method10Ev:        # @_ZN15CSSPropertyAPI48method10Ev
	.cfi_startproc
# BB#0:                                 # %entry
	addl	$14, increment_me(%rip)
	retq
.Lfunc_end69:
	.size	_ZN15CSSPropertyAPI48method10Ev, .Lfunc_end69-_ZN15CSSPropertyAPI48method10Ev
	.cfi_endproc
                                        # -- End function
	.globl	_ZN15CSSPropertyAPI48method11Ev # -- Begin function _ZN15CSSPropertyAPI48method11Ev
	.p2align	4, 0x90
	.type	_ZN15CSSPropertyAPI48method11Ev,@function
_ZN15CSSPropertyAPI48method11Ev:        # @_ZN15CSSPropertyAPI48method11Ev
	.cfi_startproc
# BB#0:                                 # %entry
	addl	$15, increment_me(%rip)
	retq
.Lfunc_end70:
	.size	_ZN15CSSPropertyAPI48method11Ev, .Lfunc_end70-_ZN15CSSPropertyAPI48method11Ev
	.cfi_endproc
                                        # -- End function
	.globl	_ZN15CSSPropertyAPI48method12Ev # -- Begin function _ZN15CSSPropertyAPI48method12Ev
	.p2align	4, 0x90
	.type	_ZN15CSSPropertyAPI48method12Ev,@function
_ZN15CSSPropertyAPI48method12Ev:        # @_ZN15CSSPropertyAPI48method12Ev
	.cfi_startproc
# BB#0:                                 # %entry
	addl	$16, increment_me(%rip)
	retq
.Lfunc_end71:
	.size	_ZN15CSSPropertyAPI48method12Ev, .Lfunc_end71-_ZN15CSSPropertyAPI48method12Ev
	.cfi_endproc
                                        # -- End function
	.globl	_ZN15CSSPropertyAPI48method13Ev # -- Begin function _ZN15CSSPropertyAPI48method13Ev
	.p2align	4, 0x90
	.type	_ZN15CSSPropertyAPI48method13Ev,@function
_ZN15CSSPropertyAPI48method13Ev:        # @_ZN15CSSPropertyAPI48method13Ev
	.cfi_startproc
# BB#0:                                 # %entry
	addl	$17, increment_me(%rip)
	retq
.Lfunc_end72:
	.size	_ZN15CSSPropertyAPI48method13Ev, .Lfunc_end72-_ZN15CSSPropertyAPI48method13Ev
	.cfi_endproc
                                        # -- End function
	.globl	_ZN15CSSPropertyAPI48method14Ev # -- Begin function _ZN15CSSPropertyAPI48method14Ev
	.p2align	4, 0x90
	.type	_ZN15CSSPropertyAPI48method14Ev,@function
_ZN15CSSPropertyAPI48method14Ev:        # @_ZN15CSSPropertyAPI48method14Ev
	.cfi_startproc
# BB#0:                                 # %entry
	addl	$18, increment_me(%rip)
	retq
.Lfunc_end73:
	.size	_ZN15CSSPropertyAPI48method14Ev, .Lfunc_end73-_ZN15CSSPropertyAPI48method14Ev
	.cfi_endproc
                                        # -- End function
	.globl	_ZN15CSSPropertyAPI48method15Ev # -- Begin function _ZN15CSSPropertyAPI48method15Ev
	.p2align	4, 0x90
	.type	_ZN15CSSPropertyAPI48method15Ev,@function
_ZN15CSSPropertyAPI48method15Ev:        # @_ZN15CSSPropertyAPI48method15Ev
	.cfi_startproc
# BB#0:                                 # %entry
	addl	$19, increment_me(%rip)
	retq
.Lfunc_end74:
	.size	_ZN15CSSPropertyAPI48method15Ev, .Lfunc_end74-_ZN15CSSPropertyAPI48method15Ev
	.cfi_endproc
                                        # -- End function
	.globl	_ZN15CSSPropertyAPI48method16Ev # -- Begin function _ZN15CSSPropertyAPI48method16Ev
	.p2align	4, 0x90
	.type	_ZN15CSSPropertyAPI48method16Ev,@function
_ZN15CSSPropertyAPI48method16Ev:        # @_ZN15CSSPropertyAPI48method16Ev
	.cfi_startproc
# BB#0:                                 # %entry
	addl	$20, increment_me(%rip)
	retq
.Lfunc_end75:
	.size	_ZN15CSSPropertyAPI48method16Ev, .Lfunc_end75-_ZN15CSSPropertyAPI48method16Ev
	.cfi_endproc
                                        # -- End function
	.globl	_ZN15CSSPropertyAPI48method17Ev # -- Begin function _ZN15CSSPropertyAPI48method17Ev
	.p2align	4, 0x90
	.type	_ZN15CSSPropertyAPI48method17Ev,@function
_ZN15CSSPropertyAPI48method17Ev:        # @_ZN15CSSPropertyAPI48method17Ev
	.cfi_startproc
# BB#0:                                 # %entry
	addl	$21, increment_me(%rip)
	retq
.Lfunc_end76:
	.size	_ZN15CSSPropertyAPI48method17Ev, .Lfunc_end76-_ZN15CSSPropertyAPI48method17Ev
	.cfi_endproc
                                        # -- End function
	.globl	_ZN15CSSPropertyAPI48method18Ev # -- Begin function _ZN15CSSPropertyAPI48method18Ev
	.p2align	4, 0x90
	.type	_ZN15CSSPropertyAPI48method18Ev,@function
_ZN15CSSPropertyAPI48method18Ev:        # @_ZN15CSSPropertyAPI48method18Ev
	.cfi_startproc
# BB#0:                                 # %entry
	addl	$22, increment_me(%rip)
	retq
.Lfunc_end77:
	.size	_ZN15CSSPropertyAPI48method18Ev, .Lfunc_end77-_ZN15CSSPropertyAPI48method18Ev
	.cfi_endproc
                                        # -- End function
	.globl	_ZN15CSSPropertyAPI48method19Ev # -- Begin function _ZN15CSSPropertyAPI48method19Ev
	.p2align	4, 0x90
	.type	_ZN15CSSPropertyAPI48method19Ev,@function
_ZN15CSSPropertyAPI48method19Ev:        # @_ZN15CSSPropertyAPI48method19Ev
	.cfi_startproc
# BB#0:                                 # %entry
	addl	$23, increment_me(%rip)
	retq
.Lfunc_end78:
	.size	_ZN15CSSPropertyAPI48method19Ev, .Lfunc_end78-_ZN15CSSPropertyAPI48method19Ev
	.cfi_endproc
                                        # -- End function
	.globl	_ZN15CSSPropertyAPI48method20Ev # -- Begin function _ZN15CSSPropertyAPI48method20Ev
	.p2align	4, 0x90
	.type	_ZN15CSSPropertyAPI48method20Ev,@function
_ZN15CSSPropertyAPI48method20Ev:        # @_ZN15CSSPropertyAPI48method20Ev
	.cfi_startproc
# BB#0:                                 # %entry
	addl	$24, increment_me(%rip)
	retq
.Lfunc_end79:
	.size	_ZN15CSSPropertyAPI48method20Ev, .Lfunc_end79-_ZN15CSSPropertyAPI48method20Ev
	.cfi_endproc
                                        # -- End function
	.globl	_ZN15CSSPropertyAPI57method1Ev # -- Begin function _ZN15CSSPropertyAPI57method1Ev
	.p2align	4, 0x90
	.type	_ZN15CSSPropertyAPI57method1Ev,@function
_ZN15CSSPropertyAPI57method1Ev:         # @_ZN15CSSPropertyAPI57method1Ev
	.cfi_startproc
# BB#0:                                 # %entry
	addl	$6, increment_me(%rip)
	retq
.Lfunc_end80:
	.size	_ZN15CSSPropertyAPI57method1Ev, .Lfunc_end80-_ZN15CSSPropertyAPI57method1Ev
	.cfi_endproc
                                        # -- End function
	.globl	_ZN15CSSPropertyAPI57method2Ev # -- Begin function _ZN15CSSPropertyAPI57method2Ev
	.p2align	4, 0x90
	.type	_ZN15CSSPropertyAPI57method2Ev,@function
_ZN15CSSPropertyAPI57method2Ev:         # @_ZN15CSSPropertyAPI57method2Ev
	.cfi_startproc
# BB#0:                                 # %entry
	addl	$7, increment_me(%rip)
	retq
.Lfunc_end81:
	.size	_ZN15CSSPropertyAPI57method2Ev, .Lfunc_end81-_ZN15CSSPropertyAPI57method2Ev
	.cfi_endproc
                                        # -- End function
	.globl	_ZN15CSSPropertyAPI57method3Ev # -- Begin function _ZN15CSSPropertyAPI57method3Ev
	.p2align	4, 0x90
	.type	_ZN15CSSPropertyAPI57method3Ev,@function
_ZN15CSSPropertyAPI57method3Ev:         # @_ZN15CSSPropertyAPI57method3Ev
	.cfi_startproc
# BB#0:                                 # %entry
	addl	$8, increment_me(%rip)
	retq
.Lfunc_end82:
	.size	_ZN15CSSPropertyAPI57method3Ev, .Lfunc_end82-_ZN15CSSPropertyAPI57method3Ev
	.cfi_endproc
                                        # -- End function
	.globl	_ZN15CSSPropertyAPI57method4Ev # -- Begin function _ZN15CSSPropertyAPI57method4Ev
	.p2align	4, 0x90
	.type	_ZN15CSSPropertyAPI57method4Ev,@function
_ZN15CSSPropertyAPI57method4Ev:         # @_ZN15CSSPropertyAPI57method4Ev
	.cfi_startproc
# BB#0:                                 # %entry
	addl	$9, increment_me(%rip)
	retq
.Lfunc_end83:
	.size	_ZN15CSSPropertyAPI57method4Ev, .Lfunc_end83-_ZN15CSSPropertyAPI57method4Ev
	.cfi_endproc
                                        # -- End function
	.globl	_ZN15CSSPropertyAPI57method5Ev # -- Begin function _ZN15CSSPropertyAPI57method5Ev
	.p2align	4, 0x90
	.type	_ZN15CSSPropertyAPI57method5Ev,@function
_ZN15CSSPropertyAPI57method5Ev:         # @_ZN15CSSPropertyAPI57method5Ev
	.cfi_startproc
# BB#0:                                 # %entry
	addl	$10, increment_me(%rip)
	retq
.Lfunc_end84:
	.size	_ZN15CSSPropertyAPI57method5Ev, .Lfunc_end84-_ZN15CSSPropertyAPI57method5Ev
	.cfi_endproc
                                        # -- End function
	.globl	_ZN15CSSPropertyAPI57method6Ev # -- Begin function _ZN15CSSPropertyAPI57method6Ev
	.p2align	4, 0x90
	.type	_ZN15CSSPropertyAPI57method6Ev,@function
_ZN15CSSPropertyAPI57method6Ev:         # @_ZN15CSSPropertyAPI57method6Ev
	.cfi_startproc
# BB#0:                                 # %entry
	addl	$11, increment_me(%rip)
	retq
.Lfunc_end85:
	.size	_ZN15CSSPropertyAPI57method6Ev, .Lfunc_end85-_ZN15CSSPropertyAPI57method6Ev
	.cfi_endproc
                                        # -- End function
	.globl	_ZN15CSSPropertyAPI57method7Ev # -- Begin function _ZN15CSSPropertyAPI57method7Ev
	.p2align	4, 0x90
	.type	_ZN15CSSPropertyAPI57method7Ev,@function
_ZN15CSSPropertyAPI57method7Ev:         # @_ZN15CSSPropertyAPI57method7Ev
	.cfi_startproc
# BB#0:                                 # %entry
	addl	$12, increment_me(%rip)
	retq
.Lfunc_end86:
	.size	_ZN15CSSPropertyAPI57method7Ev, .Lfunc_end86-_ZN15CSSPropertyAPI57method7Ev
	.cfi_endproc
                                        # -- End function
	.globl	_ZN15CSSPropertyAPI57method8Ev # -- Begin function _ZN15CSSPropertyAPI57method8Ev
	.p2align	4, 0x90
	.type	_ZN15CSSPropertyAPI57method8Ev,@function
_ZN15CSSPropertyAPI57method8Ev:         # @_ZN15CSSPropertyAPI57method8Ev
	.cfi_startproc
# BB#0:                                 # %entry
	addl	$13, increment_me(%rip)
	retq
.Lfunc_end87:
	.size	_ZN15CSSPropertyAPI57method8Ev, .Lfunc_end87-_ZN15CSSPropertyAPI57method8Ev
	.cfi_endproc
                                        # -- End function
	.globl	_ZN15CSSPropertyAPI57method9Ev # -- Begin function _ZN15CSSPropertyAPI57method9Ev
	.p2align	4, 0x90
	.type	_ZN15CSSPropertyAPI57method9Ev,@function
_ZN15CSSPropertyAPI57method9Ev:         # @_ZN15CSSPropertyAPI57method9Ev
	.cfi_startproc
# BB#0:                                 # %entry
	addl	$14, increment_me(%rip)
	retq
.Lfunc_end88:
	.size	_ZN15CSSPropertyAPI57method9Ev, .Lfunc_end88-_ZN15CSSPropertyAPI57method9Ev
	.cfi_endproc
                                        # -- End function
	.globl	_ZN15CSSPropertyAPI58method10Ev # -- Begin function _ZN15CSSPropertyAPI58method10Ev
	.p2align	4, 0x90
	.type	_ZN15CSSPropertyAPI58method10Ev,@function
_ZN15CSSPropertyAPI58method10Ev:        # @_ZN15CSSPropertyAPI58method10Ev
	.cfi_startproc
# BB#0:                                 # %entry
	addl	$15, increment_me(%rip)
	retq
.Lfunc_end89:
	.size	_ZN15CSSPropertyAPI58method10Ev, .Lfunc_end89-_ZN15CSSPropertyAPI58method10Ev
	.cfi_endproc
                                        # -- End function
	.globl	_ZN15CSSPropertyAPI58method11Ev # -- Begin function _ZN15CSSPropertyAPI58method11Ev
	.p2align	4, 0x90
	.type	_ZN15CSSPropertyAPI58method11Ev,@function
_ZN15CSSPropertyAPI58method11Ev:        # @_ZN15CSSPropertyAPI58method11Ev
	.cfi_startproc
# BB#0:                                 # %entry
	addl	$16, increment_me(%rip)
	retq
.Lfunc_end90:
	.size	_ZN15CSSPropertyAPI58method11Ev, .Lfunc_end90-_ZN15CSSPropertyAPI58method11Ev
	.cfi_endproc
                                        # -- End function
	.globl	_ZN15CSSPropertyAPI58method12Ev # -- Begin function _ZN15CSSPropertyAPI58method12Ev
	.p2align	4, 0x90
	.type	_ZN15CSSPropertyAPI58method12Ev,@function
_ZN15CSSPropertyAPI58method12Ev:        # @_ZN15CSSPropertyAPI58method12Ev
	.cfi_startproc
# BB#0:                                 # %entry
	addl	$17, increment_me(%rip)
	retq
.Lfunc_end91:
	.size	_ZN15CSSPropertyAPI58method12Ev, .Lfunc_end91-_ZN15CSSPropertyAPI58method12Ev
	.cfi_endproc
                                        # -- End function
	.globl	_ZN15CSSPropertyAPI58method13Ev # -- Begin function _ZN15CSSPropertyAPI58method13Ev
	.p2align	4, 0x90
	.type	_ZN15CSSPropertyAPI58method13Ev,@function
_ZN15CSSPropertyAPI58method13Ev:        # @_ZN15CSSPropertyAPI58method13Ev
	.cfi_startproc
# BB#0:                                 # %entry
	addl	$18, increment_me(%rip)
	retq
.Lfunc_end92:
	.size	_ZN15CSSPropertyAPI58method13Ev, .Lfunc_end92-_ZN15CSSPropertyAPI58method13Ev
	.cfi_endproc
                                        # -- End function
	.globl	_ZN15CSSPropertyAPI58method14Ev # -- Begin function _ZN15CSSPropertyAPI58method14Ev
	.p2align	4, 0x90
	.type	_ZN15CSSPropertyAPI58method14Ev,@function
_ZN15CSSPropertyAPI58method14Ev:        # @_ZN15CSSPropertyAPI58method14Ev
	.cfi_startproc
# BB#0:                                 # %entry
	addl	$19, increment_me(%rip)
	retq
.Lfunc_end93:
	.size	_ZN15CSSPropertyAPI58method14Ev, .Lfunc_end93-_ZN15CSSPropertyAPI58method14Ev
	.cfi_endproc
                                        # -- End function
	.globl	_ZN15CSSPropertyAPI58method15Ev # -- Begin function _ZN15CSSPropertyAPI58method15Ev
	.p2align	4, 0x90
	.type	_ZN15CSSPropertyAPI58method15Ev,@function
_ZN15CSSPropertyAPI58method15Ev:        # @_ZN15CSSPropertyAPI58method15Ev
	.cfi_startproc
# BB#0:                                 # %entry
	addl	$20, increment_me(%rip)
	retq
.Lfunc_end94:
	.size	_ZN15CSSPropertyAPI58method15Ev, .Lfunc_end94-_ZN15CSSPropertyAPI58method15Ev
	.cfi_endproc
                                        # -- End function
	.globl	_ZN15CSSPropertyAPI58method16Ev # -- Begin function _ZN15CSSPropertyAPI58method16Ev
	.p2align	4, 0x90
	.type	_ZN15CSSPropertyAPI58method16Ev,@function
_ZN15CSSPropertyAPI58method16Ev:        # @_ZN15CSSPropertyAPI58method16Ev
	.cfi_startproc
# BB#0:                                 # %entry
	addl	$21, increment_me(%rip)
	retq
.Lfunc_end95:
	.size	_ZN15CSSPropertyAPI58method16Ev, .Lfunc_end95-_ZN15CSSPropertyAPI58method16Ev
	.cfi_endproc
                                        # -- End function
	.globl	_ZN15CSSPropertyAPI58method17Ev # -- Begin function _ZN15CSSPropertyAPI58method17Ev
	.p2align	4, 0x90
	.type	_ZN15CSSPropertyAPI58method17Ev,@function
_ZN15CSSPropertyAPI58method17Ev:        # @_ZN15CSSPropertyAPI58method17Ev
	.cfi_startproc
# BB#0:                                 # %entry
	addl	$22, increment_me(%rip)
	retq
.Lfunc_end96:
	.size	_ZN15CSSPropertyAPI58method17Ev, .Lfunc_end96-_ZN15CSSPropertyAPI58method17Ev
	.cfi_endproc
                                        # -- End function
	.globl	_ZN15CSSPropertyAPI58method18Ev # -- Begin function _ZN15CSSPropertyAPI58method18Ev
	.p2align	4, 0x90
	.type	_ZN15CSSPropertyAPI58method18Ev,@function
_ZN15CSSPropertyAPI58method18Ev:        # @_ZN15CSSPropertyAPI58method18Ev
	.cfi_startproc
# BB#0:                                 # %entry
	addl	$23, increment_me(%rip)
	retq
.Lfunc_end97:
	.size	_ZN15CSSPropertyAPI58method18Ev, .Lfunc_end97-_ZN15CSSPropertyAPI58method18Ev
	.cfi_endproc
                                        # -- End function
	.globl	_ZN15CSSPropertyAPI58method19Ev # -- Begin function _ZN15CSSPropertyAPI58method19Ev
	.p2align	4, 0x90
	.type	_ZN15CSSPropertyAPI58method19Ev,@function
_ZN15CSSPropertyAPI58method19Ev:        # @_ZN15CSSPropertyAPI58method19Ev
	.cfi_startproc
# BB#0:                                 # %entry
	addl	$24, increment_me(%rip)
	retq
.Lfunc_end98:
	.size	_ZN15CSSPropertyAPI58method19Ev, .Lfunc_end98-_ZN15CSSPropertyAPI58method19Ev
	.cfi_endproc
                                        # -- End function
	.globl	_ZN15CSSPropertyAPI58method20Ev # -- Begin function _ZN15CSSPropertyAPI58method20Ev
	.p2align	4, 0x90
	.type	_ZN15CSSPropertyAPI58method20Ev,@function
_ZN15CSSPropertyAPI58method20Ev:        # @_ZN15CSSPropertyAPI58method20Ev
	.cfi_startproc
# BB#0:                                 # %entry
	addl	$25, increment_me(%rip)
	retq
.Lfunc_end99:
	.size	_ZN15CSSPropertyAPI58method20Ev, .Lfunc_end99-_ZN15CSSPropertyAPI58method20Ev
	.cfi_endproc
                                        # -- End function
	.globl	_ZN15CSSPropertyAPI67method1Ev # -- Begin function _ZN15CSSPropertyAPI67method1Ev
	.p2align	4, 0x90
	.type	_ZN15CSSPropertyAPI67method1Ev,@function
_ZN15CSSPropertyAPI67method1Ev:         # @_ZN15CSSPropertyAPI67method1Ev
	.cfi_startproc
# BB#0:                                 # %entry
	addl	$7, increment_me(%rip)
	retq
.Lfunc_end100:
	.size	_ZN15CSSPropertyAPI67method1Ev, .Lfunc_end100-_ZN15CSSPropertyAPI67method1Ev
	.cfi_endproc
                                        # -- End function
	.globl	_ZN15CSSPropertyAPI67method2Ev # -- Begin function _ZN15CSSPropertyAPI67method2Ev
	.p2align	4, 0x90
	.type	_ZN15CSSPropertyAPI67method2Ev,@function
_ZN15CSSPropertyAPI67method2Ev:         # @_ZN15CSSPropertyAPI67method2Ev
	.cfi_startproc
# BB#0:                                 # %entry
	addl	$8, increment_me(%rip)
	retq
.Lfunc_end101:
	.size	_ZN15CSSPropertyAPI67method2Ev, .Lfunc_end101-_ZN15CSSPropertyAPI67method2Ev
	.cfi_endproc
                                        # -- End function
	.globl	_ZN15CSSPropertyAPI67method3Ev # -- Begin function _ZN15CSSPropertyAPI67method3Ev
	.p2align	4, 0x90
	.type	_ZN15CSSPropertyAPI67method3Ev,@function
_ZN15CSSPropertyAPI67method3Ev:         # @_ZN15CSSPropertyAPI67method3Ev
	.cfi_startproc
# BB#0:                                 # %entry
	addl	$9, increment_me(%rip)
	retq
.Lfunc_end102:
	.size	_ZN15CSSPropertyAPI67method3Ev, .Lfunc_end102-_ZN15CSSPropertyAPI67method3Ev
	.cfi_endproc
                                        # -- End function
	.globl	_ZN15CSSPropertyAPI67method4Ev # -- Begin function _ZN15CSSPropertyAPI67method4Ev
	.p2align	4, 0x90
	.type	_ZN15CSSPropertyAPI67method4Ev,@function
_ZN15CSSPropertyAPI67method4Ev:         # @_ZN15CSSPropertyAPI67method4Ev
	.cfi_startproc
# BB#0:                                 # %entry
	addl	$10, increment_me(%rip)
	retq
.Lfunc_end103:
	.size	_ZN15CSSPropertyAPI67method4Ev, .Lfunc_end103-_ZN15CSSPropertyAPI67method4Ev
	.cfi_endproc
                                        # -- End function
	.globl	_ZN15CSSPropertyAPI67method5Ev # -- Begin function _ZN15CSSPropertyAPI67method5Ev
	.p2align	4, 0x90
	.type	_ZN15CSSPropertyAPI67method5Ev,@function
_ZN15CSSPropertyAPI67method5Ev:         # @_ZN15CSSPropertyAPI67method5Ev
	.cfi_startproc
# BB#0:                                 # %entry
	addl	$11, increment_me(%rip)
	retq
.Lfunc_end104:
	.size	_ZN15CSSPropertyAPI67method5Ev, .Lfunc_end104-_ZN15CSSPropertyAPI67method5Ev
	.cfi_endproc
                                        # -- End function
	.globl	_ZN15CSSPropertyAPI67method6Ev # -- Begin function _ZN15CSSPropertyAPI67method6Ev
	.p2align	4, 0x90
	.type	_ZN15CSSPropertyAPI67method6Ev,@function
_ZN15CSSPropertyAPI67method6Ev:         # @_ZN15CSSPropertyAPI67method6Ev
	.cfi_startproc
# BB#0:                                 # %entry
	addl	$12, increment_me(%rip)
	retq
.Lfunc_end105:
	.size	_ZN15CSSPropertyAPI67method6Ev, .Lfunc_end105-_ZN15CSSPropertyAPI67method6Ev
	.cfi_endproc
                                        # -- End function
	.globl	_ZN15CSSPropertyAPI67method7Ev # -- Begin function _ZN15CSSPropertyAPI67method7Ev
	.p2align	4, 0x90
	.type	_ZN15CSSPropertyAPI67method7Ev,@function
_ZN15CSSPropertyAPI67method7Ev:         # @_ZN15CSSPropertyAPI67method7Ev
	.cfi_startproc
# BB#0:                                 # %entry
	addl	$13, increment_me(%rip)
	retq
.Lfunc_end106:
	.size	_ZN15CSSPropertyAPI67method7Ev, .Lfunc_end106-_ZN15CSSPropertyAPI67method7Ev
	.cfi_endproc
                                        # -- End function
	.globl	_ZN15CSSPropertyAPI67method8Ev # -- Begin function _ZN15CSSPropertyAPI67method8Ev
	.p2align	4, 0x90
	.type	_ZN15CSSPropertyAPI67method8Ev,@function
_ZN15CSSPropertyAPI67method8Ev:         # @_ZN15CSSPropertyAPI67method8Ev
	.cfi_startproc
# BB#0:                                 # %entry
	addl	$14, increment_me(%rip)
	retq
.Lfunc_end107:
	.size	_ZN15CSSPropertyAPI67method8Ev, .Lfunc_end107-_ZN15CSSPropertyAPI67method8Ev
	.cfi_endproc
                                        # -- End function
	.globl	_ZN15CSSPropertyAPI67method9Ev # -- Begin function _ZN15CSSPropertyAPI67method9Ev
	.p2align	4, 0x90
	.type	_ZN15CSSPropertyAPI67method9Ev,@function
_ZN15CSSPropertyAPI67method9Ev:         # @_ZN15CSSPropertyAPI67method9Ev
	.cfi_startproc
# BB#0:                                 # %entry
	addl	$15, increment_me(%rip)
	retq
.Lfunc_end108:
	.size	_ZN15CSSPropertyAPI67method9Ev, .Lfunc_end108-_ZN15CSSPropertyAPI67method9Ev
	.cfi_endproc
                                        # -- End function
	.globl	_ZN15CSSPropertyAPI68method10Ev # -- Begin function _ZN15CSSPropertyAPI68method10Ev
	.p2align	4, 0x90
	.type	_ZN15CSSPropertyAPI68method10Ev,@function
_ZN15CSSPropertyAPI68method10Ev:        # @_ZN15CSSPropertyAPI68method10Ev
	.cfi_startproc
# BB#0:                                 # %entry
	addl	$16, increment_me(%rip)
	retq
.Lfunc_end109:
	.size	_ZN15CSSPropertyAPI68method10Ev, .Lfunc_end109-_ZN15CSSPropertyAPI68method10Ev
	.cfi_endproc
                                        # -- End function
	.globl	_ZN15CSSPropertyAPI68method11Ev # -- Begin function _ZN15CSSPropertyAPI68method11Ev
	.p2align	4, 0x90
	.type	_ZN15CSSPropertyAPI68method11Ev,@function
_ZN15CSSPropertyAPI68method11Ev:        # @_ZN15CSSPropertyAPI68method11Ev
	.cfi_startproc
# BB#0:                                 # %entry
	addl	$17, increment_me(%rip)
	retq
.Lfunc_end110:
	.size	_ZN15CSSPropertyAPI68method11Ev, .Lfunc_end110-_ZN15CSSPropertyAPI68method11Ev
	.cfi_endproc
                                        # -- End function
	.globl	_ZN15CSSPropertyAPI68method12Ev # -- Begin function _ZN15CSSPropertyAPI68method12Ev
	.p2align	4, 0x90
	.type	_ZN15CSSPropertyAPI68method12Ev,@function
_ZN15CSSPropertyAPI68method12Ev:        # @_ZN15CSSPropertyAPI68method12Ev
	.cfi_startproc
# BB#0:                                 # %entry
	addl	$18, increment_me(%rip)
	retq
.Lfunc_end111:
	.size	_ZN15CSSPropertyAPI68method12Ev, .Lfunc_end111-_ZN15CSSPropertyAPI68method12Ev
	.cfi_endproc
                                        # -- End function
	.globl	_ZN15CSSPropertyAPI68method13Ev # -- Begin function _ZN15CSSPropertyAPI68method13Ev
	.p2align	4, 0x90
	.type	_ZN15CSSPropertyAPI68method13Ev,@function
_ZN15CSSPropertyAPI68method13Ev:        # @_ZN15CSSPropertyAPI68method13Ev
	.cfi_startproc
# BB#0:                                 # %entry
	addl	$19, increment_me(%rip)
	retq
.Lfunc_end112:
	.size	_ZN15CSSPropertyAPI68method13Ev, .Lfunc_end112-_ZN15CSSPropertyAPI68method13Ev
	.cfi_endproc
                                        # -- End function
	.globl	_ZN15CSSPropertyAPI68method14Ev # -- Begin function _ZN15CSSPropertyAPI68method14Ev
	.p2align	4, 0x90
	.type	_ZN15CSSPropertyAPI68method14Ev,@function
_ZN15CSSPropertyAPI68method14Ev:        # @_ZN15CSSPropertyAPI68method14Ev
	.cfi_startproc
# BB#0:                                 # %entry
	addl	$20, increment_me(%rip)
	retq
.Lfunc_end113:
	.size	_ZN15CSSPropertyAPI68method14Ev, .Lfunc_end113-_ZN15CSSPropertyAPI68method14Ev
	.cfi_endproc
                                        # -- End function
	.globl	_ZN15CSSPropertyAPI68method15Ev # -- Begin function _ZN15CSSPropertyAPI68method15Ev
	.p2align	4, 0x90
	.type	_ZN15CSSPropertyAPI68method15Ev,@function
_ZN15CSSPropertyAPI68method15Ev:        # @_ZN15CSSPropertyAPI68method15Ev
	.cfi_startproc
# BB#0:                                 # %entry
	addl	$21, increment_me(%rip)
	retq
.Lfunc_end114:
	.size	_ZN15CSSPropertyAPI68method15Ev, .Lfunc_end114-_ZN15CSSPropertyAPI68method15Ev
	.cfi_endproc
                                        # -- End function
	.globl	_ZN15CSSPropertyAPI68method16Ev # -- Begin function _ZN15CSSPropertyAPI68method16Ev
	.p2align	4, 0x90
	.type	_ZN15CSSPropertyAPI68method16Ev,@function
_ZN15CSSPropertyAPI68method16Ev:        # @_ZN15CSSPropertyAPI68method16Ev
	.cfi_startproc
# BB#0:                                 # %entry
	addl	$22, increment_me(%rip)
	retq
.Lfunc_end115:
	.size	_ZN15CSSPropertyAPI68method16Ev, .Lfunc_end115-_ZN15CSSPropertyAPI68method16Ev
	.cfi_endproc
                                        # -- End function
	.globl	_ZN15CSSPropertyAPI68method17Ev # -- Begin function _ZN15CSSPropertyAPI68method17Ev
	.p2align	4, 0x90
	.type	_ZN15CSSPropertyAPI68method17Ev,@function
_ZN15CSSPropertyAPI68method17Ev:        # @_ZN15CSSPropertyAPI68method17Ev
	.cfi_startproc
# BB#0:                                 # %entry
	addl	$23, increment_me(%rip)
	retq
.Lfunc_end116:
	.size	_ZN15CSSPropertyAPI68method17Ev, .Lfunc_end116-_ZN15CSSPropertyAPI68method17Ev
	.cfi_endproc
                                        # -- End function
	.globl	_ZN15CSSPropertyAPI68method18Ev # -- Begin function _ZN15CSSPropertyAPI68method18Ev
	.p2align	4, 0x90
	.type	_ZN15CSSPropertyAPI68method18Ev,@function
_ZN15CSSPropertyAPI68method18Ev:        # @_ZN15CSSPropertyAPI68method18Ev
	.cfi_startproc
# BB#0:                                 # %entry
	addl	$24, increment_me(%rip)
	retq
.Lfunc_end117:
	.size	_ZN15CSSPropertyAPI68method18Ev, .Lfunc_end117-_ZN15CSSPropertyAPI68method18Ev
	.cfi_endproc
                                        # -- End function
	.globl	_ZN15CSSPropertyAPI68method19Ev # -- Begin function _ZN15CSSPropertyAPI68method19Ev
	.p2align	4, 0x90
	.type	_ZN15CSSPropertyAPI68method19Ev,@function
_ZN15CSSPropertyAPI68method19Ev:        # @_ZN15CSSPropertyAPI68method19Ev
	.cfi_startproc
# BB#0:                                 # %entry
	addl	$25, increment_me(%rip)
	retq
.Lfunc_end118:
	.size	_ZN15CSSPropertyAPI68method19Ev, .Lfunc_end118-_ZN15CSSPropertyAPI68method19Ev
	.cfi_endproc
                                        # -- End function
	.globl	_ZN15CSSPropertyAPI68method20Ev # -- Begin function _ZN15CSSPropertyAPI68method20Ev
	.p2align	4, 0x90
	.type	_ZN15CSSPropertyAPI68method20Ev,@function
_ZN15CSSPropertyAPI68method20Ev:        # @_ZN15CSSPropertyAPI68method20Ev
	.cfi_startproc
# BB#0:                                 # %entry
	addl	$26, increment_me(%rip)
	retq
.Lfunc_end119:
	.size	_ZN15CSSPropertyAPI68method20Ev, .Lfunc_end119-_ZN15CSSPropertyAPI68method20Ev
	.cfi_endproc
                                        # -- End function
	.globl	_ZN15CSSPropertyAPI77method1Ev # -- Begin function _ZN15CSSPropertyAPI77method1Ev
	.p2align	4, 0x90
	.type	_ZN15CSSPropertyAPI77method1Ev,@function
_ZN15CSSPropertyAPI77method1Ev:         # @_ZN15CSSPropertyAPI77method1Ev
	.cfi_startproc
# BB#0:                                 # %entry
	addl	$8, increment_me(%rip)
	retq
.Lfunc_end120:
	.size	_ZN15CSSPropertyAPI77method1Ev, .Lfunc_end120-_ZN15CSSPropertyAPI77method1Ev
	.cfi_endproc
                                        # -- End function
	.globl	_ZN15CSSPropertyAPI77method2Ev # -- Begin function _ZN15CSSPropertyAPI77method2Ev
	.p2align	4, 0x90
	.type	_ZN15CSSPropertyAPI77method2Ev,@function
_ZN15CSSPropertyAPI77method2Ev:         # @_ZN15CSSPropertyAPI77method2Ev
	.cfi_startproc
# BB#0:                                 # %entry
	addl	$9, increment_me(%rip)
	retq
.Lfunc_end121:
	.size	_ZN15CSSPropertyAPI77method2Ev, .Lfunc_end121-_ZN15CSSPropertyAPI77method2Ev
	.cfi_endproc
                                        # -- End function
	.globl	_ZN15CSSPropertyAPI77method3Ev # -- Begin function _ZN15CSSPropertyAPI77method3Ev
	.p2align	4, 0x90
	.type	_ZN15CSSPropertyAPI77method3Ev,@function
_ZN15CSSPropertyAPI77method3Ev:         # @_ZN15CSSPropertyAPI77method3Ev
	.cfi_startproc
# BB#0:                                 # %entry
	addl	$10, increment_me(%rip)
	retq
.Lfunc_end122:
	.size	_ZN15CSSPropertyAPI77method3Ev, .Lfunc_end122-_ZN15CSSPropertyAPI77method3Ev
	.cfi_endproc
                                        # -- End function
	.globl	_ZN15CSSPropertyAPI77method4Ev # -- Begin function _ZN15CSSPropertyAPI77method4Ev
	.p2align	4, 0x90
	.type	_ZN15CSSPropertyAPI77method4Ev,@function
_ZN15CSSPropertyAPI77method4Ev:         # @_ZN15CSSPropertyAPI77method4Ev
	.cfi_startproc
# BB#0:                                 # %entry
	addl	$11, increment_me(%rip)
	retq
.Lfunc_end123:
	.size	_ZN15CSSPropertyAPI77method4Ev, .Lfunc_end123-_ZN15CSSPropertyAPI77method4Ev
	.cfi_endproc
                                        # -- End function
	.globl	_ZN15CSSPropertyAPI77method5Ev # -- Begin function _ZN15CSSPropertyAPI77method5Ev
	.p2align	4, 0x90
	.type	_ZN15CSSPropertyAPI77method5Ev,@function
_ZN15CSSPropertyAPI77method5Ev:         # @_ZN15CSSPropertyAPI77method5Ev
	.cfi_startproc
# BB#0:                                 # %entry
	addl	$12, increment_me(%rip)
	retq
.Lfunc_end124:
	.size	_ZN15CSSPropertyAPI77method5Ev, .Lfunc_end124-_ZN15CSSPropertyAPI77method5Ev
	.cfi_endproc
                                        # -- End function
	.globl	_ZN15CSSPropertyAPI77method6Ev # -- Begin function _ZN15CSSPropertyAPI77method6Ev
	.p2align	4, 0x90
	.type	_ZN15CSSPropertyAPI77method6Ev,@function
_ZN15CSSPropertyAPI77method6Ev:         # @_ZN15CSSPropertyAPI77method6Ev
	.cfi_startproc
# BB#0:                                 # %entry
	addl	$13, increment_me(%rip)
	retq
.Lfunc_end125:
	.size	_ZN15CSSPropertyAPI77method6Ev, .Lfunc_end125-_ZN15CSSPropertyAPI77method6Ev
	.cfi_endproc
                                        # -- End function
	.globl	_ZN15CSSPropertyAPI77method7Ev # -- Begin function _ZN15CSSPropertyAPI77method7Ev
	.p2align	4, 0x90
	.type	_ZN15CSSPropertyAPI77method7Ev,@function
_ZN15CSSPropertyAPI77method7Ev:         # @_ZN15CSSPropertyAPI77method7Ev
	.cfi_startproc
# BB#0:                                 # %entry
	addl	$14, increment_me(%rip)
	retq
.Lfunc_end126:
	.size	_ZN15CSSPropertyAPI77method7Ev, .Lfunc_end126-_ZN15CSSPropertyAPI77method7Ev
	.cfi_endproc
                                        # -- End function
	.globl	_ZN15CSSPropertyAPI77method8Ev # -- Begin function _ZN15CSSPropertyAPI77method8Ev
	.p2align	4, 0x90
	.type	_ZN15CSSPropertyAPI77method8Ev,@function
_ZN15CSSPropertyAPI77method8Ev:         # @_ZN15CSSPropertyAPI77method8Ev
	.cfi_startproc
# BB#0:                                 # %entry
	addl	$15, increment_me(%rip)
	retq
.Lfunc_end127:
	.size	_ZN15CSSPropertyAPI77method8Ev, .Lfunc_end127-_ZN15CSSPropertyAPI77method8Ev
	.cfi_endproc
                                        # -- End function
	.globl	_ZN15CSSPropertyAPI77method9Ev # -- Begin function _ZN15CSSPropertyAPI77method9Ev
	.p2align	4, 0x90
	.type	_ZN15CSSPropertyAPI77method9Ev,@function
_ZN15CSSPropertyAPI77method9Ev:         # @_ZN15CSSPropertyAPI77method9Ev
	.cfi_startproc
# BB#0:                                 # %entry
	addl	$16, increment_me(%rip)
	retq
.Lfunc_end128:
	.size	_ZN15CSSPropertyAPI77method9Ev, .Lfunc_end128-_ZN15CSSPropertyAPI77method9Ev
	.cfi_endproc
                                        # -- End function
	.globl	_ZN15CSSPropertyAPI78method10Ev # -- Begin function _ZN15CSSPropertyAPI78method10Ev
	.p2align	4, 0x90
	.type	_ZN15CSSPropertyAPI78method10Ev,@function
_ZN15CSSPropertyAPI78method10Ev:        # @_ZN15CSSPropertyAPI78method10Ev
	.cfi_startproc
# BB#0:                                 # %entry
	addl	$17, increment_me(%rip)
	retq
.Lfunc_end129:
	.size	_ZN15CSSPropertyAPI78method10Ev, .Lfunc_end129-_ZN15CSSPropertyAPI78method10Ev
	.cfi_endproc
                                        # -- End function
	.globl	_ZN15CSSPropertyAPI78method11Ev # -- Begin function _ZN15CSSPropertyAPI78method11Ev
	.p2align	4, 0x90
	.type	_ZN15CSSPropertyAPI78method11Ev,@function
_ZN15CSSPropertyAPI78method11Ev:        # @_ZN15CSSPropertyAPI78method11Ev
	.cfi_startproc
# BB#0:                                 # %entry
	addl	$18, increment_me(%rip)
	retq
.Lfunc_end130:
	.size	_ZN15CSSPropertyAPI78method11Ev, .Lfunc_end130-_ZN15CSSPropertyAPI78method11Ev
	.cfi_endproc
                                        # -- End function
	.globl	_ZN15CSSPropertyAPI78method12Ev # -- Begin function _ZN15CSSPropertyAPI78method12Ev
	.p2align	4, 0x90
	.type	_ZN15CSSPropertyAPI78method12Ev,@function
_ZN15CSSPropertyAPI78method12Ev:        # @_ZN15CSSPropertyAPI78method12Ev
	.cfi_startproc
# BB#0:                                 # %entry
	addl	$19, increment_me(%rip)
	retq
.Lfunc_end131:
	.size	_ZN15CSSPropertyAPI78method12Ev, .Lfunc_end131-_ZN15CSSPropertyAPI78method12Ev
	.cfi_endproc
                                        # -- End function
	.globl	_ZN15CSSPropertyAPI78method13Ev # -- Begin function _ZN15CSSPropertyAPI78method13Ev
	.p2align	4, 0x90
	.type	_ZN15CSSPropertyAPI78method13Ev,@function
_ZN15CSSPropertyAPI78method13Ev:        # @_ZN15CSSPropertyAPI78method13Ev
	.cfi_startproc
# BB#0:                                 # %entry
	addl	$20, increment_me(%rip)
	retq
.Lfunc_end132:
	.size	_ZN15CSSPropertyAPI78method13Ev, .Lfunc_end132-_ZN15CSSPropertyAPI78method13Ev
	.cfi_endproc
                                        # -- End function
	.globl	_ZN15CSSPropertyAPI78method14Ev # -- Begin function _ZN15CSSPropertyAPI78method14Ev
	.p2align	4, 0x90
	.type	_ZN15CSSPropertyAPI78method14Ev,@function
_ZN15CSSPropertyAPI78method14Ev:        # @_ZN15CSSPropertyAPI78method14Ev
	.cfi_startproc
# BB#0:                                 # %entry
	addl	$21, increment_me(%rip)
	retq
.Lfunc_end133:
	.size	_ZN15CSSPropertyAPI78method14Ev, .Lfunc_end133-_ZN15CSSPropertyAPI78method14Ev
	.cfi_endproc
                                        # -- End function
	.globl	_ZN15CSSPropertyAPI78method15Ev # -- Begin function _ZN15CSSPropertyAPI78method15Ev
	.p2align	4, 0x90
	.type	_ZN15CSSPropertyAPI78method15Ev,@function
_ZN15CSSPropertyAPI78method15Ev:        # @_ZN15CSSPropertyAPI78method15Ev
	.cfi_startproc
# BB#0:                                 # %entry
	addl	$22, increment_me(%rip)
	retq
.Lfunc_end134:
	.size	_ZN15CSSPropertyAPI78method15Ev, .Lfunc_end134-_ZN15CSSPropertyAPI78method15Ev
	.cfi_endproc
                                        # -- End function
	.globl	_ZN15CSSPropertyAPI78method16Ev # -- Begin function _ZN15CSSPropertyAPI78method16Ev
	.p2align	4, 0x90
	.type	_ZN15CSSPropertyAPI78method16Ev,@function
_ZN15CSSPropertyAPI78method16Ev:        # @_ZN15CSSPropertyAPI78method16Ev
	.cfi_startproc
# BB#0:                                 # %entry
	addl	$23, increment_me(%rip)
	retq
.Lfunc_end135:
	.size	_ZN15CSSPropertyAPI78method16Ev, .Lfunc_end135-_ZN15CSSPropertyAPI78method16Ev
	.cfi_endproc
                                        # -- End function
	.globl	_ZN15CSSPropertyAPI78method17Ev # -- Begin function _ZN15CSSPropertyAPI78method17Ev
	.p2align	4, 0x90
	.type	_ZN15CSSPropertyAPI78method17Ev,@function
_ZN15CSSPropertyAPI78method17Ev:        # @_ZN15CSSPropertyAPI78method17Ev
	.cfi_startproc
# BB#0:                                 # %entry
	addl	$24, increment_me(%rip)
	retq
.Lfunc_end136:
	.size	_ZN15CSSPropertyAPI78method17Ev, .Lfunc_end136-_ZN15CSSPropertyAPI78method17Ev
	.cfi_endproc
                                        # -- End function
	.globl	_ZN15CSSPropertyAPI78method18Ev # -- Begin function _ZN15CSSPropertyAPI78method18Ev
	.p2align	4, 0x90
	.type	_ZN15CSSPropertyAPI78method18Ev,@function
_ZN15CSSPropertyAPI78method18Ev:        # @_ZN15CSSPropertyAPI78method18Ev
	.cfi_startproc
# BB#0:                                 # %entry
	addl	$25, increment_me(%rip)
	retq
.Lfunc_end137:
	.size	_ZN15CSSPropertyAPI78method18Ev, .Lfunc_end137-_ZN15CSSPropertyAPI78method18Ev
	.cfi_endproc
                                        # -- End function
	.globl	_ZN15CSSPropertyAPI78method19Ev # -- Begin function _ZN15CSSPropertyAPI78method19Ev
	.p2align	4, 0x90
	.type	_ZN15CSSPropertyAPI78method19Ev,@function
_ZN15CSSPropertyAPI78method19Ev:        # @_ZN15CSSPropertyAPI78method19Ev
	.cfi_startproc
# BB#0:                                 # %entry
	addl	$26, increment_me(%rip)
	retq
.Lfunc_end138:
	.size	_ZN15CSSPropertyAPI78method19Ev, .Lfunc_end138-_ZN15CSSPropertyAPI78method19Ev
	.cfi_endproc
                                        # -- End function
	.globl	_ZN15CSSPropertyAPI78method20Ev # -- Begin function _ZN15CSSPropertyAPI78method20Ev
	.p2align	4, 0x90
	.type	_ZN15CSSPropertyAPI78method20Ev,@function
_ZN15CSSPropertyAPI78method20Ev:        # @_ZN15CSSPropertyAPI78method20Ev
	.cfi_startproc
# BB#0:                                 # %entry
	addl	$27, increment_me(%rip)
	retq
.Lfunc_end139:
	.size	_ZN15CSSPropertyAPI78method20Ev, .Lfunc_end139-_ZN15CSSPropertyAPI78method20Ev
	.cfi_endproc
                                        # -- End function
	.globl	_ZN15CSSPropertyAPI87method1Ev # -- Begin function _ZN15CSSPropertyAPI87method1Ev
	.p2align	4, 0x90
	.type	_ZN15CSSPropertyAPI87method1Ev,@function
_ZN15CSSPropertyAPI87method1Ev:         # @_ZN15CSSPropertyAPI87method1Ev
	.cfi_startproc
# BB#0:                                 # %entry
	addl	$9, increment_me(%rip)
	retq
.Lfunc_end140:
	.size	_ZN15CSSPropertyAPI87method1Ev, .Lfunc_end140-_ZN15CSSPropertyAPI87method1Ev
	.cfi_endproc
                                        # -- End function
	.globl	_ZN15CSSPropertyAPI87method2Ev # -- Begin function _ZN15CSSPropertyAPI87method2Ev
	.p2align	4, 0x90
	.type	_ZN15CSSPropertyAPI87method2Ev,@function
_ZN15CSSPropertyAPI87method2Ev:         # @_ZN15CSSPropertyAPI87method2Ev
	.cfi_startproc
# BB#0:                                 # %entry
	addl	$10, increment_me(%rip)
	retq
.Lfunc_end141:
	.size	_ZN15CSSPropertyAPI87method2Ev, .Lfunc_end141-_ZN15CSSPropertyAPI87method2Ev
	.cfi_endproc
                                        # -- End function
	.globl	_ZN15CSSPropertyAPI87method3Ev # -- Begin function _ZN15CSSPropertyAPI87method3Ev
	.p2align	4, 0x90
	.type	_ZN15CSSPropertyAPI87method3Ev,@function
_ZN15CSSPropertyAPI87method3Ev:         # @_ZN15CSSPropertyAPI87method3Ev
	.cfi_startproc
# BB#0:                                 # %entry
	addl	$11, increment_me(%rip)
	retq
.Lfunc_end142:
	.size	_ZN15CSSPropertyAPI87method3Ev, .Lfunc_end142-_ZN15CSSPropertyAPI87method3Ev
	.cfi_endproc
                                        # -- End function
	.globl	_ZN15CSSPropertyAPI87method4Ev # -- Begin function _ZN15CSSPropertyAPI87method4Ev
	.p2align	4, 0x90
	.type	_ZN15CSSPropertyAPI87method4Ev,@function
_ZN15CSSPropertyAPI87method4Ev:         # @_ZN15CSSPropertyAPI87method4Ev
	.cfi_startproc
# BB#0:                                 # %entry
	addl	$12, increment_me(%rip)
	retq
.Lfunc_end143:
	.size	_ZN15CSSPropertyAPI87method4Ev, .Lfunc_end143-_ZN15CSSPropertyAPI87method4Ev
	.cfi_endproc
                                        # -- End function
	.globl	_ZN15CSSPropertyAPI87method5Ev # -- Begin function _ZN15CSSPropertyAPI87method5Ev
	.p2align	4, 0x90
	.type	_ZN15CSSPropertyAPI87method5Ev,@function
_ZN15CSSPropertyAPI87method5Ev:         # @_ZN15CSSPropertyAPI87method5Ev
	.cfi_startproc
# BB#0:                                 # %entry
	addl	$13, increment_me(%rip)
	retq
.Lfunc_end144:
	.size	_ZN15CSSPropertyAPI87method5Ev, .Lfunc_end144-_ZN15CSSPropertyAPI87method5Ev
	.cfi_endproc
                                        # -- End function
	.globl	_ZN15CSSPropertyAPI87method6Ev # -- Begin function _ZN15CSSPropertyAPI87method6Ev
	.p2align	4, 0x90
	.type	_ZN15CSSPropertyAPI87method6Ev,@function
_ZN15CSSPropertyAPI87method6Ev:         # @_ZN15CSSPropertyAPI87method6Ev
	.cfi_startproc
# BB#0:                                 # %entry
	addl	$14, increment_me(%rip)
	retq
.Lfunc_end145:
	.size	_ZN15CSSPropertyAPI87method6Ev, .Lfunc_end145-_ZN15CSSPropertyAPI87method6Ev
	.cfi_endproc
                                        # -- End function
	.globl	_ZN15CSSPropertyAPI87method7Ev # -- Begin function _ZN15CSSPropertyAPI87method7Ev
	.p2align	4, 0x90
	.type	_ZN15CSSPropertyAPI87method7Ev,@function
_ZN15CSSPropertyAPI87method7Ev:         # @_ZN15CSSPropertyAPI87method7Ev
	.cfi_startproc
# BB#0:                                 # %entry
	addl	$15, increment_me(%rip)
	retq
.Lfunc_end146:
	.size	_ZN15CSSPropertyAPI87method7Ev, .Lfunc_end146-_ZN15CSSPropertyAPI87method7Ev
	.cfi_endproc
                                        # -- End function
	.globl	_ZN15CSSPropertyAPI87method8Ev # -- Begin function _ZN15CSSPropertyAPI87method8Ev
	.p2align	4, 0x90
	.type	_ZN15CSSPropertyAPI87method8Ev,@function
_ZN15CSSPropertyAPI87method8Ev:         # @_ZN15CSSPropertyAPI87method8Ev
	.cfi_startproc
# BB#0:                                 # %entry
	addl	$16, increment_me(%rip)
	retq
.Lfunc_end147:
	.size	_ZN15CSSPropertyAPI87method8Ev, .Lfunc_end147-_ZN15CSSPropertyAPI87method8Ev
	.cfi_endproc
                                        # -- End function
	.globl	_ZN15CSSPropertyAPI87method9Ev # -- Begin function _ZN15CSSPropertyAPI87method9Ev
	.p2align	4, 0x90
	.type	_ZN15CSSPropertyAPI87method9Ev,@function
_ZN15CSSPropertyAPI87method9Ev:         # @_ZN15CSSPropertyAPI87method9Ev
	.cfi_startproc
# BB#0:                                 # %entry
	addl	$17, increment_me(%rip)
	retq
.Lfunc_end148:
	.size	_ZN15CSSPropertyAPI87method9Ev, .Lfunc_end148-_ZN15CSSPropertyAPI87method9Ev
	.cfi_endproc
                                        # -- End function
	.globl	_ZN15CSSPropertyAPI88method10Ev # -- Begin function _ZN15CSSPropertyAPI88method10Ev
	.p2align	4, 0x90
	.type	_ZN15CSSPropertyAPI88method10Ev,@function
_ZN15CSSPropertyAPI88method10Ev:        # @_ZN15CSSPropertyAPI88method10Ev
	.cfi_startproc
# BB#0:                                 # %entry
	addl	$18, increment_me(%rip)
	retq
.Lfunc_end149:
	.size	_ZN15CSSPropertyAPI88method10Ev, .Lfunc_end149-_ZN15CSSPropertyAPI88method10Ev
	.cfi_endproc
                                        # -- End function
	.globl	_ZN15CSSPropertyAPI88method11Ev # -- Begin function _ZN15CSSPropertyAPI88method11Ev
	.p2align	4, 0x90
	.type	_ZN15CSSPropertyAPI88method11Ev,@function
_ZN15CSSPropertyAPI88method11Ev:        # @_ZN15CSSPropertyAPI88method11Ev
	.cfi_startproc
# BB#0:                                 # %entry
	addl	$19, increment_me(%rip)
	retq
.Lfunc_end150:
	.size	_ZN15CSSPropertyAPI88method11Ev, .Lfunc_end150-_ZN15CSSPropertyAPI88method11Ev
	.cfi_endproc
                                        # -- End function
	.globl	_ZN15CSSPropertyAPI88method12Ev # -- Begin function _ZN15CSSPropertyAPI88method12Ev
	.p2align	4, 0x90
	.type	_ZN15CSSPropertyAPI88method12Ev,@function
_ZN15CSSPropertyAPI88method12Ev:        # @_ZN15CSSPropertyAPI88method12Ev
	.cfi_startproc
# BB#0:                                 # %entry
	addl	$20, increment_me(%rip)
	retq
.Lfunc_end151:
	.size	_ZN15CSSPropertyAPI88method12Ev, .Lfunc_end151-_ZN15CSSPropertyAPI88method12Ev
	.cfi_endproc
                                        # -- End function
	.globl	_ZN15CSSPropertyAPI88method13Ev # -- Begin function _ZN15CSSPropertyAPI88method13Ev
	.p2align	4, 0x90
	.type	_ZN15CSSPropertyAPI88method13Ev,@function
_ZN15CSSPropertyAPI88method13Ev:        # @_ZN15CSSPropertyAPI88method13Ev
	.cfi_startproc
# BB#0:                                 # %entry
	addl	$21, increment_me(%rip)
	retq
.Lfunc_end152:
	.size	_ZN15CSSPropertyAPI88method13Ev, .Lfunc_end152-_ZN15CSSPropertyAPI88method13Ev
	.cfi_endproc
                                        # -- End function
	.globl	_ZN15CSSPropertyAPI88method14Ev # -- Begin function _ZN15CSSPropertyAPI88method14Ev
	.p2align	4, 0x90
	.type	_ZN15CSSPropertyAPI88method14Ev,@function
_ZN15CSSPropertyAPI88method14Ev:        # @_ZN15CSSPropertyAPI88method14Ev
	.cfi_startproc
# BB#0:                                 # %entry
	addl	$22, increment_me(%rip)
	retq
.Lfunc_end153:
	.size	_ZN15CSSPropertyAPI88method14Ev, .Lfunc_end153-_ZN15CSSPropertyAPI88method14Ev
	.cfi_endproc
                                        # -- End function
	.globl	_ZN15CSSPropertyAPI88method15Ev # -- Begin function _ZN15CSSPropertyAPI88method15Ev
	.p2align	4, 0x90
	.type	_ZN15CSSPropertyAPI88method15Ev,@function
_ZN15CSSPropertyAPI88method15Ev:        # @_ZN15CSSPropertyAPI88method15Ev
	.cfi_startproc
# BB#0:                                 # %entry
	addl	$23, increment_me(%rip)
	retq
.Lfunc_end154:
	.size	_ZN15CSSPropertyAPI88method15Ev, .Lfunc_end154-_ZN15CSSPropertyAPI88method15Ev
	.cfi_endproc
                                        # -- End function
	.globl	_ZN15CSSPropertyAPI88method16Ev # -- Begin function _ZN15CSSPropertyAPI88method16Ev
	.p2align	4, 0x90
	.type	_ZN15CSSPropertyAPI88method16Ev,@function
_ZN15CSSPropertyAPI88method16Ev:        # @_ZN15CSSPropertyAPI88method16Ev
	.cfi_startproc
# BB#0:                                 # %entry
	addl	$24, increment_me(%rip)
	retq
.Lfunc_end155:
	.size	_ZN15CSSPropertyAPI88method16Ev, .Lfunc_end155-_ZN15CSSPropertyAPI88method16Ev
	.cfi_endproc
                                        # -- End function
	.globl	_ZN15CSSPropertyAPI88method17Ev # -- Begin function _ZN15CSSPropertyAPI88method17Ev
	.p2align	4, 0x90
	.type	_ZN15CSSPropertyAPI88method17Ev,@function
_ZN15CSSPropertyAPI88method17Ev:        # @_ZN15CSSPropertyAPI88method17Ev
	.cfi_startproc
# BB#0:                                 # %entry
	addl	$25, increment_me(%rip)
	retq
.Lfunc_end156:
	.size	_ZN15CSSPropertyAPI88method17Ev, .Lfunc_end156-_ZN15CSSPropertyAPI88method17Ev
	.cfi_endproc
                                        # -- End function
	.globl	_ZN15CSSPropertyAPI88method18Ev # -- Begin function _ZN15CSSPropertyAPI88method18Ev
	.p2align	4, 0x90
	.type	_ZN15CSSPropertyAPI88method18Ev,@function
_ZN15CSSPropertyAPI88method18Ev:        # @_ZN15CSSPropertyAPI88method18Ev
	.cfi_startproc
# BB#0:                                 # %entry
	addl	$26, increment_me(%rip)
	retq
.Lfunc_end157:
	.size	_ZN15CSSPropertyAPI88method18Ev, .Lfunc_end157-_ZN15CSSPropertyAPI88method18Ev
	.cfi_endproc
                                        # -- End function
	.globl	_ZN15CSSPropertyAPI88method19Ev # -- Begin function _ZN15CSSPropertyAPI88method19Ev
	.p2align	4, 0x90
	.type	_ZN15CSSPropertyAPI88method19Ev,@function
_ZN15CSSPropertyAPI88method19Ev:        # @_ZN15CSSPropertyAPI88method19Ev
	.cfi_startproc
# BB#0:                                 # %entry
	addl	$27, increment_me(%rip)
	retq
.Lfunc_end158:
	.size	_ZN15CSSPropertyAPI88method19Ev, .Lfunc_end158-_ZN15CSSPropertyAPI88method19Ev
	.cfi_endproc
                                        # -- End function
	.globl	_ZN15CSSPropertyAPI88method20Ev # -- Begin function _ZN15CSSPropertyAPI88method20Ev
	.p2align	4, 0x90
	.type	_ZN15CSSPropertyAPI88method20Ev,@function
_ZN15CSSPropertyAPI88method20Ev:        # @_ZN15CSSPropertyAPI88method20Ev
	.cfi_startproc
# BB#0:                                 # %entry
	addl	$28, increment_me(%rip)
	retq
.Lfunc_end159:
	.size	_ZN15CSSPropertyAPI88method20Ev, .Lfunc_end159-_ZN15CSSPropertyAPI88method20Ev
	.cfi_endproc
                                        # -- End function
	.globl	_ZN15CSSPropertyAPI97method1Ev # -- Begin function _ZN15CSSPropertyAPI97method1Ev
	.p2align	4, 0x90
	.type	_ZN15CSSPropertyAPI97method1Ev,@function
_ZN15CSSPropertyAPI97method1Ev:         # @_ZN15CSSPropertyAPI97method1Ev
	.cfi_startproc
# BB#0:                                 # %entry
	addl	$10, increment_me(%rip)
	retq
.Lfunc_end160:
	.size	_ZN15CSSPropertyAPI97method1Ev, .Lfunc_end160-_ZN15CSSPropertyAPI97method1Ev
	.cfi_endproc
                                        # -- End function
	.globl	_ZN15CSSPropertyAPI97method2Ev # -- Begin function _ZN15CSSPropertyAPI97method2Ev
	.p2align	4, 0x90
	.type	_ZN15CSSPropertyAPI97method2Ev,@function
_ZN15CSSPropertyAPI97method2Ev:         # @_ZN15CSSPropertyAPI97method2Ev
	.cfi_startproc
# BB#0:                                 # %entry
	addl	$11, increment_me(%rip)
	retq
.Lfunc_end161:
	.size	_ZN15CSSPropertyAPI97method2Ev, .Lfunc_end161-_ZN15CSSPropertyAPI97method2Ev
	.cfi_endproc
                                        # -- End function
	.globl	_ZN15CSSPropertyAPI97method3Ev # -- Begin function _ZN15CSSPropertyAPI97method3Ev
	.p2align	4, 0x90
	.type	_ZN15CSSPropertyAPI97method3Ev,@function
_ZN15CSSPropertyAPI97method3Ev:         # @_ZN15CSSPropertyAPI97method3Ev
	.cfi_startproc
# BB#0:                                 # %entry
	addl	$12, increment_me(%rip)
	retq
.Lfunc_end162:
	.size	_ZN15CSSPropertyAPI97method3Ev, .Lfunc_end162-_ZN15CSSPropertyAPI97method3Ev
	.cfi_endproc
                                        # -- End function
	.globl	_ZN15CSSPropertyAPI97method4Ev # -- Begin function _ZN15CSSPropertyAPI97method4Ev
	.p2align	4, 0x90
	.type	_ZN15CSSPropertyAPI97method4Ev,@function
_ZN15CSSPropertyAPI97method4Ev:         # @_ZN15CSSPropertyAPI97method4Ev
	.cfi_startproc
# BB#0:                                 # %entry
	addl	$13, increment_me(%rip)
	retq
.Lfunc_end163:
	.size	_ZN15CSSPropertyAPI97method4Ev, .Lfunc_end163-_ZN15CSSPropertyAPI97method4Ev
	.cfi_endproc
                                        # -- End function
	.globl	_ZN15CSSPropertyAPI97method5Ev # -- Begin function _ZN15CSSPropertyAPI97method5Ev
	.p2align	4, 0x90
	.type	_ZN15CSSPropertyAPI97method5Ev,@function
_ZN15CSSPropertyAPI97method5Ev:         # @_ZN15CSSPropertyAPI97method5Ev
	.cfi_startproc
# BB#0:                                 # %entry
	addl	$14, increment_me(%rip)
	retq
.Lfunc_end164:
	.size	_ZN15CSSPropertyAPI97method5Ev, .Lfunc_end164-_ZN15CSSPropertyAPI97method5Ev
	.cfi_endproc
                                        # -- End function
	.globl	_ZN15CSSPropertyAPI97method6Ev # -- Begin function _ZN15CSSPropertyAPI97method6Ev
	.p2align	4, 0x90
	.type	_ZN15CSSPropertyAPI97method6Ev,@function
_ZN15CSSPropertyAPI97method6Ev:         # @_ZN15CSSPropertyAPI97method6Ev
	.cfi_startproc
# BB#0:                                 # %entry
	addl	$15, increment_me(%rip)
	retq
.Lfunc_end165:
	.size	_ZN15CSSPropertyAPI97method6Ev, .Lfunc_end165-_ZN15CSSPropertyAPI97method6Ev
	.cfi_endproc
                                        # -- End function
	.globl	_ZN15CSSPropertyAPI97method7Ev # -- Begin function _ZN15CSSPropertyAPI97method7Ev
	.p2align	4, 0x90
	.type	_ZN15CSSPropertyAPI97method7Ev,@function
_ZN15CSSPropertyAPI97method7Ev:         # @_ZN15CSSPropertyAPI97method7Ev
	.cfi_startproc
# BB#0:                                 # %entry
	addl	$16, increment_me(%rip)
	retq
.Lfunc_end166:
	.size	_ZN15CSSPropertyAPI97method7Ev, .Lfunc_end166-_ZN15CSSPropertyAPI97method7Ev
	.cfi_endproc
                                        # -- End function
	.globl	_ZN15CSSPropertyAPI97method8Ev # -- Begin function _ZN15CSSPropertyAPI97method8Ev
	.p2align	4, 0x90
	.type	_ZN15CSSPropertyAPI97method8Ev,@function
_ZN15CSSPropertyAPI97method8Ev:         # @_ZN15CSSPropertyAPI97method8Ev
	.cfi_startproc
# BB#0:                                 # %entry
	addl	$17, increment_me(%rip)
	retq
.Lfunc_end167:
	.size	_ZN15CSSPropertyAPI97method8Ev, .Lfunc_end167-_ZN15CSSPropertyAPI97method8Ev
	.cfi_endproc
                                        # -- End function
	.globl	_ZN15CSSPropertyAPI97method9Ev # -- Begin function _ZN15CSSPropertyAPI97method9Ev
	.p2align	4, 0x90
	.type	_ZN15CSSPropertyAPI97method9Ev,@function
_ZN15CSSPropertyAPI97method9Ev:         # @_ZN15CSSPropertyAPI97method9Ev
	.cfi_startproc
# BB#0:                                 # %entry
	addl	$18, increment_me(%rip)
	retq
.Lfunc_end168:
	.size	_ZN15CSSPropertyAPI97method9Ev, .Lfunc_end168-_ZN15CSSPropertyAPI97method9Ev
	.cfi_endproc
                                        # -- End function
	.globl	_ZN15CSSPropertyAPI98method10Ev # -- Begin function _ZN15CSSPropertyAPI98method10Ev
	.p2align	4, 0x90
	.type	_ZN15CSSPropertyAPI98method10Ev,@function
_ZN15CSSPropertyAPI98method10Ev:        # @_ZN15CSSPropertyAPI98method10Ev
	.cfi_startproc
# BB#0:                                 # %entry
	addl	$19, increment_me(%rip)
	retq
.Lfunc_end169:
	.size	_ZN15CSSPropertyAPI98method10Ev, .Lfunc_end169-_ZN15CSSPropertyAPI98method10Ev
	.cfi_endproc
                                        # -- End function
	.globl	_ZN15CSSPropertyAPI98method11Ev # -- Begin function _ZN15CSSPropertyAPI98method11Ev
	.p2align	4, 0x90
	.type	_ZN15CSSPropertyAPI98method11Ev,@function
_ZN15CSSPropertyAPI98method11Ev:        # @_ZN15CSSPropertyAPI98method11Ev
	.cfi_startproc
# BB#0:                                 # %entry
	addl	$20, increment_me(%rip)
	retq
.Lfunc_end170:
	.size	_ZN15CSSPropertyAPI98method11Ev, .Lfunc_end170-_ZN15CSSPropertyAPI98method11Ev
	.cfi_endproc
                                        # -- End function
	.globl	_ZN15CSSPropertyAPI98method12Ev # -- Begin function _ZN15CSSPropertyAPI98method12Ev
	.p2align	4, 0x90
	.type	_ZN15CSSPropertyAPI98method12Ev,@function
_ZN15CSSPropertyAPI98method12Ev:        # @_ZN15CSSPropertyAPI98method12Ev
	.cfi_startproc
# BB#0:                                 # %entry
	addl	$21, increment_me(%rip)
	retq
.Lfunc_end171:
	.size	_ZN15CSSPropertyAPI98method12Ev, .Lfunc_end171-_ZN15CSSPropertyAPI98method12Ev
	.cfi_endproc
                                        # -- End function
	.globl	_ZN15CSSPropertyAPI98method13Ev # -- Begin function _ZN15CSSPropertyAPI98method13Ev
	.p2align	4, 0x90
	.type	_ZN15CSSPropertyAPI98method13Ev,@function
_ZN15CSSPropertyAPI98method13Ev:        # @_ZN15CSSPropertyAPI98method13Ev
	.cfi_startproc
# BB#0:                                 # %entry
	addl	$22, increment_me(%rip)
	retq
.Lfunc_end172:
	.size	_ZN15CSSPropertyAPI98method13Ev, .Lfunc_end172-_ZN15CSSPropertyAPI98method13Ev
	.cfi_endproc
                                        # -- End function
	.globl	_ZN15CSSPropertyAPI98method14Ev # -- Begin function _ZN15CSSPropertyAPI98method14Ev
	.p2align	4, 0x90
	.type	_ZN15CSSPropertyAPI98method14Ev,@function
_ZN15CSSPropertyAPI98method14Ev:        # @_ZN15CSSPropertyAPI98method14Ev
	.cfi_startproc
# BB#0:                                 # %entry
	addl	$23, increment_me(%rip)
	retq
.Lfunc_end173:
	.size	_ZN15CSSPropertyAPI98method14Ev, .Lfunc_end173-_ZN15CSSPropertyAPI98method14Ev
	.cfi_endproc
                                        # -- End function
	.globl	_ZN15CSSPropertyAPI98method15Ev # -- Begin function _ZN15CSSPropertyAPI98method15Ev
	.p2align	4, 0x90
	.type	_ZN15CSSPropertyAPI98method15Ev,@function
_ZN15CSSPropertyAPI98method15Ev:        # @_ZN15CSSPropertyAPI98method15Ev
	.cfi_startproc
# BB#0:                                 # %entry
	addl	$24, increment_me(%rip)
	retq
.Lfunc_end174:
	.size	_ZN15CSSPropertyAPI98method15Ev, .Lfunc_end174-_ZN15CSSPropertyAPI98method15Ev
	.cfi_endproc
                                        # -- End function
	.globl	_ZN15CSSPropertyAPI98method16Ev # -- Begin function _ZN15CSSPropertyAPI98method16Ev
	.p2align	4, 0x90
	.type	_ZN15CSSPropertyAPI98method16Ev,@function
_ZN15CSSPropertyAPI98method16Ev:        # @_ZN15CSSPropertyAPI98method16Ev
	.cfi_startproc
# BB#0:                                 # %entry
	addl	$25, increment_me(%rip)
	retq
.Lfunc_end175:
	.size	_ZN15CSSPropertyAPI98method16Ev, .Lfunc_end175-_ZN15CSSPropertyAPI98method16Ev
	.cfi_endproc
                                        # -- End function
	.globl	_ZN15CSSPropertyAPI98method17Ev # -- Begin function _ZN15CSSPropertyAPI98method17Ev
	.p2align	4, 0x90
	.type	_ZN15CSSPropertyAPI98method17Ev,@function
_ZN15CSSPropertyAPI98method17Ev:        # @_ZN15CSSPropertyAPI98method17Ev
	.cfi_startproc
# BB#0:                                 # %entry
	addl	$26, increment_me(%rip)
	retq
.Lfunc_end176:
	.size	_ZN15CSSPropertyAPI98method17Ev, .Lfunc_end176-_ZN15CSSPropertyAPI98method17Ev
	.cfi_endproc
                                        # -- End function
	.globl	_ZN15CSSPropertyAPI98method18Ev # -- Begin function _ZN15CSSPropertyAPI98method18Ev
	.p2align	4, 0x90
	.type	_ZN15CSSPropertyAPI98method18Ev,@function
_ZN15CSSPropertyAPI98method18Ev:        # @_ZN15CSSPropertyAPI98method18Ev
	.cfi_startproc
# BB#0:                                 # %entry
	addl	$27, increment_me(%rip)
	retq
.Lfunc_end177:
	.size	_ZN15CSSPropertyAPI98method18Ev, .Lfunc_end177-_ZN15CSSPropertyAPI98method18Ev
	.cfi_endproc
                                        # -- End function
	.globl	_ZN15CSSPropertyAPI98method19Ev # -- Begin function _ZN15CSSPropertyAPI98method19Ev
	.p2align	4, 0x90
	.type	_ZN15CSSPropertyAPI98method19Ev,@function
_ZN15CSSPropertyAPI98method19Ev:        # @_ZN15CSSPropertyAPI98method19Ev
	.cfi_startproc
# BB#0:                                 # %entry
	addl	$28, increment_me(%rip)
	retq
.Lfunc_end178:
	.size	_ZN15CSSPropertyAPI98method19Ev, .Lfunc_end178-_ZN15CSSPropertyAPI98method19Ev
	.cfi_endproc
                                        # -- End function
	.globl	_ZN15CSSPropertyAPI98method20Ev # -- Begin function _ZN15CSSPropertyAPI98method20Ev
	.p2align	4, 0x90
	.type	_ZN15CSSPropertyAPI98method20Ev,@function
_ZN15CSSPropertyAPI98method20Ev:        # @_ZN15CSSPropertyAPI98method20Ev
	.cfi_startproc
# BB#0:                                 # %entry
	addl	$29, increment_me(%rip)
	retq
.Lfunc_end179:
	.size	_ZN15CSSPropertyAPI98method20Ev, .Lfunc_end179-_ZN15CSSPropertyAPI98method20Ev
	.cfi_endproc
                                        # -- End function
	.globl	_ZN16CSSPropertyAPI107method1Ev # -- Begin function _ZN16CSSPropertyAPI107method1Ev
	.p2align	4, 0x90
	.type	_ZN16CSSPropertyAPI107method1Ev,@function
_ZN16CSSPropertyAPI107method1Ev:        # @_ZN16CSSPropertyAPI107method1Ev
	.cfi_startproc
# BB#0:                                 # %entry
	addl	$11, increment_me(%rip)
	retq
.Lfunc_end180:
	.size	_ZN16CSSPropertyAPI107method1Ev, .Lfunc_end180-_ZN16CSSPropertyAPI107method1Ev
	.cfi_endproc
                                        # -- End function
	.globl	_ZN16CSSPropertyAPI107method2Ev # -- Begin function _ZN16CSSPropertyAPI107method2Ev
	.p2align	4, 0x90
	.type	_ZN16CSSPropertyAPI107method2Ev,@function
_ZN16CSSPropertyAPI107method2Ev:        # @_ZN16CSSPropertyAPI107method2Ev
	.cfi_startproc
# BB#0:                                 # %entry
	addl	$12, increment_me(%rip)
	retq
.Lfunc_end181:
	.size	_ZN16CSSPropertyAPI107method2Ev, .Lfunc_end181-_ZN16CSSPropertyAPI107method2Ev
	.cfi_endproc
                                        # -- End function
	.globl	_ZN16CSSPropertyAPI107method3Ev # -- Begin function _ZN16CSSPropertyAPI107method3Ev
	.p2align	4, 0x90
	.type	_ZN16CSSPropertyAPI107method3Ev,@function
_ZN16CSSPropertyAPI107method3Ev:        # @_ZN16CSSPropertyAPI107method3Ev
	.cfi_startproc
# BB#0:                                 # %entry
	addl	$13, increment_me(%rip)
	retq
.Lfunc_end182:
	.size	_ZN16CSSPropertyAPI107method3Ev, .Lfunc_end182-_ZN16CSSPropertyAPI107method3Ev
	.cfi_endproc
                                        # -- End function
	.globl	_ZN16CSSPropertyAPI107method4Ev # -- Begin function _ZN16CSSPropertyAPI107method4Ev
	.p2align	4, 0x90
	.type	_ZN16CSSPropertyAPI107method4Ev,@function
_ZN16CSSPropertyAPI107method4Ev:        # @_ZN16CSSPropertyAPI107method4Ev
	.cfi_startproc
# BB#0:                                 # %entry
	addl	$14, increment_me(%rip)
	retq
.Lfunc_end183:
	.size	_ZN16CSSPropertyAPI107method4Ev, .Lfunc_end183-_ZN16CSSPropertyAPI107method4Ev
	.cfi_endproc
                                        # -- End function
	.globl	_ZN16CSSPropertyAPI107method5Ev # -- Begin function _ZN16CSSPropertyAPI107method5Ev
	.p2align	4, 0x90
	.type	_ZN16CSSPropertyAPI107method5Ev,@function
_ZN16CSSPropertyAPI107method5Ev:        # @_ZN16CSSPropertyAPI107method5Ev
	.cfi_startproc
# BB#0:                                 # %entry
	addl	$15, increment_me(%rip)
	retq
.Lfunc_end184:
	.size	_ZN16CSSPropertyAPI107method5Ev, .Lfunc_end184-_ZN16CSSPropertyAPI107method5Ev
	.cfi_endproc
                                        # -- End function
	.globl	_ZN16CSSPropertyAPI107method6Ev # -- Begin function _ZN16CSSPropertyAPI107method6Ev
	.p2align	4, 0x90
	.type	_ZN16CSSPropertyAPI107method6Ev,@function
_ZN16CSSPropertyAPI107method6Ev:        # @_ZN16CSSPropertyAPI107method6Ev
	.cfi_startproc
# BB#0:                                 # %entry
	addl	$16, increment_me(%rip)
	retq
.Lfunc_end185:
	.size	_ZN16CSSPropertyAPI107method6Ev, .Lfunc_end185-_ZN16CSSPropertyAPI107method6Ev
	.cfi_endproc
                                        # -- End function
	.globl	_ZN16CSSPropertyAPI107method7Ev # -- Begin function _ZN16CSSPropertyAPI107method7Ev
	.p2align	4, 0x90
	.type	_ZN16CSSPropertyAPI107method7Ev,@function
_ZN16CSSPropertyAPI107method7Ev:        # @_ZN16CSSPropertyAPI107method7Ev
	.cfi_startproc
# BB#0:                                 # %entry
	addl	$17, increment_me(%rip)
	retq
.Lfunc_end186:
	.size	_ZN16CSSPropertyAPI107method7Ev, .Lfunc_end186-_ZN16CSSPropertyAPI107method7Ev
	.cfi_endproc
                                        # -- End function
	.globl	_ZN16CSSPropertyAPI107method8Ev # -- Begin function _ZN16CSSPropertyAPI107method8Ev
	.p2align	4, 0x90
	.type	_ZN16CSSPropertyAPI107method8Ev,@function
_ZN16CSSPropertyAPI107method8Ev:        # @_ZN16CSSPropertyAPI107method8Ev
	.cfi_startproc
# BB#0:                                 # %entry
	addl	$18, increment_me(%rip)
	retq
.Lfunc_end187:
	.size	_ZN16CSSPropertyAPI107method8Ev, .Lfunc_end187-_ZN16CSSPropertyAPI107method8Ev
	.cfi_endproc
                                        # -- End function
	.globl	_ZN16CSSPropertyAPI107method9Ev # -- Begin function _ZN16CSSPropertyAPI107method9Ev
	.p2align	4, 0x90
	.type	_ZN16CSSPropertyAPI107method9Ev,@function
_ZN16CSSPropertyAPI107method9Ev:        # @_ZN16CSSPropertyAPI107method9Ev
	.cfi_startproc
# BB#0:                                 # %entry
	addl	$19, increment_me(%rip)
	retq
.Lfunc_end188:
	.size	_ZN16CSSPropertyAPI107method9Ev, .Lfunc_end188-_ZN16CSSPropertyAPI107method9Ev
	.cfi_endproc
                                        # -- End function
	.globl	_ZN16CSSPropertyAPI108method10Ev # -- Begin function _ZN16CSSPropertyAPI108method10Ev
	.p2align	4, 0x90
	.type	_ZN16CSSPropertyAPI108method10Ev,@function
_ZN16CSSPropertyAPI108method10Ev:       # @_ZN16CSSPropertyAPI108method10Ev
	.cfi_startproc
# BB#0:                                 # %entry
	addl	$20, increment_me(%rip)
	retq
.Lfunc_end189:
	.size	_ZN16CSSPropertyAPI108method10Ev, .Lfunc_end189-_ZN16CSSPropertyAPI108method10Ev
	.cfi_endproc
                                        # -- End function
	.globl	_ZN16CSSPropertyAPI108method11Ev # -- Begin function _ZN16CSSPropertyAPI108method11Ev
	.p2align	4, 0x90
	.type	_ZN16CSSPropertyAPI108method11Ev,@function
_ZN16CSSPropertyAPI108method11Ev:       # @_ZN16CSSPropertyAPI108method11Ev
	.cfi_startproc
# BB#0:                                 # %entry
	addl	$21, increment_me(%rip)
	retq
.Lfunc_end190:
	.size	_ZN16CSSPropertyAPI108method11Ev, .Lfunc_end190-_ZN16CSSPropertyAPI108method11Ev
	.cfi_endproc
                                        # -- End function
	.globl	_ZN16CSSPropertyAPI108method12Ev # -- Begin function _ZN16CSSPropertyAPI108method12Ev
	.p2align	4, 0x90
	.type	_ZN16CSSPropertyAPI108method12Ev,@function
_ZN16CSSPropertyAPI108method12Ev:       # @_ZN16CSSPropertyAPI108method12Ev
	.cfi_startproc
# BB#0:                                 # %entry
	addl	$22, increment_me(%rip)
	retq
.Lfunc_end191:
	.size	_ZN16CSSPropertyAPI108method12Ev, .Lfunc_end191-_ZN16CSSPropertyAPI108method12Ev
	.cfi_endproc
                                        # -- End function
	.globl	_ZN16CSSPropertyAPI108method13Ev # -- Begin function _ZN16CSSPropertyAPI108method13Ev
	.p2align	4, 0x90
	.type	_ZN16CSSPropertyAPI108method13Ev,@function
_ZN16CSSPropertyAPI108method13Ev:       # @_ZN16CSSPropertyAPI108method13Ev
	.cfi_startproc
# BB#0:                                 # %entry
	addl	$23, increment_me(%rip)
	retq
.Lfunc_end192:
	.size	_ZN16CSSPropertyAPI108method13Ev, .Lfunc_end192-_ZN16CSSPropertyAPI108method13Ev
	.cfi_endproc
                                        # -- End function
	.globl	_ZN16CSSPropertyAPI108method14Ev # -- Begin function _ZN16CSSPropertyAPI108method14Ev
	.p2align	4, 0x90
	.type	_ZN16CSSPropertyAPI108method14Ev,@function
_ZN16CSSPropertyAPI108method14Ev:       # @_ZN16CSSPropertyAPI108method14Ev
	.cfi_startproc
# BB#0:                                 # %entry
	addl	$24, increment_me(%rip)
	retq
.Lfunc_end193:
	.size	_ZN16CSSPropertyAPI108method14Ev, .Lfunc_end193-_ZN16CSSPropertyAPI108method14Ev
	.cfi_endproc
                                        # -- End function
	.globl	_ZN16CSSPropertyAPI108method15Ev # -- Begin function _ZN16CSSPropertyAPI108method15Ev
	.p2align	4, 0x90
	.type	_ZN16CSSPropertyAPI108method15Ev,@function
_ZN16CSSPropertyAPI108method15Ev:       # @_ZN16CSSPropertyAPI108method15Ev
	.cfi_startproc
# BB#0:                                 # %entry
	addl	$25, increment_me(%rip)
	retq
.Lfunc_end194:
	.size	_ZN16CSSPropertyAPI108method15Ev, .Lfunc_end194-_ZN16CSSPropertyAPI108method15Ev
	.cfi_endproc
                                        # -- End function
	.globl	_ZN16CSSPropertyAPI108method16Ev # -- Begin function _ZN16CSSPropertyAPI108method16Ev
	.p2align	4, 0x90
	.type	_ZN16CSSPropertyAPI108method16Ev,@function
_ZN16CSSPropertyAPI108method16Ev:       # @_ZN16CSSPropertyAPI108method16Ev
	.cfi_startproc
# BB#0:                                 # %entry
	addl	$26, increment_me(%rip)
	retq
.Lfunc_end195:
	.size	_ZN16CSSPropertyAPI108method16Ev, .Lfunc_end195-_ZN16CSSPropertyAPI108method16Ev
	.cfi_endproc
                                        # -- End function
	.globl	_ZN16CSSPropertyAPI108method17Ev # -- Begin function _ZN16CSSPropertyAPI108method17Ev
	.p2align	4, 0x90
	.type	_ZN16CSSPropertyAPI108method17Ev,@function
_ZN16CSSPropertyAPI108method17Ev:       # @_ZN16CSSPropertyAPI108method17Ev
	.cfi_startproc
# BB#0:                                 # %entry
	addl	$27, increment_me(%rip)
	retq
.Lfunc_end196:
	.size	_ZN16CSSPropertyAPI108method17Ev, .Lfunc_end196-_ZN16CSSPropertyAPI108method17Ev
	.cfi_endproc
                                        # -- End function
	.globl	_ZN16CSSPropertyAPI108method18Ev # -- Begin function _ZN16CSSPropertyAPI108method18Ev
	.p2align	4, 0x90
	.type	_ZN16CSSPropertyAPI108method18Ev,@function
_ZN16CSSPropertyAPI108method18Ev:       # @_ZN16CSSPropertyAPI108method18Ev
	.cfi_startproc
# BB#0:                                 # %entry
	addl	$28, increment_me(%rip)
	retq
.Lfunc_end197:
	.size	_ZN16CSSPropertyAPI108method18Ev, .Lfunc_end197-_ZN16CSSPropertyAPI108method18Ev
	.cfi_endproc
                                        # -- End function
	.globl	_ZN16CSSPropertyAPI108method19Ev # -- Begin function _ZN16CSSPropertyAPI108method19Ev
	.p2align	4, 0x90
	.type	_ZN16CSSPropertyAPI108method19Ev,@function
_ZN16CSSPropertyAPI108method19Ev:       # @_ZN16CSSPropertyAPI108method19Ev
	.cfi_startproc
# BB#0:                                 # %entry
	addl	$29, increment_me(%rip)
	retq
.Lfunc_end198:
	.size	_ZN16CSSPropertyAPI108method19Ev, .Lfunc_end198-_ZN16CSSPropertyAPI108method19Ev
	.cfi_endproc
                                        # -- End function
	.globl	_ZN16CSSPropertyAPI108method20Ev # -- Begin function _ZN16CSSPropertyAPI108method20Ev
	.p2align	4, 0x90
	.type	_ZN16CSSPropertyAPI108method20Ev,@function
_ZN16CSSPropertyAPI108method20Ev:       # @_ZN16CSSPropertyAPI108method20Ev
	.cfi_startproc
# BB#0:                                 # %entry
	addl	$30, increment_me(%rip)
	retq
.Lfunc_end199:
	.size	_ZN16CSSPropertyAPI108method20Ev, .Lfunc_end199-_ZN16CSSPropertyAPI108method20Ev
	.cfi_endproc
                                        # -- End function
	.globl	_ZN21CSSPropertyDescriptor3GetEi # -- Begin function _ZN21CSSPropertyDescriptor3GetEi
	.p2align	4, 0x90
	.type	_ZN21CSSPropertyDescriptor3GetEi,@function
_ZN21CSSPropertyDescriptor3GetEi:       # @_ZN21CSSPropertyDescriptor3GetEi
	.cfi_startproc
# BB#0:                                 # %entry
	movslq	%edi, %rax
	movq	_ZL17descriptorIndices(,%rax,8), %rax
	leaq	(%rax,%rax,4), %rax
	shlq	$5, %rax
	leaq	_ZL11descriptors(%rax), %rax
	retq
.Lfunc_end200:
	.size	_ZN21CSSPropertyDescriptor3GetEi, .Lfunc_end200-_ZN21CSSPropertyDescriptor3GetEi
	.cfi_endproc
                                        # -- End function
	.type	increment_me,@object    # @increment_me
	.bss
	.globl	increment_me
	.p2align	2
increment_me:
	.long	0                       # 0x0
	.size	increment_me, 4

	.type	_ZL11descriptors,@object # @_ZL11descriptors
	.section	.rodata,"a",@progbits
	.p2align	4
_ZL11descriptors:
	.zero	160
	.zero	160
	.quad	_ZN15CSSPropertyAPI67method1Ev
	.quad	_ZN15CSSPropertyAPI67method2Ev
	.quad	_ZN15CSSPropertyAPI67method3Ev
	.quad	_ZN15CSSPropertyAPI67method4Ev
	.quad	_ZN15CSSPropertyAPI67method5Ev
	.quad	_ZN15CSSPropertyAPI67method6Ev
	.quad	_ZN15CSSPropertyAPI67method7Ev
	.quad	_ZN15CSSPropertyAPI67method8Ev
	.quad	_ZN15CSSPropertyAPI67method9Ev
	.quad	_ZN15CSSPropertyAPI68method10Ev
	.quad	_ZN15CSSPropertyAPI68method11Ev
	.quad	_ZN15CSSPropertyAPI68method12Ev
	.quad	_ZN15CSSPropertyAPI68method13Ev
	.quad	_ZN15CSSPropertyAPI68method14Ev
	.quad	_ZN15CSSPropertyAPI68method15Ev
	.quad	_ZN15CSSPropertyAPI68method16Ev
	.quad	_ZN15CSSPropertyAPI68method17Ev
	.quad	_ZN15CSSPropertyAPI68method18Ev
	.quad	_ZN15CSSPropertyAPI68method19Ev
	.quad	_ZN15CSSPropertyAPI68method20Ev
	.zero	160
	.zero	160
	.quad	_ZN15CSSPropertyAPI77method1Ev
	.quad	_ZN15CSSPropertyAPI77method2Ev
	.quad	_ZN15CSSPropertyAPI77method3Ev
	.quad	_ZN15CSSPropertyAPI77method4Ev
	.quad	_ZN15CSSPropertyAPI77method5Ev
	.quad	_ZN15CSSPropertyAPI77method6Ev
	.quad	_ZN15CSSPropertyAPI77method7Ev
	.quad	_ZN15CSSPropertyAPI77method8Ev
	.quad	_ZN15CSSPropertyAPI77method9Ev
	.quad	_ZN15CSSPropertyAPI78method10Ev
	.quad	_ZN15CSSPropertyAPI78method11Ev
	.quad	_ZN15CSSPropertyAPI78method12Ev
	.quad	_ZN15CSSPropertyAPI78method13Ev
	.quad	_ZN15CSSPropertyAPI78method14Ev
	.quad	_ZN15CSSPropertyAPI78method15Ev
	.quad	_ZN15CSSPropertyAPI78method16Ev
	.quad	_ZN15CSSPropertyAPI78method17Ev
	.quad	_ZN15CSSPropertyAPI78method18Ev
	.quad	_ZN15CSSPropertyAPI78method19Ev
	.quad	_ZN15CSSPropertyAPI78method20Ev
	.zero	160
	.zero	160
	.quad	_ZN15CSSPropertyAPI47method1Ev
	.quad	_ZN15CSSPropertyAPI47method2Ev
	.quad	_ZN15CSSPropertyAPI47method3Ev
	.quad	_ZN15CSSPropertyAPI47method4Ev
	.quad	_ZN15CSSPropertyAPI47method5Ev
	.quad	_ZN15CSSPropertyAPI47method6Ev
	.quad	_ZN15CSSPropertyAPI47method7Ev
	.quad	_ZN15CSSPropertyAPI47method8Ev
	.quad	_ZN15CSSPropertyAPI47method9Ev
	.quad	_ZN15CSSPropertyAPI48method10Ev
	.quad	_ZN15CSSPropertyAPI48method11Ev
	.quad	_ZN15CSSPropertyAPI48method12Ev
	.quad	_ZN15CSSPropertyAPI48method13Ev
	.quad	_ZN15CSSPropertyAPI48method14Ev
	.quad	_ZN15CSSPropertyAPI48method15Ev
	.quad	_ZN15CSSPropertyAPI48method16Ev
	.quad	_ZN15CSSPropertyAPI48method17Ev
	.quad	_ZN15CSSPropertyAPI48method18Ev
	.quad	_ZN15CSSPropertyAPI48method19Ev
	.quad	_ZN15CSSPropertyAPI48method20Ev
	.quad	_ZN15CSSPropertyAPI97method1Ev
	.quad	_ZN15CSSPropertyAPI97method2Ev
	.quad	_ZN15CSSPropertyAPI97method3Ev
	.quad	_ZN15CSSPropertyAPI97method4Ev
	.quad	_ZN15CSSPropertyAPI97method5Ev
	.quad	_ZN15CSSPropertyAPI97method6Ev
	.quad	_ZN15CSSPropertyAPI97method7Ev
	.quad	_ZN15CSSPropertyAPI97method8Ev
	.quad	_ZN15CSSPropertyAPI97method9Ev
	.quad	_ZN15CSSPropertyAPI98method10Ev
	.quad	_ZN15CSSPropertyAPI98method11Ev
	.quad	_ZN15CSSPropertyAPI98method12Ev
	.quad	_ZN15CSSPropertyAPI98method13Ev
	.quad	_ZN15CSSPropertyAPI98method14Ev
	.quad	_ZN15CSSPropertyAPI98method15Ev
	.quad	_ZN15CSSPropertyAPI98method16Ev
	.quad	_ZN15CSSPropertyAPI98method17Ev
	.quad	_ZN15CSSPropertyAPI98method18Ev
	.quad	_ZN15CSSPropertyAPI98method19Ev
	.quad	_ZN15CSSPropertyAPI98method20Ev
	.zero	160
	.zero	160
	.zero	160
	.quad	_ZN15CSSPropertyAPI17method1Ev
	.quad	_ZN15CSSPropertyAPI17method2Ev
	.quad	_ZN15CSSPropertyAPI17method3Ev
	.quad	_ZN15CSSPropertyAPI17method4Ev
	.quad	_ZN15CSSPropertyAPI17method5Ev
	.quad	_ZN15CSSPropertyAPI17method6Ev
	.quad	_ZN15CSSPropertyAPI17method7Ev
	.quad	_ZN15CSSPropertyAPI17method8Ev
	.quad	_ZN15CSSPropertyAPI17method9Ev
	.quad	_ZN15CSSPropertyAPI18method10Ev
	.quad	_ZN15CSSPropertyAPI18method11Ev
	.quad	_ZN15CSSPropertyAPI18method12Ev
	.quad	_ZN15CSSPropertyAPI18method13Ev
	.quad	_ZN15CSSPropertyAPI18method14Ev
	.quad	_ZN15CSSPropertyAPI18method15Ev
	.quad	_ZN15CSSPropertyAPI18method16Ev
	.quad	_ZN15CSSPropertyAPI18method17Ev
	.quad	_ZN15CSSPropertyAPI18method18Ev
	.quad	_ZN15CSSPropertyAPI18method19Ev
	.quad	_ZN15CSSPropertyAPI18method20Ev
	.quad	_ZN15CSSPropertyAPI87method1Ev
	.quad	_ZN15CSSPropertyAPI87method2Ev
	.quad	_ZN15CSSPropertyAPI87method3Ev
	.quad	_ZN15CSSPropertyAPI87method4Ev
	.quad	_ZN15CSSPropertyAPI87method5Ev
	.quad	_ZN15CSSPropertyAPI87method6Ev
	.quad	_ZN15CSSPropertyAPI87method7Ev
	.quad	_ZN15CSSPropertyAPI87method8Ev
	.quad	_ZN15CSSPropertyAPI87method9Ev
	.quad	_ZN15CSSPropertyAPI88method10Ev
	.quad	_ZN15CSSPropertyAPI88method11Ev
	.quad	_ZN15CSSPropertyAPI88method12Ev
	.quad	_ZN15CSSPropertyAPI88method13Ev
	.quad	_ZN15CSSPropertyAPI88method14Ev
	.quad	_ZN15CSSPropertyAPI88method15Ev
	.quad	_ZN15CSSPropertyAPI88method16Ev
	.quad	_ZN15CSSPropertyAPI88method17Ev
	.quad	_ZN15CSSPropertyAPI88method18Ev
	.quad	_ZN15CSSPropertyAPI88method19Ev
	.quad	_ZN15CSSPropertyAPI88method20Ev
	.zero	160
	.quad	_ZN15CSSPropertyAPI57method1Ev
	.quad	_ZN15CSSPropertyAPI57method2Ev
	.quad	_ZN15CSSPropertyAPI57method3Ev
	.quad	_ZN15CSSPropertyAPI57method4Ev
	.quad	_ZN15CSSPropertyAPI57method5Ev
	.quad	_ZN15CSSPropertyAPI57method6Ev
	.quad	_ZN15CSSPropertyAPI57method7Ev
	.quad	_ZN15CSSPropertyAPI57method8Ev
	.quad	_ZN15CSSPropertyAPI57method9Ev
	.quad	_ZN15CSSPropertyAPI58method10Ev
	.quad	_ZN15CSSPropertyAPI58method11Ev
	.quad	_ZN15CSSPropertyAPI58method12Ev
	.quad	_ZN15CSSPropertyAPI58method13Ev
	.quad	_ZN15CSSPropertyAPI58method14Ev
	.quad	_ZN15CSSPropertyAPI58method15Ev
	.quad	_ZN15CSSPropertyAPI58method16Ev
	.quad	_ZN15CSSPropertyAPI58method17Ev
	.quad	_ZN15CSSPropertyAPI58method18Ev
	.quad	_ZN15CSSPropertyAPI58method19Ev
	.quad	_ZN15CSSPropertyAPI58method20Ev
	.quad	_ZN15CSSPropertyAPI27method1Ev
	.quad	_ZN15CSSPropertyAPI27method2Ev
	.quad	_ZN15CSSPropertyAPI27method3Ev
	.quad	_ZN15CSSPropertyAPI27method4Ev
	.quad	_ZN15CSSPropertyAPI27method5Ev
	.quad	_ZN15CSSPropertyAPI27method6Ev
	.quad	_ZN15CSSPropertyAPI27method7Ev
	.quad	_ZN15CSSPropertyAPI27method8Ev
	.quad	_ZN15CSSPropertyAPI27method9Ev
	.quad	_ZN15CSSPropertyAPI28method10Ev
	.quad	_ZN15CSSPropertyAPI28method11Ev
	.quad	_ZN15CSSPropertyAPI28method12Ev
	.quad	_ZN15CSSPropertyAPI28method13Ev
	.quad	_ZN15CSSPropertyAPI28method14Ev
	.quad	_ZN15CSSPropertyAPI28method15Ev
	.quad	_ZN15CSSPropertyAPI28method16Ev
	.quad	_ZN15CSSPropertyAPI28method17Ev
	.quad	_ZN15CSSPropertyAPI28method18Ev
	.quad	_ZN15CSSPropertyAPI28method19Ev
	.quad	_ZN15CSSPropertyAPI28method20Ev
	.quad	_ZN16CSSPropertyAPI107method1Ev
	.quad	_ZN16CSSPropertyAPI107method2Ev
	.quad	_ZN16CSSPropertyAPI107method3Ev
	.quad	_ZN16CSSPropertyAPI107method4Ev
	.quad	_ZN16CSSPropertyAPI107method5Ev
	.quad	_ZN16CSSPropertyAPI107method6Ev
	.quad	_ZN16CSSPropertyAPI107method7Ev
	.quad	_ZN16CSSPropertyAPI107method8Ev
	.quad	_ZN16CSSPropertyAPI107method9Ev
	.quad	_ZN16CSSPropertyAPI108method10Ev
	.quad	_ZN16CSSPropertyAPI108method11Ev
	.quad	_ZN16CSSPropertyAPI108method12Ev
	.quad	_ZN16CSSPropertyAPI108method13Ev
	.quad	_ZN16CSSPropertyAPI108method14Ev
	.quad	_ZN16CSSPropertyAPI108method15Ev
	.quad	_ZN16CSSPropertyAPI108method16Ev
	.quad	_ZN16CSSPropertyAPI108method17Ev
	.quad	_ZN16CSSPropertyAPI108method18Ev
	.quad	_ZN16CSSPropertyAPI108method19Ev
	.quad	_ZN16CSSPropertyAPI108method20Ev
	.quad	_ZN15CSSPropertyAPI37method1Ev
	.quad	_ZN15CSSPropertyAPI37method2Ev
	.quad	_ZN15CSSPropertyAPI37method3Ev
	.quad	_ZN15CSSPropertyAPI37method4Ev
	.quad	_ZN15CSSPropertyAPI37method5Ev
	.quad	_ZN15CSSPropertyAPI37method6Ev
	.quad	_ZN15CSSPropertyAPI37method7Ev
	.quad	_ZN15CSSPropertyAPI37method8Ev
	.quad	_ZN15CSSPropertyAPI37method9Ev
	.quad	_ZN15CSSPropertyAPI38method10Ev
	.quad	_ZN15CSSPropertyAPI38method11Ev
	.quad	_ZN15CSSPropertyAPI38method12Ev
	.quad	_ZN15CSSPropertyAPI38method13Ev
	.quad	_ZN15CSSPropertyAPI38method14Ev
	.quad	_ZN15CSSPropertyAPI38method15Ev
	.quad	_ZN15CSSPropertyAPI38method16Ev
	.quad	_ZN15CSSPropertyAPI38method17Ev
	.quad	_ZN15CSSPropertyAPI38method18Ev
	.quad	_ZN15CSSPropertyAPI38method19Ev
	.quad	_ZN15CSSPropertyAPI38method20Ev
	.size	_ZL11descriptors, 3200

	.type	_ZL17descriptorIndices,@object # @_ZL17descriptorIndices
	.p2align	4
_ZL17descriptorIndices:
	.quad	18                      # 0x12
	.quad	15                      # 0xf
	.quad	17                      # 0x11
	.quad	9                       # 0x9
	.quad	5                       # 0x5
	.quad	10                      # 0xa
	.quad	13                      # 0xd
	.quad	3                       # 0x3
	.quad	11                      # 0xb
	.quad	2                       # 0x2
	.quad	0                       # 0x0
	.quad	14                      # 0xe
	.quad	4                       # 0x4
	.quad	7                       # 0x7
	.quad	16                      # 0x10
	.quad	12                      # 0xc
	.quad	6                       # 0x6
	.quad	19                      # 0x13
	.quad	1                       # 0x1
	.quad	8                       # 0x8
	.size	_ZL17descriptorIndices, 160


	.ident	"clang version 6.0.0 (trunk 309984)"
	.section	".note.GNU-stack","",@progbits
