	.file	"descriptor-split-10-classes-test.cpp"
	.text
	.align 2
	.p2align 4,,15
	.globl	_ZN15CSSPropertyAPI15parseEv
	.type	_ZN15CSSPropertyAPI15parseEv, @function
_ZN15CSSPropertyAPI15parseEv:
.LFB19:
	.cfi_startproc
	movl	increment_me(%rip), %eax
	addl	$1, %eax
	movl	%eax, increment_me(%rip)
	ret
	.cfi_endproc
.LFE19:
	.size	_ZN15CSSPropertyAPI15parseEv, .-_ZN15CSSPropertyAPI15parseEv
	.align 2
	.p2align 4,,15
	.globl	_ZN15CSSPropertyAPI25parseEv
	.type	_ZN15CSSPropertyAPI25parseEv, @function
_ZN15CSSPropertyAPI25parseEv:
.LFB20:
	.cfi_startproc
	movl	increment_me(%rip), %eax
	addl	$2, %eax
	movl	%eax, increment_me(%rip)
	ret
	.cfi_endproc
.LFE20:
	.size	_ZN15CSSPropertyAPI25parseEv, .-_ZN15CSSPropertyAPI25parseEv
	.align 2
	.p2align 4,,15
	.globl	_ZN15CSSPropertyAPI35parseEv
	.type	_ZN15CSSPropertyAPI35parseEv, @function
_ZN15CSSPropertyAPI35parseEv:
.LFB21:
	.cfi_startproc
	movl	increment_me(%rip), %eax
	addl	$3, %eax
	movl	%eax, increment_me(%rip)
	ret
	.cfi_endproc
.LFE21:
	.size	_ZN15CSSPropertyAPI35parseEv, .-_ZN15CSSPropertyAPI35parseEv
	.align 2
	.p2align 4,,15
	.globl	_ZN15CSSPropertyAPI45parseEv
	.type	_ZN15CSSPropertyAPI45parseEv, @function
_ZN15CSSPropertyAPI45parseEv:
.LFB22:
	.cfi_startproc
	movl	increment_me(%rip), %eax
	addl	$4, %eax
	movl	%eax, increment_me(%rip)
	ret
	.cfi_endproc
.LFE22:
	.size	_ZN15CSSPropertyAPI45parseEv, .-_ZN15CSSPropertyAPI45parseEv
	.align 2
	.p2align 4,,15
	.globl	_ZN15CSSPropertyAPI55parseEv
	.type	_ZN15CSSPropertyAPI55parseEv, @function
_ZN15CSSPropertyAPI55parseEv:
.LFB23:
	.cfi_startproc
	movl	increment_me(%rip), %eax
	addl	$5, %eax
	movl	%eax, increment_me(%rip)
	ret
	.cfi_endproc
.LFE23:
	.size	_ZN15CSSPropertyAPI55parseEv, .-_ZN15CSSPropertyAPI55parseEv
	.align 2
	.p2align 4,,15
	.globl	_ZN15CSSPropertyAPI65parseEv
	.type	_ZN15CSSPropertyAPI65parseEv, @function
_ZN15CSSPropertyAPI65parseEv:
.LFB24:
	.cfi_startproc
	movl	increment_me(%rip), %eax
	addl	$6, %eax
	movl	%eax, increment_me(%rip)
	ret
	.cfi_endproc
.LFE24:
	.size	_ZN15CSSPropertyAPI65parseEv, .-_ZN15CSSPropertyAPI65parseEv
	.align 2
	.p2align 4,,15
	.globl	_ZN15CSSPropertyAPI75parseEv
	.type	_ZN15CSSPropertyAPI75parseEv, @function
_ZN15CSSPropertyAPI75parseEv:
.LFB25:
	.cfi_startproc
	movl	increment_me(%rip), %eax
	addl	$7, %eax
	movl	%eax, increment_me(%rip)
	ret
	.cfi_endproc
.LFE25:
	.size	_ZN15CSSPropertyAPI75parseEv, .-_ZN15CSSPropertyAPI75parseEv
	.align 2
	.p2align 4,,15
	.globl	_ZN15CSSPropertyAPI85parseEv
	.type	_ZN15CSSPropertyAPI85parseEv, @function
_ZN15CSSPropertyAPI85parseEv:
.LFB26:
	.cfi_startproc
	movl	increment_me(%rip), %eax
	addl	$8, %eax
	movl	%eax, increment_me(%rip)
	ret
	.cfi_endproc
.LFE26:
	.size	_ZN15CSSPropertyAPI85parseEv, .-_ZN15CSSPropertyAPI85parseEv
	.align 2
	.p2align 4,,15
	.globl	_ZN15CSSPropertyAPI95parseEv
	.type	_ZN15CSSPropertyAPI95parseEv, @function
_ZN15CSSPropertyAPI95parseEv:
.LFB27:
	.cfi_startproc
	movl	increment_me(%rip), %eax
	addl	$9, %eax
	movl	%eax, increment_me(%rip)
	ret
	.cfi_endproc
.LFE27:
	.size	_ZN15CSSPropertyAPI95parseEv, .-_ZN15CSSPropertyAPI95parseEv
	.align 2
	.p2align 4,,15
	.globl	_ZN16CSSPropertyAPI105parseEv
	.type	_ZN16CSSPropertyAPI105parseEv, @function
_ZN16CSSPropertyAPI105parseEv:
.LFB28:
	.cfi_startproc
	movl	increment_me(%rip), %eax
	addl	$10, %eax
	movl	%eax, increment_me(%rip)
	ret
	.cfi_endproc
.LFE28:
	.size	_ZN16CSSPropertyAPI105parseEv, .-_ZN16CSSPropertyAPI105parseEv
	.align 2
	.p2align 4,,15
	.globl	_ZN21CSSPropertyDescriptor3GetEi
	.type	_ZN21CSSPropertyDescriptor3GetEi, @function
_ZN21CSSPropertyDescriptor3GetEi:
.LFB29:
	.cfi_startproc
	movslq	%edi, %rdi
	movq	_ZL17descriptorIndices(,%rdi,8), %rax
	leaq	_ZL11descriptors(,%rax,8), %rax
	ret
	.cfi_endproc
.LFE29:
	.size	_ZN21CSSPropertyDescriptor3GetEi, .-_ZN21CSSPropertyDescriptor3GetEi
	.section	.rodata
	.align 32
	.type	_ZL11descriptors, @object
	.size	_ZL11descriptors, 160
_ZL11descriptors:
	.quad	_ZN15CSSPropertyAPI55parseEv
	.quad	0
	.quad	0
	.quad	0
	.quad	_ZN15CSSPropertyAPI35parseEv
	.quad	0
	.quad	_ZN15CSSPropertyAPI15parseEv
	.quad	0
	.quad	_ZN16CSSPropertyAPI105parseEv
	.quad	_ZN15CSSPropertyAPI25parseEv
	.quad	_ZN15CSSPropertyAPI85parseEv
	.quad	0
	.quad	_ZN15CSSPropertyAPI65parseEv
	.quad	0
	.quad	_ZN15CSSPropertyAPI45parseEv
	.quad	0
	.quad	0
	.quad	_ZN15CSSPropertyAPI75parseEv
	.quad	_ZN15CSSPropertyAPI95parseEv
	.quad	0
	.align 32
	.type	_ZL17descriptorIndices, @object
	.size	_ZL17descriptorIndices, 160
_ZL17descriptorIndices:
	.quad	3
	.quad	9
	.quad	16
	.quad	1
	.quad	0
	.quad	17
	.quad	4
	.quad	8
	.quad	11
	.quad	14
	.quad	7
	.quad	19
	.quad	2
	.quad	15
	.quad	5
	.quad	10
	.quad	13
	.quad	18
	.quad	6
	.quad	12
	.globl	increment_me
	.bss
	.align 4
	.type	increment_me, @object
	.size	increment_me, 4
increment_me:
	.zero	4
	.ident	"GCC: (Ubuntu 4.8.4-2ubuntu1~14.04.3) 4.8.4"
	.section	.note.GNU-stack,"",@progbits
