	.text
	.file	"generated/descriptor-moremethods-split-10-classes-2-methods-calls-test/descriptor-moremethods-split-10-classes-2-methods-calls-test.cpp"
	.globl	_ZN15CSSPropertyAPI17method1Ev # -- Begin function _ZN15CSSPropertyAPI17method1Ev
	.p2align	4, 0x90
	.type	_ZN15CSSPropertyAPI17method1Ev,@function
_ZN15CSSPropertyAPI17method1Ev:         # @_ZN15CSSPropertyAPI17method1Ev
	.cfi_startproc
# BB#0:                                 # %entry
	addl	$2, increment_me(%rip)
	retq
.Lfunc_end0:
	.size	_ZN15CSSPropertyAPI17method1Ev, .Lfunc_end0-_ZN15CSSPropertyAPI17method1Ev
	.cfi_endproc
                                        # -- End function
	.globl	_ZN15CSSPropertyAPI17method2Ev # -- Begin function _ZN15CSSPropertyAPI17method2Ev
	.p2align	4, 0x90
	.type	_ZN15CSSPropertyAPI17method2Ev,@function
_ZN15CSSPropertyAPI17method2Ev:         # @_ZN15CSSPropertyAPI17method2Ev
	.cfi_startproc
# BB#0:                                 # %entry
	addl	$3, increment_me(%rip)
	retq
.Lfunc_end1:
	.size	_ZN15CSSPropertyAPI17method2Ev, .Lfunc_end1-_ZN15CSSPropertyAPI17method2Ev
	.cfi_endproc
                                        # -- End function
	.globl	_ZN15CSSPropertyAPI27method1Ev # -- Begin function _ZN15CSSPropertyAPI27method1Ev
	.p2align	4, 0x90
	.type	_ZN15CSSPropertyAPI27method1Ev,@function
_ZN15CSSPropertyAPI27method1Ev:         # @_ZN15CSSPropertyAPI27method1Ev
	.cfi_startproc
# BB#0:                                 # %entry
	addl	$3, increment_me(%rip)
	retq
.Lfunc_end2:
	.size	_ZN15CSSPropertyAPI27method1Ev, .Lfunc_end2-_ZN15CSSPropertyAPI27method1Ev
	.cfi_endproc
                                        # -- End function
	.globl	_ZN15CSSPropertyAPI27method2Ev # -- Begin function _ZN15CSSPropertyAPI27method2Ev
	.p2align	4, 0x90
	.type	_ZN15CSSPropertyAPI27method2Ev,@function
_ZN15CSSPropertyAPI27method2Ev:         # @_ZN15CSSPropertyAPI27method2Ev
	.cfi_startproc
# BB#0:                                 # %entry
	addl	$4, increment_me(%rip)
	retq
.Lfunc_end3:
	.size	_ZN15CSSPropertyAPI27method2Ev, .Lfunc_end3-_ZN15CSSPropertyAPI27method2Ev
	.cfi_endproc
                                        # -- End function
	.globl	_ZN15CSSPropertyAPI37method1Ev # -- Begin function _ZN15CSSPropertyAPI37method1Ev
	.p2align	4, 0x90
	.type	_ZN15CSSPropertyAPI37method1Ev,@function
_ZN15CSSPropertyAPI37method1Ev:         # @_ZN15CSSPropertyAPI37method1Ev
	.cfi_startproc
# BB#0:                                 # %entry
	addl	$4, increment_me(%rip)
	retq
.Lfunc_end4:
	.size	_ZN15CSSPropertyAPI37method1Ev, .Lfunc_end4-_ZN15CSSPropertyAPI37method1Ev
	.cfi_endproc
                                        # -- End function
	.globl	_ZN15CSSPropertyAPI37method2Ev # -- Begin function _ZN15CSSPropertyAPI37method2Ev
	.p2align	4, 0x90
	.type	_ZN15CSSPropertyAPI37method2Ev,@function
_ZN15CSSPropertyAPI37method2Ev:         # @_ZN15CSSPropertyAPI37method2Ev
	.cfi_startproc
# BB#0:                                 # %entry
	addl	$5, increment_me(%rip)
	retq
.Lfunc_end5:
	.size	_ZN15CSSPropertyAPI37method2Ev, .Lfunc_end5-_ZN15CSSPropertyAPI37method2Ev
	.cfi_endproc
                                        # -- End function
	.globl	_ZN15CSSPropertyAPI47method1Ev # -- Begin function _ZN15CSSPropertyAPI47method1Ev
	.p2align	4, 0x90
	.type	_ZN15CSSPropertyAPI47method1Ev,@function
_ZN15CSSPropertyAPI47method1Ev:         # @_ZN15CSSPropertyAPI47method1Ev
	.cfi_startproc
# BB#0:                                 # %entry
	addl	$5, increment_me(%rip)
	retq
.Lfunc_end6:
	.size	_ZN15CSSPropertyAPI47method1Ev, .Lfunc_end6-_ZN15CSSPropertyAPI47method1Ev
	.cfi_endproc
                                        # -- End function
	.globl	_ZN15CSSPropertyAPI47method2Ev # -- Begin function _ZN15CSSPropertyAPI47method2Ev
	.p2align	4, 0x90
	.type	_ZN15CSSPropertyAPI47method2Ev,@function
_ZN15CSSPropertyAPI47method2Ev:         # @_ZN15CSSPropertyAPI47method2Ev
	.cfi_startproc
# BB#0:                                 # %entry
	addl	$6, increment_me(%rip)
	retq
.Lfunc_end7:
	.size	_ZN15CSSPropertyAPI47method2Ev, .Lfunc_end7-_ZN15CSSPropertyAPI47method2Ev
	.cfi_endproc
                                        # -- End function
	.globl	_ZN15CSSPropertyAPI57method1Ev # -- Begin function _ZN15CSSPropertyAPI57method1Ev
	.p2align	4, 0x90
	.type	_ZN15CSSPropertyAPI57method1Ev,@function
_ZN15CSSPropertyAPI57method1Ev:         # @_ZN15CSSPropertyAPI57method1Ev
	.cfi_startproc
# BB#0:                                 # %entry
	addl	$6, increment_me(%rip)
	retq
.Lfunc_end8:
	.size	_ZN15CSSPropertyAPI57method1Ev, .Lfunc_end8-_ZN15CSSPropertyAPI57method1Ev
	.cfi_endproc
                                        # -- End function
	.globl	_ZN15CSSPropertyAPI57method2Ev # -- Begin function _ZN15CSSPropertyAPI57method2Ev
	.p2align	4, 0x90
	.type	_ZN15CSSPropertyAPI57method2Ev,@function
_ZN15CSSPropertyAPI57method2Ev:         # @_ZN15CSSPropertyAPI57method2Ev
	.cfi_startproc
# BB#0:                                 # %entry
	addl	$7, increment_me(%rip)
	retq
.Lfunc_end9:
	.size	_ZN15CSSPropertyAPI57method2Ev, .Lfunc_end9-_ZN15CSSPropertyAPI57method2Ev
	.cfi_endproc
                                        # -- End function
	.globl	_ZN15CSSPropertyAPI67method1Ev # -- Begin function _ZN15CSSPropertyAPI67method1Ev
	.p2align	4, 0x90
	.type	_ZN15CSSPropertyAPI67method1Ev,@function
_ZN15CSSPropertyAPI67method1Ev:         # @_ZN15CSSPropertyAPI67method1Ev
	.cfi_startproc
# BB#0:                                 # %entry
	addl	$7, increment_me(%rip)
	retq
.Lfunc_end10:
	.size	_ZN15CSSPropertyAPI67method1Ev, .Lfunc_end10-_ZN15CSSPropertyAPI67method1Ev
	.cfi_endproc
                                        # -- End function
	.globl	_ZN15CSSPropertyAPI67method2Ev # -- Begin function _ZN15CSSPropertyAPI67method2Ev
	.p2align	4, 0x90
	.type	_ZN15CSSPropertyAPI67method2Ev,@function
_ZN15CSSPropertyAPI67method2Ev:         # @_ZN15CSSPropertyAPI67method2Ev
	.cfi_startproc
# BB#0:                                 # %entry
	addl	$8, increment_me(%rip)
	retq
.Lfunc_end11:
	.size	_ZN15CSSPropertyAPI67method2Ev, .Lfunc_end11-_ZN15CSSPropertyAPI67method2Ev
	.cfi_endproc
                                        # -- End function
	.globl	_ZN15CSSPropertyAPI77method1Ev # -- Begin function _ZN15CSSPropertyAPI77method1Ev
	.p2align	4, 0x90
	.type	_ZN15CSSPropertyAPI77method1Ev,@function
_ZN15CSSPropertyAPI77method1Ev:         # @_ZN15CSSPropertyAPI77method1Ev
	.cfi_startproc
# BB#0:                                 # %entry
	addl	$8, increment_me(%rip)
	retq
.Lfunc_end12:
	.size	_ZN15CSSPropertyAPI77method1Ev, .Lfunc_end12-_ZN15CSSPropertyAPI77method1Ev
	.cfi_endproc
                                        # -- End function
	.globl	_ZN15CSSPropertyAPI77method2Ev # -- Begin function _ZN15CSSPropertyAPI77method2Ev
	.p2align	4, 0x90
	.type	_ZN15CSSPropertyAPI77method2Ev,@function
_ZN15CSSPropertyAPI77method2Ev:         # @_ZN15CSSPropertyAPI77method2Ev
	.cfi_startproc
# BB#0:                                 # %entry
	addl	$9, increment_me(%rip)
	retq
.Lfunc_end13:
	.size	_ZN15CSSPropertyAPI77method2Ev, .Lfunc_end13-_ZN15CSSPropertyAPI77method2Ev
	.cfi_endproc
                                        # -- End function
	.globl	_ZN15CSSPropertyAPI87method1Ev # -- Begin function _ZN15CSSPropertyAPI87method1Ev
	.p2align	4, 0x90
	.type	_ZN15CSSPropertyAPI87method1Ev,@function
_ZN15CSSPropertyAPI87method1Ev:         # @_ZN15CSSPropertyAPI87method1Ev
	.cfi_startproc
# BB#0:                                 # %entry
	addl	$9, increment_me(%rip)
	retq
.Lfunc_end14:
	.size	_ZN15CSSPropertyAPI87method1Ev, .Lfunc_end14-_ZN15CSSPropertyAPI87method1Ev
	.cfi_endproc
                                        # -- End function
	.globl	_ZN15CSSPropertyAPI87method2Ev # -- Begin function _ZN15CSSPropertyAPI87method2Ev
	.p2align	4, 0x90
	.type	_ZN15CSSPropertyAPI87method2Ev,@function
_ZN15CSSPropertyAPI87method2Ev:         # @_ZN15CSSPropertyAPI87method2Ev
	.cfi_startproc
# BB#0:                                 # %entry
	addl	$10, increment_me(%rip)
	retq
.Lfunc_end15:
	.size	_ZN15CSSPropertyAPI87method2Ev, .Lfunc_end15-_ZN15CSSPropertyAPI87method2Ev
	.cfi_endproc
                                        # -- End function
	.globl	_ZN15CSSPropertyAPI97method1Ev # -- Begin function _ZN15CSSPropertyAPI97method1Ev
	.p2align	4, 0x90
	.type	_ZN15CSSPropertyAPI97method1Ev,@function
_ZN15CSSPropertyAPI97method1Ev:         # @_ZN15CSSPropertyAPI97method1Ev
	.cfi_startproc
# BB#0:                                 # %entry
	addl	$10, increment_me(%rip)
	retq
.Lfunc_end16:
	.size	_ZN15CSSPropertyAPI97method1Ev, .Lfunc_end16-_ZN15CSSPropertyAPI97method1Ev
	.cfi_endproc
                                        # -- End function
	.globl	_ZN15CSSPropertyAPI97method2Ev # -- Begin function _ZN15CSSPropertyAPI97method2Ev
	.p2align	4, 0x90
	.type	_ZN15CSSPropertyAPI97method2Ev,@function
_ZN15CSSPropertyAPI97method2Ev:         # @_ZN15CSSPropertyAPI97method2Ev
	.cfi_startproc
# BB#0:                                 # %entry
	addl	$11, increment_me(%rip)
	retq
.Lfunc_end17:
	.size	_ZN15CSSPropertyAPI97method2Ev, .Lfunc_end17-_ZN15CSSPropertyAPI97method2Ev
	.cfi_endproc
                                        # -- End function
	.globl	_ZN16CSSPropertyAPI107method1Ev # -- Begin function _ZN16CSSPropertyAPI107method1Ev
	.p2align	4, 0x90
	.type	_ZN16CSSPropertyAPI107method1Ev,@function
_ZN16CSSPropertyAPI107method1Ev:        # @_ZN16CSSPropertyAPI107method1Ev
	.cfi_startproc
# BB#0:                                 # %entry
	addl	$11, increment_me(%rip)
	retq
.Lfunc_end18:
	.size	_ZN16CSSPropertyAPI107method1Ev, .Lfunc_end18-_ZN16CSSPropertyAPI107method1Ev
	.cfi_endproc
                                        # -- End function
	.globl	_ZN16CSSPropertyAPI107method2Ev # -- Begin function _ZN16CSSPropertyAPI107method2Ev
	.p2align	4, 0x90
	.type	_ZN16CSSPropertyAPI107method2Ev,@function
_ZN16CSSPropertyAPI107method2Ev:        # @_ZN16CSSPropertyAPI107method2Ev
	.cfi_startproc
# BB#0:                                 # %entry
	addl	$12, increment_me(%rip)
	retq
.Lfunc_end19:
	.size	_ZN16CSSPropertyAPI107method2Ev, .Lfunc_end19-_ZN16CSSPropertyAPI107method2Ev
	.cfi_endproc
                                        # -- End function
	.globl	_ZN21CSSPropertyDescriptor3GetEi # -- Begin function _ZN21CSSPropertyDescriptor3GetEi
	.p2align	4, 0x90
	.type	_ZN21CSSPropertyDescriptor3GetEi,@function
_ZN21CSSPropertyDescriptor3GetEi:       # @_ZN21CSSPropertyDescriptor3GetEi
	.cfi_startproc
# BB#0:                                 # %entry
	movslq	%edi, %rax
	movq	_ZL17descriptorIndices(,%rax,8), %rax
	shlq	$4, %rax
	leaq	_ZL11descriptors(%rax), %rax
	retq
.Lfunc_end20:
	.size	_ZN21CSSPropertyDescriptor3GetEi, .Lfunc_end20-_ZN21CSSPropertyDescriptor3GetEi
	.cfi_endproc
                                        # -- End function
	.type	increment_me,@object    # @increment_me
	.bss
	.globl	increment_me
	.p2align	2
increment_me:
	.long	0                       # 0x0
	.size	increment_me, 4

	.type	_ZL11descriptors,@object # @_ZL11descriptors
	.section	.rodata,"a",@progbits
	.p2align	4
_ZL11descriptors:
	.quad	_ZN15CSSPropertyAPI17method1Ev
	.quad	_ZN15CSSPropertyAPI17method2Ev
	.zero	16
	.quad	_ZN15CSSPropertyAPI87method1Ev
	.quad	_ZN15CSSPropertyAPI87method2Ev
	.quad	_ZN15CSSPropertyAPI37method1Ev
	.quad	_ZN15CSSPropertyAPI37method2Ev
	.quad	_ZN15CSSPropertyAPI77method1Ev
	.quad	_ZN15CSSPropertyAPI77method2Ev
	.zero	16
	.zero	16
	.zero	16
	.zero	16
	.quad	_ZN15CSSPropertyAPI67method1Ev
	.quad	_ZN15CSSPropertyAPI67method2Ev
	.zero	16
	.quad	_ZN15CSSPropertyAPI57method1Ev
	.quad	_ZN15CSSPropertyAPI57method2Ev
	.quad	_ZN15CSSPropertyAPI47method1Ev
	.quad	_ZN15CSSPropertyAPI47method2Ev
	.quad	_ZN15CSSPropertyAPI97method1Ev
	.quad	_ZN15CSSPropertyAPI97method2Ev
	.zero	16
	.zero	16
	.zero	16
	.zero	16
	.quad	_ZN15CSSPropertyAPI27method1Ev
	.quad	_ZN15CSSPropertyAPI27method2Ev
	.quad	_ZN16CSSPropertyAPI107method1Ev
	.quad	_ZN16CSSPropertyAPI107method2Ev
	.size	_ZL11descriptors, 320

	.type	_ZL17descriptorIndices,@object # @_ZL17descriptorIndices
	.p2align	4
_ZL17descriptorIndices:
	.quad	8                       # 0x8
	.quad	9                       # 0x9
	.quad	7                       # 0x7
	.quad	1                       # 0x1
	.quad	0                       # 0x0
	.quad	17                      # 0x11
	.quad	12                      # 0xc
	.quad	10                      # 0xa
	.quad	3                       # 0x3
	.quad	6                       # 0x6
	.quad	19                      # 0x13
	.quad	15                      # 0xf
	.quad	2                       # 0x2
	.quad	13                      # 0xd
	.quad	14                      # 0xe
	.quad	11                      # 0xb
	.quad	18                      # 0x12
	.quad	4                       # 0x4
	.quad	16                      # 0x10
	.quad	5                       # 0x5
	.size	_ZL17descriptorIndices, 160


	.ident	"clang version 5.0.0 (trunk 307486)"
	.section	".note.GNU-stack","",@progbits
