	.file	"generated/sasha-static-function-array-lookup-10-classes-test.cpp"
	.section	.text._ZN6Class517doSomethingStaticEv,"axG",@progbits,_ZN6Class517doSomethingStaticEv,comdat
	.weak	_ZN6Class517doSomethingStaticEv
	.align	16, 0x90
	.type	_ZN6Class517doSomethingStaticEv,@function
_ZN6Class517doSomethingStaticEv:        # @_ZN6Class517doSomethingStaticEv
	.cfi_startproc
# BB#0:
	addl	$5, increment_me(%rip)
	ret
.Ltmp0:
	.size	_ZN6Class517doSomethingStaticEv, .Ltmp0-_ZN6Class517doSomethingStaticEv
	.cfi_endproc

	.section	.text._ZN6Class817doSomethingStaticEv,"axG",@progbits,_ZN6Class817doSomethingStaticEv,comdat
	.weak	_ZN6Class817doSomethingStaticEv
	.align	16, 0x90
	.type	_ZN6Class817doSomethingStaticEv,@function
_ZN6Class817doSomethingStaticEv:        # @_ZN6Class817doSomethingStaticEv
	.cfi_startproc
# BB#0:
	addl	$8, increment_me(%rip)
	ret
.Ltmp1:
	.size	_ZN6Class817doSomethingStaticEv, .Ltmp1-_ZN6Class817doSomethingStaticEv
	.cfi_endproc

	.section	.text._ZN6Class717doSomethingStaticEv,"axG",@progbits,_ZN6Class717doSomethingStaticEv,comdat
	.weak	_ZN6Class717doSomethingStaticEv
	.align	16, 0x90
	.type	_ZN6Class717doSomethingStaticEv,@function
_ZN6Class717doSomethingStaticEv:        # @_ZN6Class717doSomethingStaticEv
	.cfi_startproc
# BB#0:
	addl	$7, increment_me(%rip)
	ret
.Ltmp2:
	.size	_ZN6Class717doSomethingStaticEv, .Ltmp2-_ZN6Class717doSomethingStaticEv
	.cfi_endproc

	.section	.text._ZN6Class317doSomethingStaticEv,"axG",@progbits,_ZN6Class317doSomethingStaticEv,comdat
	.weak	_ZN6Class317doSomethingStaticEv
	.align	16, 0x90
	.type	_ZN6Class317doSomethingStaticEv,@function
_ZN6Class317doSomethingStaticEv:        # @_ZN6Class317doSomethingStaticEv
	.cfi_startproc
# BB#0:
	addl	$3, increment_me(%rip)
	ret
.Ltmp3:
	.size	_ZN6Class317doSomethingStaticEv, .Ltmp3-_ZN6Class317doSomethingStaticEv
	.cfi_endproc

	.section	.text._ZN6Class217doSomethingStaticEv,"axG",@progbits,_ZN6Class217doSomethingStaticEv,comdat
	.weak	_ZN6Class217doSomethingStaticEv
	.align	16, 0x90
	.type	_ZN6Class217doSomethingStaticEv,@function
_ZN6Class217doSomethingStaticEv:        # @_ZN6Class217doSomethingStaticEv
	.cfi_startproc
# BB#0:
	addl	$2, increment_me(%rip)
	ret
.Ltmp4:
	.size	_ZN6Class217doSomethingStaticEv, .Ltmp4-_ZN6Class217doSomethingStaticEv
	.cfi_endproc

	.section	.text._ZN6Class617doSomethingStaticEv,"axG",@progbits,_ZN6Class617doSomethingStaticEv,comdat
	.weak	_ZN6Class617doSomethingStaticEv
	.align	16, 0x90
	.type	_ZN6Class617doSomethingStaticEv,@function
_ZN6Class617doSomethingStaticEv:        # @_ZN6Class617doSomethingStaticEv
	.cfi_startproc
# BB#0:
	addl	$6, increment_me(%rip)
	ret
.Ltmp5:
	.size	_ZN6Class617doSomethingStaticEv, .Ltmp5-_ZN6Class617doSomethingStaticEv
	.cfi_endproc

	.section	.text._ZN6Class117doSomethingStaticEv,"axG",@progbits,_ZN6Class117doSomethingStaticEv,comdat
	.weak	_ZN6Class117doSomethingStaticEv
	.align	16, 0x90
	.type	_ZN6Class117doSomethingStaticEv,@function
_ZN6Class117doSomethingStaticEv:        # @_ZN6Class117doSomethingStaticEv
	.cfi_startproc
# BB#0:
	incl	increment_me(%rip)
	ret
.Ltmp6:
	.size	_ZN6Class117doSomethingStaticEv, .Ltmp6-_ZN6Class117doSomethingStaticEv
	.cfi_endproc

	.section	.text._ZN7Class1017doSomethingStaticEv,"axG",@progbits,_ZN7Class1017doSomethingStaticEv,comdat
	.weak	_ZN7Class1017doSomethingStaticEv
	.align	16, 0x90
	.type	_ZN7Class1017doSomethingStaticEv,@function
_ZN7Class1017doSomethingStaticEv:       # @_ZN7Class1017doSomethingStaticEv
	.cfi_startproc
# BB#0:
	addl	$10, increment_me(%rip)
	ret
.Ltmp7:
	.size	_ZN7Class1017doSomethingStaticEv, .Ltmp7-_ZN7Class1017doSomethingStaticEv
	.cfi_endproc

	.section	.text._ZN6Class917doSomethingStaticEv,"axG",@progbits,_ZN6Class917doSomethingStaticEv,comdat
	.weak	_ZN6Class917doSomethingStaticEv
	.align	16, 0x90
	.type	_ZN6Class917doSomethingStaticEv,@function
_ZN6Class917doSomethingStaticEv:        # @_ZN6Class917doSomethingStaticEv
	.cfi_startproc
# BB#0:
	addl	$9, increment_me(%rip)
	ret
.Ltmp8:
	.size	_ZN6Class917doSomethingStaticEv, .Ltmp8-_ZN6Class917doSomethingStaticEv
	.cfi_endproc

	.section	.text._ZN6Class417doSomethingStaticEv,"axG",@progbits,_ZN6Class417doSomethingStaticEv,comdat
	.weak	_ZN6Class417doSomethingStaticEv
	.align	16, 0x90
	.type	_ZN6Class417doSomethingStaticEv,@function
_ZN6Class417doSomethingStaticEv:        # @_ZN6Class417doSomethingStaticEv
	.cfi_startproc
# BB#0:
	addl	$4, increment_me(%rip)
	ret
.Ltmp9:
	.size	_ZN6Class417doSomethingStaticEv, .Ltmp9-_ZN6Class417doSomethingStaticEv
	.cfi_endproc

	.text
	.globl	_Z19callWithArrayLookupi
	.align	16, 0x90
	.type	_Z19callWithArrayLookupi,@function
_Z19callWithArrayLookupi:               # @_Z19callWithArrayLookupi
	.cfi_startproc
# BB#0:
	movslq	%edi, %rax
	imulq	$1717986919, %rax, %rcx # imm = 0x66666667
	movq	%rcx, %rdx
	shrq	$63, %rdx
	sarq	$34, %rcx
	addl	%edx, %ecx
	imull	$10, %ecx, %ecx
	subl	%ecx, %eax
	cltq
	jmpq	*function_array(,%rax,8)  # TAILCALL
.Ltmp10:
	.size	_Z19callWithArrayLookupi, .Ltmp10-_Z19callWithArrayLookupi
	.cfi_endproc

	.globl	main
	.align	16, 0x90
	.type	main,@function
main:                                   # @main
	.cfi_startproc
# BB#0:
	pushq	%rbp
.Ltmp17:
	.cfi_def_cfa_offset 16
	pushq	%r15
.Ltmp18:
	.cfi_def_cfa_offset 24
	pushq	%r14
.Ltmp19:
	.cfi_def_cfa_offset 32
	pushq	%r12
.Ltmp20:
	.cfi_def_cfa_offset 40
	pushq	%rbx
.Ltmp21:
	.cfi_def_cfa_offset 48
.Ltmp22:
	.cfi_offset %rbx, -48
.Ltmp23:
	.cfi_offset %r12, -40
.Ltmp24:
	.cfi_offset %r14, -32
.Ltmp25:
	.cfi_offset %r15, -24
.Ltmp26:
	.cfi_offset %rbp, -16
	xorl	%edi, %edi
	callq	time
	movl	%eax, %edi
	callq	srand
	xorl	%r15d, %r15d
	xorl	%r12d, %r12d
	.align	16, 0x90
.LBB11_1:                               # =>This Loop Header: Depth=1
                                        #     Child Loop BB11_2 Depth 2
	callq	rand
	movslq	%eax, %rbx
	imulq	$1717986919, %rbx, %rax # imm = 0x66666667
	movq	%rax, %rcx
	shrq	$63, %rcx
	sarq	$34, %rax
	addl	%ecx, %eax
	imull	$10, %eax, %eax
	subl	%eax, %ebx
	callq	clock
	movq	%rax, %r14
	movslq	%ebx, %rax
	imulq	$1717986919, %rax, %rcx # imm = 0x66666667
	sarq	$34, %rcx
	movl	%ecx, %edx
	shrl	$31, %edx
	addl	%ecx, %edx
	imull	$10, %edx, %ecx
	subl	%ecx, %eax
	movslq	%eax, %rbx
	movl	$1000, %ebp             # imm = 0x3E8
	.align	16, 0x90
.LBB11_2:                               #   Parent Loop BB11_1 Depth=1
                                        # =>  This Inner Loop Header: Depth=2
	callq	*function_array(,%rbx,8)
	decl	%ebp
	jne	.LBB11_2
# BB#3:                                 #   in Loop: Header=BB11_1 Depth=1
	callq	clock
	movq	%rax, %rcx
	subq	%r14, %rcx
	testl	%r12d, %r12d
	movl	$0, %eax
	cmovgq	%rcx, %rax
	addq	%rax, %r15
	movl	$.L.str, %edi
	xorl	%eax, %eax
	movq	%rcx, %rsi
	callq	printf
	incl	%r12d
	cmpl	$51, %r12d
	jne	.LBB11_1
# BB#4:
	movl	$.Lstr, %edi
	callq	puts
	movabsq	$-6640827866535438581, %rcx # imm = 0xA3D70A3D70A3D70B
	movq	%r15, %rax
	imulq	%rcx
	addq	%r15, %rdx
	movq	%rdx, %rax
	shrq	$63, %rax
	sarq	$5, %rdx
	leaq	(%rdx,%rax), %rsi
	movl	$.L.str, %edi
	xorl	%eax, %eax
	callq	printf
	xorl	%eax, %eax
	popq	%rbx
	popq	%r12
	popq	%r14
	popq	%r15
	popq	%rbp
	ret
.Ltmp27:
	.size	main, .Ltmp27-main
	.cfi_endproc

	.section	.text.startup,"ax",@progbits
	.align	16, 0x90
	.type	_GLOBAL__I_a,@function
_GLOBAL__I_a:                           # @_GLOBAL__I_a
	.cfi_startproc
# BB#0:
	pushq	%rax
.Ltmp29:
	.cfi_def_cfa_offset 16
	movl	$_ZStL8__ioinit, %edi
	callq	_ZNSt8ios_base4InitC1Ev
	movl	$_ZNSt8ios_base4InitD1Ev, %edi
	movl	$_ZStL8__ioinit, %esi
	movl	$__dso_handle, %edx
	popq	%rax
	jmp	__cxa_atexit            # TAILCALL
.Ltmp30:
	.size	_GLOBAL__I_a, .Ltmp30-_GLOBAL__I_a
	.cfi_endproc

	.type	_ZStL8__ioinit,@object  # @_ZStL8__ioinit
	.local	_ZStL8__ioinit
	.comm	_ZStL8__ioinit,1,1
	.type	increment_me,@object    # @increment_me
	.bss
	.globl	increment_me
	.align	4
increment_me:
	.long	0                       # 0x0
	.size	increment_me, 4

	.type	function_array,@object  # @function_array
	.data
	.globl	function_array
	.align	16
function_array:
	.quad	_ZN6Class517doSomethingStaticEv
	.quad	_ZN6Class817doSomethingStaticEv
	.quad	_ZN6Class717doSomethingStaticEv
	.quad	_ZN6Class317doSomethingStaticEv
	.quad	_ZN6Class217doSomethingStaticEv
	.quad	_ZN6Class617doSomethingStaticEv
	.quad	_ZN6Class117doSomethingStaticEv
	.quad	_ZN7Class1017doSomethingStaticEv
	.quad	_ZN6Class917doSomethingStaticEv
	.quad	_ZN6Class417doSomethingStaticEv
	.size	function_array, 80

	.type	.L.str,@object          # @.str
	.section	.rodata.str1.1,"aMS",@progbits,1
.L.str:
	.asciz	"%ld\n"
	.size	.L.str, 5

	.section	.init_array,"aw",@init_array
	.align	8
	.quad	_GLOBAL__I_a
	.type	.Lstr,@object           # @str
	.section	.rodata.str1.1,"aMS",@progbits,1
.Lstr:
	.asciz	"avg clicks"
	.size	.Lstr, 11


	.ident	"Ubuntu clang version 3.4-1ubuntu3 (tags/RELEASE_34/final) (based on LLVM 3.4)"
	.section	".note.GNU-stack","",@progbits
