	.file	"sasha-static-array-lookup-10-classes-test.cpp"
	.section	.text._ZNK6Class118doSomethingVirtualEv,"axG",@progbits,_ZNK6Class118doSomethingVirtualEv,comdat
	.align 2
	.p2align 4,,15
	.weak	_ZNK6Class118doSomethingVirtualEv
	.type	_ZNK6Class118doSomethingVirtualEv, @function
_ZNK6Class118doSomethingVirtualEv:
.LFB1266:
	.cfi_startproc
	movl	increment_me(%rip), %eax
	addl	$1, %eax
	movl	%eax, increment_me(%rip)
	ret
	.cfi_endproc
.LFE1266:
	.size	_ZNK6Class118doSomethingVirtualEv, .-_ZNK6Class118doSomethingVirtualEv
	.section	.text._ZNK6Class218doSomethingVirtualEv,"axG",@progbits,_ZNK6Class218doSomethingVirtualEv,comdat
	.align 2
	.p2align 4,,15
	.weak	_ZNK6Class218doSomethingVirtualEv
	.type	_ZNK6Class218doSomethingVirtualEv, @function
_ZNK6Class218doSomethingVirtualEv:
.LFB1273:
	.cfi_startproc
	movl	increment_me(%rip), %eax
	addl	$2, %eax
	movl	%eax, increment_me(%rip)
	ret
	.cfi_endproc
.LFE1273:
	.size	_ZNK6Class218doSomethingVirtualEv, .-_ZNK6Class218doSomethingVirtualEv
	.section	.text._ZNK6Class318doSomethingVirtualEv,"axG",@progbits,_ZNK6Class318doSomethingVirtualEv,comdat
	.align 2
	.p2align 4,,15
	.weak	_ZNK6Class318doSomethingVirtualEv
	.type	_ZNK6Class318doSomethingVirtualEv, @function
_ZNK6Class318doSomethingVirtualEv:
.LFB1277:
	.cfi_startproc
	movl	increment_me(%rip), %eax
	addl	$3, %eax
	movl	%eax, increment_me(%rip)
	ret
	.cfi_endproc
.LFE1277:
	.size	_ZNK6Class318doSomethingVirtualEv, .-_ZNK6Class318doSomethingVirtualEv
	.section	.text._ZNK6Class418doSomethingVirtualEv,"axG",@progbits,_ZNK6Class418doSomethingVirtualEv,comdat
	.align 2
	.p2align 4,,15
	.weak	_ZNK6Class418doSomethingVirtualEv
	.type	_ZNK6Class418doSomethingVirtualEv, @function
_ZNK6Class418doSomethingVirtualEv:
.LFB1281:
	.cfi_startproc
	movl	increment_me(%rip), %eax
	addl	$4, %eax
	movl	%eax, increment_me(%rip)
	ret
	.cfi_endproc
.LFE1281:
	.size	_ZNK6Class418doSomethingVirtualEv, .-_ZNK6Class418doSomethingVirtualEv
	.section	.text._ZNK6Class518doSomethingVirtualEv,"axG",@progbits,_ZNK6Class518doSomethingVirtualEv,comdat
	.align 2
	.p2align 4,,15
	.weak	_ZNK6Class518doSomethingVirtualEv
	.type	_ZNK6Class518doSomethingVirtualEv, @function
_ZNK6Class518doSomethingVirtualEv:
.LFB1285:
	.cfi_startproc
	movl	increment_me(%rip), %eax
	addl	$5, %eax
	movl	%eax, increment_me(%rip)
	ret
	.cfi_endproc
.LFE1285:
	.size	_ZNK6Class518doSomethingVirtualEv, .-_ZNK6Class518doSomethingVirtualEv
	.section	.text._ZNK6Class618doSomethingVirtualEv,"axG",@progbits,_ZNK6Class618doSomethingVirtualEv,comdat
	.align 2
	.p2align 4,,15
	.weak	_ZNK6Class618doSomethingVirtualEv
	.type	_ZNK6Class618doSomethingVirtualEv, @function
_ZNK6Class618doSomethingVirtualEv:
.LFB1289:
	.cfi_startproc
	movl	increment_me(%rip), %eax
	addl	$6, %eax
	movl	%eax, increment_me(%rip)
	ret
	.cfi_endproc
.LFE1289:
	.size	_ZNK6Class618doSomethingVirtualEv, .-_ZNK6Class618doSomethingVirtualEv
	.section	.text._ZNK6Class718doSomethingVirtualEv,"axG",@progbits,_ZNK6Class718doSomethingVirtualEv,comdat
	.align 2
	.p2align 4,,15
	.weak	_ZNK6Class718doSomethingVirtualEv
	.type	_ZNK6Class718doSomethingVirtualEv, @function
_ZNK6Class718doSomethingVirtualEv:
.LFB1293:
	.cfi_startproc
	movl	increment_me(%rip), %eax
	addl	$7, %eax
	movl	%eax, increment_me(%rip)
	ret
	.cfi_endproc
.LFE1293:
	.size	_ZNK6Class718doSomethingVirtualEv, .-_ZNK6Class718doSomethingVirtualEv
	.section	.text._ZNK6Class818doSomethingVirtualEv,"axG",@progbits,_ZNK6Class818doSomethingVirtualEv,comdat
	.align 2
	.p2align 4,,15
	.weak	_ZNK6Class818doSomethingVirtualEv
	.type	_ZNK6Class818doSomethingVirtualEv, @function
_ZNK6Class818doSomethingVirtualEv:
.LFB1297:
	.cfi_startproc
	movl	increment_me(%rip), %eax
	addl	$8, %eax
	movl	%eax, increment_me(%rip)
	ret
	.cfi_endproc
.LFE1297:
	.size	_ZNK6Class818doSomethingVirtualEv, .-_ZNK6Class818doSomethingVirtualEv
	.section	.text._ZNK6Class918doSomethingVirtualEv,"axG",@progbits,_ZNK6Class918doSomethingVirtualEv,comdat
	.align 2
	.p2align 4,,15
	.weak	_ZNK6Class918doSomethingVirtualEv
	.type	_ZNK6Class918doSomethingVirtualEv, @function
_ZNK6Class918doSomethingVirtualEv:
.LFB1301:
	.cfi_startproc
	movl	increment_me(%rip), %eax
	addl	$9, %eax
	movl	%eax, increment_me(%rip)
	ret
	.cfi_endproc
.LFE1301:
	.size	_ZNK6Class918doSomethingVirtualEv, .-_ZNK6Class918doSomethingVirtualEv
	.section	.text._ZNK7Class1018doSomethingVirtualEv,"axG",@progbits,_ZNK7Class1018doSomethingVirtualEv,comdat
	.align 2
	.p2align 4,,15
	.weak	_ZNK7Class1018doSomethingVirtualEv
	.type	_ZNK7Class1018doSomethingVirtualEv, @function
_ZNK7Class1018doSomethingVirtualEv:
.LFB1305:
	.cfi_startproc
	movl	increment_me(%rip), %eax
	addl	$10, %eax
	movl	%eax, increment_me(%rip)
	ret
	.cfi_endproc
.LFE1305:
	.size	_ZNK7Class1018doSomethingVirtualEv, .-_ZNK7Class1018doSomethingVirtualEv
	.text
	.align 2
	.p2align 4,,15
	.globl	_ZN8ClassApi28doSomethingStaticArrayLookupEi
	.type	_ZN8ClassApi28doSomethingStaticArrayLookupEi, @function
_ZN8ClassApi28doSomethingStaticArrayLookupEi:
.LFB1309:
	.cfi_startproc
	movslq	%edi, %rdi
	movq	class_array(,%rdi,8), %rdi
	movq	(%rdi), %rax
	movq	(%rax), %rax
	jmp	*%rax
	.cfi_endproc
.LFE1309:
	.size	_ZN8ClassApi28doSomethingStaticArrayLookupEi, .-_ZN8ClassApi28doSomethingStaticArrayLookupEi
	.section	.rodata.str1.1,"aMS",@progbits,1
.LC0:
	.string	"%ld\n"
.LC1:
	.string	"avg clicks\n"
	.section	.text.startup,"ax",@progbits
	.p2align 4,,15
	.globl	main
	.type	main, @function
main:
.LFB1310:
	.cfi_startproc
	pushq	%r15
	.cfi_def_cfa_offset 16
	.cfi_offset 15, -16
	xorl	%edi, %edi
	pushq	%r14
	.cfi_def_cfa_offset 24
	.cfi_offset 14, -24
	movl	$1717986919, %r14d
	pushq	%r13
	.cfi_def_cfa_offset 32
	.cfi_offset 13, -32
	pushq	%r12
	.cfi_def_cfa_offset 40
	.cfi_offset 12, -40
	xorl	%r12d, %r12d
	pushq	%rbp
	.cfi_def_cfa_offset 48
	.cfi_offset 6, -48
	movl	$1, %ebp
	pushq	%rbx
	.cfi_def_cfa_offset 56
	.cfi_offset 3, -56
	subq	$8, %rsp
	.cfi_def_cfa_offset 64
	call	time
	movl	%eax, %edi
	call	srand
	.p2align 4,,10
	.p2align 3
.L13:
	call	rand
	movl	%eax, %ecx
	movl	$10000, %ebx
	imull	%r14d
	movl	%ecx, %eax
	sarl	$31, %eax
	movl	%edx, %r15d
	sarl	$2, %r15d
	subl	%eax, %r15d
	leal	(%r15,%r15,4), %eax
	addl	%eax, %eax
	subl	%eax, %ecx
	movslq	%ecx, %r15
	call	clock
	movq	%rax, %r13
	.p2align 4,,10
	.p2align 3
.L15:
	movq	class_array(,%r15,8), %rdi
	movq	(%rdi), %rax
	call	*(%rax)
	subl	$1, %ebx
	jne	.L15
	call	clock
	subq	%r13, %rax
	cmpl	$1, %ebp
	je	.L16
	addq	%rax, %r12
	movq	%rax, %rdx
	movl	$.LC0, %esi
	xorl	%eax, %eax
	movl	$1, %edi
	call	__printf_chk
	cmpl	$11, %ebp
	je	.L22
.L17:
	addl	$1, %ebp
	jmp	.L13
.L22:
	movl	$.LC1, %esi
	movl	$1, %edi
	xorl	%eax, %eax
	call	__printf_chk
	movq	%r12, %rax
	movabsq	$7378697629483820647, %rdx
	sarq	$63, %r12
	imulq	%rdx
	movl	$.LC0, %esi
	movl	$1, %edi
	xorl	%eax, %eax
	sarq	$2, %rdx
	subq	%r12, %rdx
	call	__printf_chk
	addq	$8, %rsp
	.cfi_remember_state
	.cfi_def_cfa_offset 56
	xorl	%eax, %eax
	popq	%rbx
	.cfi_def_cfa_offset 48
	popq	%rbp
	.cfi_def_cfa_offset 40
	popq	%r12
	.cfi_def_cfa_offset 32
	popq	%r13
	.cfi_def_cfa_offset 24
	popq	%r14
	.cfi_def_cfa_offset 16
	popq	%r15
	.cfi_def_cfa_offset 8
	ret
.L16:
	.cfi_restore_state
	movq	%rax, %rdx
	movl	$.LC0, %esi
	movl	$1, %edi
	xorl	%eax, %eax
	call	__printf_chk
	jmp	.L17
	.cfi_endproc
.LFE1310:
	.size	main, .-main
	.p2align 4,,15
	.type	_GLOBAL__sub_I_increment_me, @function
_GLOBAL__sub_I_increment_me:
.LFB1458:
	.cfi_startproc
	subq	$8, %rsp
	.cfi_def_cfa_offset 16
	movl	$_ZStL8__ioinit, %edi
	call	_ZNSt8ios_base4InitC1Ev
	movl	$__dso_handle, %edx
	movl	$_ZStL8__ioinit, %esi
	movl	$_ZNSt8ios_base4InitD1Ev, %edi
	call	__cxa_atexit
	movl	$8, %edi
	call	_Znwm
	movl	$8, %edi
	movq	$_ZTV6Class1+16, (%rax)
	movq	%rax, class1_singleton(%rip)
	call	_Znwm
	movl	$8, %edi
	movq	$_ZTV6Class2+16, (%rax)
	movq	%rax, class2_singleton(%rip)
	call	_Znwm
	movl	$8, %edi
	movq	$_ZTV6Class3+16, (%rax)
	movq	%rax, class3_singleton(%rip)
	call	_Znwm
	movl	$8, %edi
	movq	$_ZTV6Class4+16, (%rax)
	movq	%rax, class4_singleton(%rip)
	call	_Znwm
	movl	$8, %edi
	movq	$_ZTV6Class5+16, (%rax)
	movq	%rax, class5_singleton(%rip)
	call	_Znwm
	movl	$8, %edi
	movq	$_ZTV6Class6+16, (%rax)
	movq	%rax, class6_singleton(%rip)
	call	_Znwm
	movl	$8, %edi
	movq	$_ZTV6Class7+16, (%rax)
	movq	%rax, class7_singleton(%rip)
	call	_Znwm
	movl	$8, %edi
	movq	$_ZTV6Class8+16, (%rax)
	movq	%rax, class8_singleton(%rip)
	call	_Znwm
	movl	$8, %edi
	movq	$_ZTV6Class9+16, (%rax)
	movq	%rax, class9_singleton(%rip)
	call	_Znwm
	movq	$_ZTV7Class10+16, (%rax)
	movq	class6_singleton(%rip), %rdx
	movq	%rax, class10_singleton(%rip)
	movq	%rax, class_array+56(%rip)
	movq	class4_singleton(%rip), %rax
	movq	%rdx, class_array(%rip)
	movq	class1_singleton(%rip), %rdx
	movq	%rax, class_array+64(%rip)
	movq	class8_singleton(%rip), %rax
	movq	%rdx, class_array+8(%rip)
	movq	class2_singleton(%rip), %rdx
	movq	%rax, class_array+72(%rip)
	movq	%rdx, class_array+16(%rip)
	movq	class7_singleton(%rip), %rdx
	movq	%rdx, class_array+24(%rip)
	movq	class3_singleton(%rip), %rdx
	movq	%rdx, class_array+32(%rip)
	movq	class9_singleton(%rip), %rdx
	movq	%rdx, class_array+40(%rip)
	movq	class5_singleton(%rip), %rdx
	movq	%rdx, class_array+48(%rip)
	addq	$8, %rsp
	.cfi_def_cfa_offset 8
	ret
	.cfi_endproc
.LFE1458:
	.size	_GLOBAL__sub_I_increment_me, .-_GLOBAL__sub_I_increment_me
	.section	.init_array,"aw"
	.align 8
	.quad	_GLOBAL__sub_I_increment_me
	.weak	_ZTI8ClassApi
	.section	.rodata._ZTI8ClassApi,"aG",@progbits,_ZTI8ClassApi,comdat
	.align 16
	.type	_ZTI8ClassApi, @object
	.size	_ZTI8ClassApi, 16
_ZTI8ClassApi:
	.quad	_ZTVN10__cxxabiv117__class_type_infoE+16
	.quad	_ZTS8ClassApi
	.weak	_ZTS8ClassApi
	.section	.rodata._ZTS8ClassApi,"aG",@progbits,_ZTS8ClassApi,comdat
	.type	_ZTS8ClassApi, @object
	.size	_ZTS8ClassApi, 10
_ZTS8ClassApi:
	.string	"8ClassApi"
	.weak	_ZTI6Class1
	.section	.rodata._ZTI6Class1,"aG",@progbits,_ZTI6Class1,comdat
	.align 16
	.type	_ZTI6Class1, @object
	.size	_ZTI6Class1, 24
_ZTI6Class1:
	.quad	_ZTVN10__cxxabiv120__si_class_type_infoE+16
	.quad	_ZTS6Class1
	.quad	_ZTI8ClassApi
	.weak	_ZTS6Class1
	.section	.rodata._ZTS6Class1,"aG",@progbits,_ZTS6Class1,comdat
	.type	_ZTS6Class1, @object
	.size	_ZTS6Class1, 8
_ZTS6Class1:
	.string	"6Class1"
	.weak	_ZTI6Class2
	.section	.rodata._ZTI6Class2,"aG",@progbits,_ZTI6Class2,comdat
	.align 16
	.type	_ZTI6Class2, @object
	.size	_ZTI6Class2, 24
_ZTI6Class2:
	.quad	_ZTVN10__cxxabiv120__si_class_type_infoE+16
	.quad	_ZTS6Class2
	.quad	_ZTI8ClassApi
	.weak	_ZTS6Class2
	.section	.rodata._ZTS6Class2,"aG",@progbits,_ZTS6Class2,comdat
	.type	_ZTS6Class2, @object
	.size	_ZTS6Class2, 8
_ZTS6Class2:
	.string	"6Class2"
	.weak	_ZTI6Class3
	.section	.rodata._ZTI6Class3,"aG",@progbits,_ZTI6Class3,comdat
	.align 16
	.type	_ZTI6Class3, @object
	.size	_ZTI6Class3, 24
_ZTI6Class3:
	.quad	_ZTVN10__cxxabiv120__si_class_type_infoE+16
	.quad	_ZTS6Class3
	.quad	_ZTI8ClassApi
	.weak	_ZTS6Class3
	.section	.rodata._ZTS6Class3,"aG",@progbits,_ZTS6Class3,comdat
	.type	_ZTS6Class3, @object
	.size	_ZTS6Class3, 8
_ZTS6Class3:
	.string	"6Class3"
	.weak	_ZTI6Class4
	.section	.rodata._ZTI6Class4,"aG",@progbits,_ZTI6Class4,comdat
	.align 16
	.type	_ZTI6Class4, @object
	.size	_ZTI6Class4, 24
_ZTI6Class4:
	.quad	_ZTVN10__cxxabiv120__si_class_type_infoE+16
	.quad	_ZTS6Class4
	.quad	_ZTI8ClassApi
	.weak	_ZTS6Class4
	.section	.rodata._ZTS6Class4,"aG",@progbits,_ZTS6Class4,comdat
	.type	_ZTS6Class4, @object
	.size	_ZTS6Class4, 8
_ZTS6Class4:
	.string	"6Class4"
	.weak	_ZTI6Class5
	.section	.rodata._ZTI6Class5,"aG",@progbits,_ZTI6Class5,comdat
	.align 16
	.type	_ZTI6Class5, @object
	.size	_ZTI6Class5, 24
_ZTI6Class5:
	.quad	_ZTVN10__cxxabiv120__si_class_type_infoE+16
	.quad	_ZTS6Class5
	.quad	_ZTI8ClassApi
	.weak	_ZTS6Class5
	.section	.rodata._ZTS6Class5,"aG",@progbits,_ZTS6Class5,comdat
	.type	_ZTS6Class5, @object
	.size	_ZTS6Class5, 8
_ZTS6Class5:
	.string	"6Class5"
	.weak	_ZTI6Class6
	.section	.rodata._ZTI6Class6,"aG",@progbits,_ZTI6Class6,comdat
	.align 16
	.type	_ZTI6Class6, @object
	.size	_ZTI6Class6, 24
_ZTI6Class6:
	.quad	_ZTVN10__cxxabiv120__si_class_type_infoE+16
	.quad	_ZTS6Class6
	.quad	_ZTI8ClassApi
	.weak	_ZTS6Class6
	.section	.rodata._ZTS6Class6,"aG",@progbits,_ZTS6Class6,comdat
	.type	_ZTS6Class6, @object
	.size	_ZTS6Class6, 8
_ZTS6Class6:
	.string	"6Class6"
	.weak	_ZTI6Class7
	.section	.rodata._ZTI6Class7,"aG",@progbits,_ZTI6Class7,comdat
	.align 16
	.type	_ZTI6Class7, @object
	.size	_ZTI6Class7, 24
_ZTI6Class7:
	.quad	_ZTVN10__cxxabiv120__si_class_type_infoE+16
	.quad	_ZTS6Class7
	.quad	_ZTI8ClassApi
	.weak	_ZTS6Class7
	.section	.rodata._ZTS6Class7,"aG",@progbits,_ZTS6Class7,comdat
	.type	_ZTS6Class7, @object
	.size	_ZTS6Class7, 8
_ZTS6Class7:
	.string	"6Class7"
	.weak	_ZTI6Class8
	.section	.rodata._ZTI6Class8,"aG",@progbits,_ZTI6Class8,comdat
	.align 16
	.type	_ZTI6Class8, @object
	.size	_ZTI6Class8, 24
_ZTI6Class8:
	.quad	_ZTVN10__cxxabiv120__si_class_type_infoE+16
	.quad	_ZTS6Class8
	.quad	_ZTI8ClassApi
	.weak	_ZTS6Class8
	.section	.rodata._ZTS6Class8,"aG",@progbits,_ZTS6Class8,comdat
	.type	_ZTS6Class8, @object
	.size	_ZTS6Class8, 8
_ZTS6Class8:
	.string	"6Class8"
	.weak	_ZTI6Class9
	.section	.rodata._ZTI6Class9,"aG",@progbits,_ZTI6Class9,comdat
	.align 16
	.type	_ZTI6Class9, @object
	.size	_ZTI6Class9, 24
_ZTI6Class9:
	.quad	_ZTVN10__cxxabiv120__si_class_type_infoE+16
	.quad	_ZTS6Class9
	.quad	_ZTI8ClassApi
	.weak	_ZTS6Class9
	.section	.rodata._ZTS6Class9,"aG",@progbits,_ZTS6Class9,comdat
	.type	_ZTS6Class9, @object
	.size	_ZTS6Class9, 8
_ZTS6Class9:
	.string	"6Class9"
	.weak	_ZTI7Class10
	.section	.rodata._ZTI7Class10,"aG",@progbits,_ZTI7Class10,comdat
	.align 16
	.type	_ZTI7Class10, @object
	.size	_ZTI7Class10, 24
_ZTI7Class10:
	.quad	_ZTVN10__cxxabiv120__si_class_type_infoE+16
	.quad	_ZTS7Class10
	.quad	_ZTI8ClassApi
	.weak	_ZTS7Class10
	.section	.rodata._ZTS7Class10,"aG",@progbits,_ZTS7Class10,comdat
	.type	_ZTS7Class10, @object
	.size	_ZTS7Class10, 9
_ZTS7Class10:
	.string	"7Class10"
	.weak	_ZTV8ClassApi
	.section	.rodata._ZTV8ClassApi,"aG",@progbits,_ZTV8ClassApi,comdat
	.align 16
	.type	_ZTV8ClassApi, @object
	.size	_ZTV8ClassApi, 24
_ZTV8ClassApi:
	.quad	0
	.quad	_ZTI8ClassApi
	.quad	__cxa_pure_virtual
	.weak	_ZTV6Class1
	.section	.rodata._ZTV6Class1,"aG",@progbits,_ZTV6Class1,comdat
	.align 16
	.type	_ZTV6Class1, @object
	.size	_ZTV6Class1, 24
_ZTV6Class1:
	.quad	0
	.quad	_ZTI6Class1
	.quad	_ZNK6Class118doSomethingVirtualEv
	.weak	_ZTV6Class2
	.section	.rodata._ZTV6Class2,"aG",@progbits,_ZTV6Class2,comdat
	.align 16
	.type	_ZTV6Class2, @object
	.size	_ZTV6Class2, 24
_ZTV6Class2:
	.quad	0
	.quad	_ZTI6Class2
	.quad	_ZNK6Class218doSomethingVirtualEv
	.weak	_ZTV6Class3
	.section	.rodata._ZTV6Class3,"aG",@progbits,_ZTV6Class3,comdat
	.align 16
	.type	_ZTV6Class3, @object
	.size	_ZTV6Class3, 24
_ZTV6Class3:
	.quad	0
	.quad	_ZTI6Class3
	.quad	_ZNK6Class318doSomethingVirtualEv
	.weak	_ZTV6Class4
	.section	.rodata._ZTV6Class4,"aG",@progbits,_ZTV6Class4,comdat
	.align 16
	.type	_ZTV6Class4, @object
	.size	_ZTV6Class4, 24
_ZTV6Class4:
	.quad	0
	.quad	_ZTI6Class4
	.quad	_ZNK6Class418doSomethingVirtualEv
	.weak	_ZTV6Class5
	.section	.rodata._ZTV6Class5,"aG",@progbits,_ZTV6Class5,comdat
	.align 16
	.type	_ZTV6Class5, @object
	.size	_ZTV6Class5, 24
_ZTV6Class5:
	.quad	0
	.quad	_ZTI6Class5
	.quad	_ZNK6Class518doSomethingVirtualEv
	.weak	_ZTV6Class6
	.section	.rodata._ZTV6Class6,"aG",@progbits,_ZTV6Class6,comdat
	.align 16
	.type	_ZTV6Class6, @object
	.size	_ZTV6Class6, 24
_ZTV6Class6:
	.quad	0
	.quad	_ZTI6Class6
	.quad	_ZNK6Class618doSomethingVirtualEv
	.weak	_ZTV6Class7
	.section	.rodata._ZTV6Class7,"aG",@progbits,_ZTV6Class7,comdat
	.align 16
	.type	_ZTV6Class7, @object
	.size	_ZTV6Class7, 24
_ZTV6Class7:
	.quad	0
	.quad	_ZTI6Class7
	.quad	_ZNK6Class718doSomethingVirtualEv
	.weak	_ZTV6Class8
	.section	.rodata._ZTV6Class8,"aG",@progbits,_ZTV6Class8,comdat
	.align 16
	.type	_ZTV6Class8, @object
	.size	_ZTV6Class8, 24
_ZTV6Class8:
	.quad	0
	.quad	_ZTI6Class8
	.quad	_ZNK6Class818doSomethingVirtualEv
	.weak	_ZTV6Class9
	.section	.rodata._ZTV6Class9,"aG",@progbits,_ZTV6Class9,comdat
	.align 16
	.type	_ZTV6Class9, @object
	.size	_ZTV6Class9, 24
_ZTV6Class9:
	.quad	0
	.quad	_ZTI6Class9
	.quad	_ZNK6Class918doSomethingVirtualEv
	.weak	_ZTV7Class10
	.section	.rodata._ZTV7Class10,"aG",@progbits,_ZTV7Class10,comdat
	.align 16
	.type	_ZTV7Class10, @object
	.size	_ZTV7Class10, 24
_ZTV7Class10:
	.quad	0
	.quad	_ZTI7Class10
	.quad	_ZNK7Class1018doSomethingVirtualEv
	.globl	class_array
	.bss
	.align 32
	.type	class_array, @object
	.size	class_array, 80
class_array:
	.zero	80
	.globl	class10_singleton
	.align 8
	.type	class10_singleton, @object
	.size	class10_singleton, 8
class10_singleton:
	.zero	8
	.globl	class9_singleton
	.align 8
	.type	class9_singleton, @object
	.size	class9_singleton, 8
class9_singleton:
	.zero	8
	.globl	class8_singleton
	.align 8
	.type	class8_singleton, @object
	.size	class8_singleton, 8
class8_singleton:
	.zero	8
	.globl	class7_singleton
	.align 8
	.type	class7_singleton, @object
	.size	class7_singleton, 8
class7_singleton:
	.zero	8
	.globl	class6_singleton
	.align 8
	.type	class6_singleton, @object
	.size	class6_singleton, 8
class6_singleton:
	.zero	8
	.globl	class5_singleton
	.align 8
	.type	class5_singleton, @object
	.size	class5_singleton, 8
class5_singleton:
	.zero	8
	.globl	class4_singleton
	.align 8
	.type	class4_singleton, @object
	.size	class4_singleton, 8
class4_singleton:
	.zero	8
	.globl	class3_singleton
	.align 8
	.type	class3_singleton, @object
	.size	class3_singleton, 8
class3_singleton:
	.zero	8
	.globl	class2_singleton
	.align 8
	.type	class2_singleton, @object
	.size	class2_singleton, 8
class2_singleton:
	.zero	8
	.globl	class1_singleton
	.align 8
	.type	class1_singleton, @object
	.size	class1_singleton, 8
class1_singleton:
	.zero	8
	.globl	increment_me
	.align 4
	.type	increment_me, @object
	.size	increment_me, 4
increment_me:
	.zero	4
	.local	_ZStL8__ioinit
	.comm	_ZStL8__ioinit,1,1
	.hidden	__dso_handle
	.ident	"GCC: (Ubuntu 4.8.4-2ubuntu1~14.04.3) 4.8.4"
	.section	.note.GNU-stack,"",@progbits
