	.file	"table-10-classes-test.cpp"
	.section	.text._ZNK15CSSPropertyAPI15parseEv,"axG",@progbits,_ZNK15CSSPropertyAPI15parseEv,comdat
	.align 2
	.p2align 4,,15
	.weak	_ZNK15CSSPropertyAPI15parseEv
	.type	_ZNK15CSSPropertyAPI15parseEv, @function
_ZNK15CSSPropertyAPI15parseEv:
.LFB1267:
	.cfi_startproc
	movl	increment_me(%rip), %eax
	addl	$1, %eax
	movl	%eax, increment_me(%rip)
	ret
	.cfi_endproc
.LFE1267:
	.size	_ZNK15CSSPropertyAPI15parseEv, .-_ZNK15CSSPropertyAPI15parseEv
	.section	.text._ZNK15CSSPropertyAPI25parseEv,"axG",@progbits,_ZNK15CSSPropertyAPI25parseEv,comdat
	.align 2
	.p2align 4,,15
	.weak	_ZNK15CSSPropertyAPI25parseEv
	.type	_ZNK15CSSPropertyAPI25parseEv, @function
_ZNK15CSSPropertyAPI25parseEv:
.LFB1274:
	.cfi_startproc
	movl	increment_me(%rip), %eax
	addl	$2, %eax
	movl	%eax, increment_me(%rip)
	ret
	.cfi_endproc
.LFE1274:
	.size	_ZNK15CSSPropertyAPI25parseEv, .-_ZNK15CSSPropertyAPI25parseEv
	.section	.text._ZNK15CSSPropertyAPI35parseEv,"axG",@progbits,_ZNK15CSSPropertyAPI35parseEv,comdat
	.align 2
	.p2align 4,,15
	.weak	_ZNK15CSSPropertyAPI35parseEv
	.type	_ZNK15CSSPropertyAPI35parseEv, @function
_ZNK15CSSPropertyAPI35parseEv:
.LFB1278:
	.cfi_startproc
	movl	increment_me(%rip), %eax
	addl	$3, %eax
	movl	%eax, increment_me(%rip)
	ret
	.cfi_endproc
.LFE1278:
	.size	_ZNK15CSSPropertyAPI35parseEv, .-_ZNK15CSSPropertyAPI35parseEv
	.section	.text._ZNK15CSSPropertyAPI45parseEv,"axG",@progbits,_ZNK15CSSPropertyAPI45parseEv,comdat
	.align 2
	.p2align 4,,15
	.weak	_ZNK15CSSPropertyAPI45parseEv
	.type	_ZNK15CSSPropertyAPI45parseEv, @function
_ZNK15CSSPropertyAPI45parseEv:
.LFB1282:
	.cfi_startproc
	movl	increment_me(%rip), %eax
	addl	$4, %eax
	movl	%eax, increment_me(%rip)
	ret
	.cfi_endproc
.LFE1282:
	.size	_ZNK15CSSPropertyAPI45parseEv, .-_ZNK15CSSPropertyAPI45parseEv
	.section	.text._ZNK15CSSPropertyAPI55parseEv,"axG",@progbits,_ZNK15CSSPropertyAPI55parseEv,comdat
	.align 2
	.p2align 4,,15
	.weak	_ZNK15CSSPropertyAPI55parseEv
	.type	_ZNK15CSSPropertyAPI55parseEv, @function
_ZNK15CSSPropertyAPI55parseEv:
.LFB1286:
	.cfi_startproc
	movl	increment_me(%rip), %eax
	addl	$5, %eax
	movl	%eax, increment_me(%rip)
	ret
	.cfi_endproc
.LFE1286:
	.size	_ZNK15CSSPropertyAPI55parseEv, .-_ZNK15CSSPropertyAPI55parseEv
	.section	.text._ZNK15CSSPropertyAPI65parseEv,"axG",@progbits,_ZNK15CSSPropertyAPI65parseEv,comdat
	.align 2
	.p2align 4,,15
	.weak	_ZNK15CSSPropertyAPI65parseEv
	.type	_ZNK15CSSPropertyAPI65parseEv, @function
_ZNK15CSSPropertyAPI65parseEv:
.LFB1290:
	.cfi_startproc
	movl	increment_me(%rip), %eax
	addl	$6, %eax
	movl	%eax, increment_me(%rip)
	ret
	.cfi_endproc
.LFE1290:
	.size	_ZNK15CSSPropertyAPI65parseEv, .-_ZNK15CSSPropertyAPI65parseEv
	.section	.text._ZNK15CSSPropertyAPI75parseEv,"axG",@progbits,_ZNK15CSSPropertyAPI75parseEv,comdat
	.align 2
	.p2align 4,,15
	.weak	_ZNK15CSSPropertyAPI75parseEv
	.type	_ZNK15CSSPropertyAPI75parseEv, @function
_ZNK15CSSPropertyAPI75parseEv:
.LFB1294:
	.cfi_startproc
	movl	increment_me(%rip), %eax
	addl	$7, %eax
	movl	%eax, increment_me(%rip)
	ret
	.cfi_endproc
.LFE1294:
	.size	_ZNK15CSSPropertyAPI75parseEv, .-_ZNK15CSSPropertyAPI75parseEv
	.section	.text._ZNK15CSSPropertyAPI85parseEv,"axG",@progbits,_ZNK15CSSPropertyAPI85parseEv,comdat
	.align 2
	.p2align 4,,15
	.weak	_ZNK15CSSPropertyAPI85parseEv
	.type	_ZNK15CSSPropertyAPI85parseEv, @function
_ZNK15CSSPropertyAPI85parseEv:
.LFB1298:
	.cfi_startproc
	movl	increment_me(%rip), %eax
	addl	$8, %eax
	movl	%eax, increment_me(%rip)
	ret
	.cfi_endproc
.LFE1298:
	.size	_ZNK15CSSPropertyAPI85parseEv, .-_ZNK15CSSPropertyAPI85parseEv
	.section	.text._ZNK15CSSPropertyAPI95parseEv,"axG",@progbits,_ZNK15CSSPropertyAPI95parseEv,comdat
	.align 2
	.p2align 4,,15
	.weak	_ZNK15CSSPropertyAPI95parseEv
	.type	_ZNK15CSSPropertyAPI95parseEv, @function
_ZNK15CSSPropertyAPI95parseEv:
.LFB1302:
	.cfi_startproc
	movl	increment_me(%rip), %eax
	addl	$9, %eax
	movl	%eax, increment_me(%rip)
	ret
	.cfi_endproc
.LFE1302:
	.size	_ZNK15CSSPropertyAPI95parseEv, .-_ZNK15CSSPropertyAPI95parseEv
	.section	.text._ZNK16CSSPropertyAPI105parseEv,"axG",@progbits,_ZNK16CSSPropertyAPI105parseEv,comdat
	.align 2
	.p2align 4,,15
	.weak	_ZNK16CSSPropertyAPI105parseEv
	.type	_ZNK16CSSPropertyAPI105parseEv, @function
_ZNK16CSSPropertyAPI105parseEv:
.LFB1306:
	.cfi_startproc
	movl	increment_me(%rip), %eax
	addl	$10, %eax
	movl	%eax, increment_me(%rip)
	ret
	.cfi_endproc
.LFE1306:
	.size	_ZNK16CSSPropertyAPI105parseEv, .-_ZNK16CSSPropertyAPI105parseEv
	.text
	.p2align 4,,15
	.globl	_Z14GetPropertyAPIi
	.type	_Z14GetPropertyAPIi, @function
_Z14GetPropertyAPIi:
.LFB1310:
	.cfi_startproc
	movslq	%edi, %rdi
	movq	_ZL13property_apis(,%rdi,8), %rax
	ret
	.cfi_endproc
.LFE1310:
	.size	_Z14GetPropertyAPIi, .-_Z14GetPropertyAPIi
	.p2align 4,,15
	.globl	_Z5parsei
	.type	_Z5parsei, @function
_Z5parsei:
.LFB1311:
	.cfi_startproc
	movslq	%edi, %rdi
	subq	$8, %rsp
	.cfi_def_cfa_offset 16
	movq	_ZL13property_apis(,%rdi,8), %rdi
	movq	(%rdi), %rax
	call	*(%rax)
	addq	$8, %rsp
	.cfi_def_cfa_offset 8
	ret
	.cfi_endproc
.LFE1311:
	.size	_Z5parsei, .-_Z5parsei
	.section	.rodata.str1.1,"aMS",@progbits,1
.LC0:
	.string	"enter a number"
	.section	.rodata.str1.8,"aMS",@progbits,1
	.align 8
.LC2:
	.string	"Took %ld clicks (%f seconds).\n"
	.section	.text.startup,"ax",@progbits
	.p2align 4,,15
	.globl	main
	.type	main, @function
main:
.LFB1312:
	.cfi_startproc
	pushq	%r13
	.cfi_def_cfa_offset 16
	.cfi_offset 13, -16
	movl	$.LC0, %esi
	movl	$_ZSt4cout, %edi
	pushq	%r12
	.cfi_def_cfa_offset 24
	.cfi_offset 12, -24
	xorl	%r12d, %r12d
	pushq	%rbp
	.cfi_def_cfa_offset 32
	.cfi_offset 6, -32
	pushq	%rbx
	.cfi_def_cfa_offset 40
	.cfi_offset 3, -40
	subq	$24, %rsp
	.cfi_def_cfa_offset 64
	call	_ZStlsISt11char_traitsIcEERSt13basic_ostreamIcT_ES5_PKc
	leaq	12(%rsp), %rsi
	movl	$_ZSt3cin, %edi
	call	_ZNSirsERi
	.p2align 4,,10
	.p2align 3
.L18:
	movl	12(%rsp), %ebx
	call	clock
	movq	%rax, %r13
	addl	%r12d, %ebx
	movslq	%ebx, %rbx
	movq	_ZL13property_apis(,%rbx,8), %rbp
	movl	$1000000000, %ebx
	.p2align 4,,10
	.p2align 3
.L16:
	movq	0(%rbp), %rdx
	movq	%rbp, %rdi
	call	*(%rdx)
	subl	$1, %ebx
	jne	.L16
	call	clock
	movq	%rax, %rdx
	movl	$.LC2, %esi
	movl	$1, %edi
	subq	%r13, %rdx
	movl	$1, %eax
	addl	$1, %r12d
	cvtsi2ssq	%rdx, %xmm0
	divss	.LC1(%rip), %xmm0
	unpcklps	%xmm0, %xmm0
	cvtps2pd	%xmm0, %xmm0
	call	__printf_chk
	cmpl	$10, %r12d
	jne	.L18
	addq	$24, %rsp
	.cfi_def_cfa_offset 40
	xorl	%eax, %eax
	popq	%rbx
	.cfi_def_cfa_offset 32
	popq	%rbp
	.cfi_def_cfa_offset 24
	popq	%r12
	.cfi_def_cfa_offset 16
	popq	%r13
	.cfi_def_cfa_offset 8
	ret
	.cfi_endproc
.LFE1312:
	.size	main, .-main
	.p2align 4,,15
	.type	_GLOBAL__sub_I_increment_me, @function
_GLOBAL__sub_I_increment_me:
.LFB1463:
	.cfi_startproc
	subq	$8, %rsp
	.cfi_def_cfa_offset 16
	movl	$_ZStL8__ioinit, %edi
	call	_ZNSt8ios_base4InitC1Ev
	movl	$__dso_handle, %edx
	movl	$_ZStL8__ioinit, %esi
	movl	$_ZNSt8ios_base4InitD1Ev, %edi
	addq	$8, %rsp
	.cfi_def_cfa_offset 8
	jmp	__cxa_atexit
	.cfi_endproc
.LFE1463:
	.size	_GLOBAL__sub_I_increment_me, .-_GLOBAL__sub_I_increment_me
	.section	.init_array,"aw"
	.align 8
	.quad	_GLOBAL__sub_I_increment_me
	.section	.rodata
	.align 32
	.type	_ZL13property_apis, @object
	.size	_ZL13property_apis, 80
_ZL13property_apis:
	.quad	_ZL6api_10
	.quad	_ZL5api_9
	.quad	_ZL5api_8
	.quad	_ZL5api_7
	.quad	_ZL5api_6
	.quad	_ZL5api_5
	.quad	_ZL5api_4
	.quad	_ZL5api_3
	.quad	_ZL5api_2
	.quad	_ZL5api_1
	.align 8
	.type	_ZL6api_10, @object
	.size	_ZL6api_10, 8
_ZL6api_10:
	.quad	_ZTV16CSSPropertyAPI10+16
	.align 8
	.type	_ZL5api_9, @object
	.size	_ZL5api_9, 8
_ZL5api_9:
	.quad	_ZTV15CSSPropertyAPI9+16
	.align 8
	.type	_ZL5api_8, @object
	.size	_ZL5api_8, 8
_ZL5api_8:
	.quad	_ZTV15CSSPropertyAPI8+16
	.align 8
	.type	_ZL5api_7, @object
	.size	_ZL5api_7, 8
_ZL5api_7:
	.quad	_ZTV15CSSPropertyAPI7+16
	.align 8
	.type	_ZL5api_6, @object
	.size	_ZL5api_6, 8
_ZL5api_6:
	.quad	_ZTV15CSSPropertyAPI6+16
	.align 8
	.type	_ZL5api_5, @object
	.size	_ZL5api_5, 8
_ZL5api_5:
	.quad	_ZTV15CSSPropertyAPI5+16
	.align 8
	.type	_ZL5api_4, @object
	.size	_ZL5api_4, 8
_ZL5api_4:
	.quad	_ZTV15CSSPropertyAPI4+16
	.align 8
	.type	_ZL5api_3, @object
	.size	_ZL5api_3, 8
_ZL5api_3:
	.quad	_ZTV15CSSPropertyAPI3+16
	.align 8
	.type	_ZL5api_2, @object
	.size	_ZL5api_2, 8
_ZL5api_2:
	.quad	_ZTV15CSSPropertyAPI2+16
	.align 8
	.type	_ZL5api_1, @object
	.size	_ZL5api_1, 8
_ZL5api_1:
	.quad	_ZTV15CSSPropertyAPI1+16
	.weak	_ZTI14CSSPropertyAPI
	.section	.rodata._ZTI14CSSPropertyAPI,"aG",@progbits,_ZTI14CSSPropertyAPI,comdat
	.align 16
	.type	_ZTI14CSSPropertyAPI, @object
	.size	_ZTI14CSSPropertyAPI, 16
_ZTI14CSSPropertyAPI:
	.quad	_ZTVN10__cxxabiv117__class_type_infoE+16
	.quad	_ZTS14CSSPropertyAPI
	.weak	_ZTS14CSSPropertyAPI
	.section	.rodata._ZTS14CSSPropertyAPI,"aG",@progbits,_ZTS14CSSPropertyAPI,comdat
	.align 16
	.type	_ZTS14CSSPropertyAPI, @object
	.size	_ZTS14CSSPropertyAPI, 17
_ZTS14CSSPropertyAPI:
	.string	"14CSSPropertyAPI"
	.weak	_ZTI15CSSPropertyAPI1
	.section	.rodata._ZTI15CSSPropertyAPI1,"aG",@progbits,_ZTI15CSSPropertyAPI1,comdat
	.align 16
	.type	_ZTI15CSSPropertyAPI1, @object
	.size	_ZTI15CSSPropertyAPI1, 24
_ZTI15CSSPropertyAPI1:
	.quad	_ZTVN10__cxxabiv120__si_class_type_infoE+16
	.quad	_ZTS15CSSPropertyAPI1
	.quad	_ZTI14CSSPropertyAPI
	.weak	_ZTS15CSSPropertyAPI1
	.section	.rodata._ZTS15CSSPropertyAPI1,"aG",@progbits,_ZTS15CSSPropertyAPI1,comdat
	.align 16
	.type	_ZTS15CSSPropertyAPI1, @object
	.size	_ZTS15CSSPropertyAPI1, 18
_ZTS15CSSPropertyAPI1:
	.string	"15CSSPropertyAPI1"
	.weak	_ZTI15CSSPropertyAPI2
	.section	.rodata._ZTI15CSSPropertyAPI2,"aG",@progbits,_ZTI15CSSPropertyAPI2,comdat
	.align 16
	.type	_ZTI15CSSPropertyAPI2, @object
	.size	_ZTI15CSSPropertyAPI2, 24
_ZTI15CSSPropertyAPI2:
	.quad	_ZTVN10__cxxabiv120__si_class_type_infoE+16
	.quad	_ZTS15CSSPropertyAPI2
	.quad	_ZTI14CSSPropertyAPI
	.weak	_ZTS15CSSPropertyAPI2
	.section	.rodata._ZTS15CSSPropertyAPI2,"aG",@progbits,_ZTS15CSSPropertyAPI2,comdat
	.align 16
	.type	_ZTS15CSSPropertyAPI2, @object
	.size	_ZTS15CSSPropertyAPI2, 18
_ZTS15CSSPropertyAPI2:
	.string	"15CSSPropertyAPI2"
	.weak	_ZTI15CSSPropertyAPI3
	.section	.rodata._ZTI15CSSPropertyAPI3,"aG",@progbits,_ZTI15CSSPropertyAPI3,comdat
	.align 16
	.type	_ZTI15CSSPropertyAPI3, @object
	.size	_ZTI15CSSPropertyAPI3, 24
_ZTI15CSSPropertyAPI3:
	.quad	_ZTVN10__cxxabiv120__si_class_type_infoE+16
	.quad	_ZTS15CSSPropertyAPI3
	.quad	_ZTI14CSSPropertyAPI
	.weak	_ZTS15CSSPropertyAPI3
	.section	.rodata._ZTS15CSSPropertyAPI3,"aG",@progbits,_ZTS15CSSPropertyAPI3,comdat
	.align 16
	.type	_ZTS15CSSPropertyAPI3, @object
	.size	_ZTS15CSSPropertyAPI3, 18
_ZTS15CSSPropertyAPI3:
	.string	"15CSSPropertyAPI3"
	.weak	_ZTI15CSSPropertyAPI4
	.section	.rodata._ZTI15CSSPropertyAPI4,"aG",@progbits,_ZTI15CSSPropertyAPI4,comdat
	.align 16
	.type	_ZTI15CSSPropertyAPI4, @object
	.size	_ZTI15CSSPropertyAPI4, 24
_ZTI15CSSPropertyAPI4:
	.quad	_ZTVN10__cxxabiv120__si_class_type_infoE+16
	.quad	_ZTS15CSSPropertyAPI4
	.quad	_ZTI14CSSPropertyAPI
	.weak	_ZTS15CSSPropertyAPI4
	.section	.rodata._ZTS15CSSPropertyAPI4,"aG",@progbits,_ZTS15CSSPropertyAPI4,comdat
	.align 16
	.type	_ZTS15CSSPropertyAPI4, @object
	.size	_ZTS15CSSPropertyAPI4, 18
_ZTS15CSSPropertyAPI4:
	.string	"15CSSPropertyAPI4"
	.weak	_ZTI15CSSPropertyAPI5
	.section	.rodata._ZTI15CSSPropertyAPI5,"aG",@progbits,_ZTI15CSSPropertyAPI5,comdat
	.align 16
	.type	_ZTI15CSSPropertyAPI5, @object
	.size	_ZTI15CSSPropertyAPI5, 24
_ZTI15CSSPropertyAPI5:
	.quad	_ZTVN10__cxxabiv120__si_class_type_infoE+16
	.quad	_ZTS15CSSPropertyAPI5
	.quad	_ZTI14CSSPropertyAPI
	.weak	_ZTS15CSSPropertyAPI5
	.section	.rodata._ZTS15CSSPropertyAPI5,"aG",@progbits,_ZTS15CSSPropertyAPI5,comdat
	.align 16
	.type	_ZTS15CSSPropertyAPI5, @object
	.size	_ZTS15CSSPropertyAPI5, 18
_ZTS15CSSPropertyAPI5:
	.string	"15CSSPropertyAPI5"
	.weak	_ZTI15CSSPropertyAPI6
	.section	.rodata._ZTI15CSSPropertyAPI6,"aG",@progbits,_ZTI15CSSPropertyAPI6,comdat
	.align 16
	.type	_ZTI15CSSPropertyAPI6, @object
	.size	_ZTI15CSSPropertyAPI6, 24
_ZTI15CSSPropertyAPI6:
	.quad	_ZTVN10__cxxabiv120__si_class_type_infoE+16
	.quad	_ZTS15CSSPropertyAPI6
	.quad	_ZTI14CSSPropertyAPI
	.weak	_ZTS15CSSPropertyAPI6
	.section	.rodata._ZTS15CSSPropertyAPI6,"aG",@progbits,_ZTS15CSSPropertyAPI6,comdat
	.align 16
	.type	_ZTS15CSSPropertyAPI6, @object
	.size	_ZTS15CSSPropertyAPI6, 18
_ZTS15CSSPropertyAPI6:
	.string	"15CSSPropertyAPI6"
	.weak	_ZTI15CSSPropertyAPI7
	.section	.rodata._ZTI15CSSPropertyAPI7,"aG",@progbits,_ZTI15CSSPropertyAPI7,comdat
	.align 16
	.type	_ZTI15CSSPropertyAPI7, @object
	.size	_ZTI15CSSPropertyAPI7, 24
_ZTI15CSSPropertyAPI7:
	.quad	_ZTVN10__cxxabiv120__si_class_type_infoE+16
	.quad	_ZTS15CSSPropertyAPI7
	.quad	_ZTI14CSSPropertyAPI
	.weak	_ZTS15CSSPropertyAPI7
	.section	.rodata._ZTS15CSSPropertyAPI7,"aG",@progbits,_ZTS15CSSPropertyAPI7,comdat
	.align 16
	.type	_ZTS15CSSPropertyAPI7, @object
	.size	_ZTS15CSSPropertyAPI7, 18
_ZTS15CSSPropertyAPI7:
	.string	"15CSSPropertyAPI7"
	.weak	_ZTI15CSSPropertyAPI8
	.section	.rodata._ZTI15CSSPropertyAPI8,"aG",@progbits,_ZTI15CSSPropertyAPI8,comdat
	.align 16
	.type	_ZTI15CSSPropertyAPI8, @object
	.size	_ZTI15CSSPropertyAPI8, 24
_ZTI15CSSPropertyAPI8:
	.quad	_ZTVN10__cxxabiv120__si_class_type_infoE+16
	.quad	_ZTS15CSSPropertyAPI8
	.quad	_ZTI14CSSPropertyAPI
	.weak	_ZTS15CSSPropertyAPI8
	.section	.rodata._ZTS15CSSPropertyAPI8,"aG",@progbits,_ZTS15CSSPropertyAPI8,comdat
	.align 16
	.type	_ZTS15CSSPropertyAPI8, @object
	.size	_ZTS15CSSPropertyAPI8, 18
_ZTS15CSSPropertyAPI8:
	.string	"15CSSPropertyAPI8"
	.weak	_ZTI15CSSPropertyAPI9
	.section	.rodata._ZTI15CSSPropertyAPI9,"aG",@progbits,_ZTI15CSSPropertyAPI9,comdat
	.align 16
	.type	_ZTI15CSSPropertyAPI9, @object
	.size	_ZTI15CSSPropertyAPI9, 24
_ZTI15CSSPropertyAPI9:
	.quad	_ZTVN10__cxxabiv120__si_class_type_infoE+16
	.quad	_ZTS15CSSPropertyAPI9
	.quad	_ZTI14CSSPropertyAPI
	.weak	_ZTS15CSSPropertyAPI9
	.section	.rodata._ZTS15CSSPropertyAPI9,"aG",@progbits,_ZTS15CSSPropertyAPI9,comdat
	.align 16
	.type	_ZTS15CSSPropertyAPI9, @object
	.size	_ZTS15CSSPropertyAPI9, 18
_ZTS15CSSPropertyAPI9:
	.string	"15CSSPropertyAPI9"
	.weak	_ZTI16CSSPropertyAPI10
	.section	.rodata._ZTI16CSSPropertyAPI10,"aG",@progbits,_ZTI16CSSPropertyAPI10,comdat
	.align 16
	.type	_ZTI16CSSPropertyAPI10, @object
	.size	_ZTI16CSSPropertyAPI10, 24
_ZTI16CSSPropertyAPI10:
	.quad	_ZTVN10__cxxabiv120__si_class_type_infoE+16
	.quad	_ZTS16CSSPropertyAPI10
	.quad	_ZTI14CSSPropertyAPI
	.weak	_ZTS16CSSPropertyAPI10
	.section	.rodata._ZTS16CSSPropertyAPI10,"aG",@progbits,_ZTS16CSSPropertyAPI10,comdat
	.align 16
	.type	_ZTS16CSSPropertyAPI10, @object
	.size	_ZTS16CSSPropertyAPI10, 19
_ZTS16CSSPropertyAPI10:
	.string	"16CSSPropertyAPI10"
	.weak	_ZTV15CSSPropertyAPI1
	.section	.rodata._ZTV15CSSPropertyAPI1,"aG",@progbits,_ZTV15CSSPropertyAPI1,comdat
	.align 16
	.type	_ZTV15CSSPropertyAPI1, @object
	.size	_ZTV15CSSPropertyAPI1, 24
_ZTV15CSSPropertyAPI1:
	.quad	0
	.quad	_ZTI15CSSPropertyAPI1
	.quad	_ZNK15CSSPropertyAPI15parseEv
	.weak	_ZTV15CSSPropertyAPI2
	.section	.rodata._ZTV15CSSPropertyAPI2,"aG",@progbits,_ZTV15CSSPropertyAPI2,comdat
	.align 16
	.type	_ZTV15CSSPropertyAPI2, @object
	.size	_ZTV15CSSPropertyAPI2, 24
_ZTV15CSSPropertyAPI2:
	.quad	0
	.quad	_ZTI15CSSPropertyAPI2
	.quad	_ZNK15CSSPropertyAPI25parseEv
	.weak	_ZTV15CSSPropertyAPI3
	.section	.rodata._ZTV15CSSPropertyAPI3,"aG",@progbits,_ZTV15CSSPropertyAPI3,comdat
	.align 16
	.type	_ZTV15CSSPropertyAPI3, @object
	.size	_ZTV15CSSPropertyAPI3, 24
_ZTV15CSSPropertyAPI3:
	.quad	0
	.quad	_ZTI15CSSPropertyAPI3
	.quad	_ZNK15CSSPropertyAPI35parseEv
	.weak	_ZTV15CSSPropertyAPI4
	.section	.rodata._ZTV15CSSPropertyAPI4,"aG",@progbits,_ZTV15CSSPropertyAPI4,comdat
	.align 16
	.type	_ZTV15CSSPropertyAPI4, @object
	.size	_ZTV15CSSPropertyAPI4, 24
_ZTV15CSSPropertyAPI4:
	.quad	0
	.quad	_ZTI15CSSPropertyAPI4
	.quad	_ZNK15CSSPropertyAPI45parseEv
	.weak	_ZTV15CSSPropertyAPI5
	.section	.rodata._ZTV15CSSPropertyAPI5,"aG",@progbits,_ZTV15CSSPropertyAPI5,comdat
	.align 16
	.type	_ZTV15CSSPropertyAPI5, @object
	.size	_ZTV15CSSPropertyAPI5, 24
_ZTV15CSSPropertyAPI5:
	.quad	0
	.quad	_ZTI15CSSPropertyAPI5
	.quad	_ZNK15CSSPropertyAPI55parseEv
	.weak	_ZTV15CSSPropertyAPI6
	.section	.rodata._ZTV15CSSPropertyAPI6,"aG",@progbits,_ZTV15CSSPropertyAPI6,comdat
	.align 16
	.type	_ZTV15CSSPropertyAPI6, @object
	.size	_ZTV15CSSPropertyAPI6, 24
_ZTV15CSSPropertyAPI6:
	.quad	0
	.quad	_ZTI15CSSPropertyAPI6
	.quad	_ZNK15CSSPropertyAPI65parseEv
	.weak	_ZTV15CSSPropertyAPI7
	.section	.rodata._ZTV15CSSPropertyAPI7,"aG",@progbits,_ZTV15CSSPropertyAPI7,comdat
	.align 16
	.type	_ZTV15CSSPropertyAPI7, @object
	.size	_ZTV15CSSPropertyAPI7, 24
_ZTV15CSSPropertyAPI7:
	.quad	0
	.quad	_ZTI15CSSPropertyAPI7
	.quad	_ZNK15CSSPropertyAPI75parseEv
	.weak	_ZTV15CSSPropertyAPI8
	.section	.rodata._ZTV15CSSPropertyAPI8,"aG",@progbits,_ZTV15CSSPropertyAPI8,comdat
	.align 16
	.type	_ZTV15CSSPropertyAPI8, @object
	.size	_ZTV15CSSPropertyAPI8, 24
_ZTV15CSSPropertyAPI8:
	.quad	0
	.quad	_ZTI15CSSPropertyAPI8
	.quad	_ZNK15CSSPropertyAPI85parseEv
	.weak	_ZTV15CSSPropertyAPI9
	.section	.rodata._ZTV15CSSPropertyAPI9,"aG",@progbits,_ZTV15CSSPropertyAPI9,comdat
	.align 16
	.type	_ZTV15CSSPropertyAPI9, @object
	.size	_ZTV15CSSPropertyAPI9, 24
_ZTV15CSSPropertyAPI9:
	.quad	0
	.quad	_ZTI15CSSPropertyAPI9
	.quad	_ZNK15CSSPropertyAPI95parseEv
	.weak	_ZTV16CSSPropertyAPI10
	.section	.rodata._ZTV16CSSPropertyAPI10,"aG",@progbits,_ZTV16CSSPropertyAPI10,comdat
	.align 16
	.type	_ZTV16CSSPropertyAPI10, @object
	.size	_ZTV16CSSPropertyAPI10, 24
_ZTV16CSSPropertyAPI10:
	.quad	0
	.quad	_ZTI16CSSPropertyAPI10
	.quad	_ZNK16CSSPropertyAPI105parseEv
	.globl	increment_me
	.bss
	.align 4
	.type	increment_me, @object
	.size	increment_me, 4
increment_me:
	.zero	4
	.local	_ZStL8__ioinit
	.comm	_ZStL8__ioinit,1,1
	.section	.rodata.cst4,"aM",@progbits,4
	.align 4
.LC1:
	.long	1232348160
	.hidden	__dso_handle
	.ident	"GCC: (Ubuntu 4.8.4-2ubuntu1~14.04.3) 4.8.4"
	.section	.note.GNU-stack,"",@progbits
