	.file	"generated/descriptor-with-default-split-10-classes-test/descriptor-with-default-split-10-classes-test.cpp"
	.text
	.globl	_ZN21CSSPropertyAPIDefault5parseEv
	.align	16, 0x90
	.type	_ZN21CSSPropertyAPIDefault5parseEv,@function
_ZN21CSSPropertyAPIDefault5parseEv:     # @_ZN21CSSPropertyAPIDefault5parseEv
	.cfi_startproc
# BB#0:
	movl	increment_me(%rip), %eax
	addl	%eax, increment_me(%rip)
	ret
.Ltmp0:
	.size	_ZN21CSSPropertyAPIDefault5parseEv, .Ltmp0-_ZN21CSSPropertyAPIDefault5parseEv
	.cfi_endproc

	.globl	_ZN21CSSPropertyAPIDefault5otherEv
	.align	16, 0x90
	.type	_ZN21CSSPropertyAPIDefault5otherEv,@function
_ZN21CSSPropertyAPIDefault5otherEv:     # @_ZN21CSSPropertyAPIDefault5otherEv
	.cfi_startproc
# BB#0:
	addl	$10, increment_me(%rip)
	ret
.Ltmp1:
	.size	_ZN21CSSPropertyAPIDefault5otherEv, .Ltmp1-_ZN21CSSPropertyAPIDefault5otherEv
	.cfi_endproc

	.globl	_ZN15CSSPropertyAPI15parseEv
	.align	16, 0x90
	.type	_ZN15CSSPropertyAPI15parseEv,@function
_ZN15CSSPropertyAPI15parseEv:           # @_ZN15CSSPropertyAPI15parseEv
	.cfi_startproc
# BB#0:
	incl	increment_me(%rip)
	ret
.Ltmp2:
	.size	_ZN15CSSPropertyAPI15parseEv, .Ltmp2-_ZN15CSSPropertyAPI15parseEv
	.cfi_endproc

	.globl	_ZN15CSSPropertyAPI15otherEv
	.align	16, 0x90
	.type	_ZN15CSSPropertyAPI15otherEv,@function
_ZN15CSSPropertyAPI15otherEv:           # @_ZN15CSSPropertyAPI15otherEv
	.cfi_startproc
# BB#0:
	addl	$2, increment_me(%rip)
	ret
.Ltmp3:
	.size	_ZN15CSSPropertyAPI15otherEv, .Ltmp3-_ZN15CSSPropertyAPI15otherEv
	.cfi_endproc

	.globl	_ZN15CSSPropertyAPI25parseEv
	.align	16, 0x90
	.type	_ZN15CSSPropertyAPI25parseEv,@function
_ZN15CSSPropertyAPI25parseEv:           # @_ZN15CSSPropertyAPI25parseEv
	.cfi_startproc
# BB#0:
	addl	$2, increment_me(%rip)
	ret
.Ltmp4:
	.size	_ZN15CSSPropertyAPI25parseEv, .Ltmp4-_ZN15CSSPropertyAPI25parseEv
	.cfi_endproc

	.globl	_ZN15CSSPropertyAPI25otherEv
	.align	16, 0x90
	.type	_ZN15CSSPropertyAPI25otherEv,@function
_ZN15CSSPropertyAPI25otherEv:           # @_ZN15CSSPropertyAPI25otherEv
	.cfi_startproc
# BB#0:
	addl	$3, increment_me(%rip)
	ret
.Ltmp5:
	.size	_ZN15CSSPropertyAPI25otherEv, .Ltmp5-_ZN15CSSPropertyAPI25otherEv
	.cfi_endproc

	.globl	_ZN15CSSPropertyAPI35parseEv
	.align	16, 0x90
	.type	_ZN15CSSPropertyAPI35parseEv,@function
_ZN15CSSPropertyAPI35parseEv:           # @_ZN15CSSPropertyAPI35parseEv
	.cfi_startproc
# BB#0:
	addl	$3, increment_me(%rip)
	ret
.Ltmp6:
	.size	_ZN15CSSPropertyAPI35parseEv, .Ltmp6-_ZN15CSSPropertyAPI35parseEv
	.cfi_endproc

	.globl	_ZN15CSSPropertyAPI35otherEv
	.align	16, 0x90
	.type	_ZN15CSSPropertyAPI35otherEv,@function
_ZN15CSSPropertyAPI35otherEv:           # @_ZN15CSSPropertyAPI35otherEv
	.cfi_startproc
# BB#0:
	addl	$4, increment_me(%rip)
	ret
.Ltmp7:
	.size	_ZN15CSSPropertyAPI35otherEv, .Ltmp7-_ZN15CSSPropertyAPI35otherEv
	.cfi_endproc

	.globl	_ZN15CSSPropertyAPI45parseEv
	.align	16, 0x90
	.type	_ZN15CSSPropertyAPI45parseEv,@function
_ZN15CSSPropertyAPI45parseEv:           # @_ZN15CSSPropertyAPI45parseEv
	.cfi_startproc
# BB#0:
	addl	$4, increment_me(%rip)
	ret
.Ltmp8:
	.size	_ZN15CSSPropertyAPI45parseEv, .Ltmp8-_ZN15CSSPropertyAPI45parseEv
	.cfi_endproc

	.globl	_ZN15CSSPropertyAPI45otherEv
	.align	16, 0x90
	.type	_ZN15CSSPropertyAPI45otherEv,@function
_ZN15CSSPropertyAPI45otherEv:           # @_ZN15CSSPropertyAPI45otherEv
	.cfi_startproc
# BB#0:
	addl	$5, increment_me(%rip)
	ret
.Ltmp9:
	.size	_ZN15CSSPropertyAPI45otherEv, .Ltmp9-_ZN15CSSPropertyAPI45otherEv
	.cfi_endproc

	.globl	_ZN15CSSPropertyAPI55parseEv
	.align	16, 0x90
	.type	_ZN15CSSPropertyAPI55parseEv,@function
_ZN15CSSPropertyAPI55parseEv:           # @_ZN15CSSPropertyAPI55parseEv
	.cfi_startproc
# BB#0:
	addl	$5, increment_me(%rip)
	ret
.Ltmp10:
	.size	_ZN15CSSPropertyAPI55parseEv, .Ltmp10-_ZN15CSSPropertyAPI55parseEv
	.cfi_endproc

	.globl	_ZN15CSSPropertyAPI55otherEv
	.align	16, 0x90
	.type	_ZN15CSSPropertyAPI55otherEv,@function
_ZN15CSSPropertyAPI55otherEv:           # @_ZN15CSSPropertyAPI55otherEv
	.cfi_startproc
# BB#0:
	addl	$6, increment_me(%rip)
	ret
.Ltmp11:
	.size	_ZN15CSSPropertyAPI55otherEv, .Ltmp11-_ZN15CSSPropertyAPI55otherEv
	.cfi_endproc

	.globl	_ZN15CSSPropertyAPI65parseEv
	.align	16, 0x90
	.type	_ZN15CSSPropertyAPI65parseEv,@function
_ZN15CSSPropertyAPI65parseEv:           # @_ZN15CSSPropertyAPI65parseEv
	.cfi_startproc
# BB#0:
	addl	$6, increment_me(%rip)
	ret
.Ltmp12:
	.size	_ZN15CSSPropertyAPI65parseEv, .Ltmp12-_ZN15CSSPropertyAPI65parseEv
	.cfi_endproc

	.globl	_ZN15CSSPropertyAPI65otherEv
	.align	16, 0x90
	.type	_ZN15CSSPropertyAPI65otherEv,@function
_ZN15CSSPropertyAPI65otherEv:           # @_ZN15CSSPropertyAPI65otherEv
	.cfi_startproc
# BB#0:
	addl	$7, increment_me(%rip)
	ret
.Ltmp13:
	.size	_ZN15CSSPropertyAPI65otherEv, .Ltmp13-_ZN15CSSPropertyAPI65otherEv
	.cfi_endproc

	.globl	_ZN15CSSPropertyAPI75parseEv
	.align	16, 0x90
	.type	_ZN15CSSPropertyAPI75parseEv,@function
_ZN15CSSPropertyAPI75parseEv:           # @_ZN15CSSPropertyAPI75parseEv
	.cfi_startproc
# BB#0:
	addl	$7, increment_me(%rip)
	ret
.Ltmp14:
	.size	_ZN15CSSPropertyAPI75parseEv, .Ltmp14-_ZN15CSSPropertyAPI75parseEv
	.cfi_endproc

	.globl	_ZN15CSSPropertyAPI75otherEv
	.align	16, 0x90
	.type	_ZN15CSSPropertyAPI75otherEv,@function
_ZN15CSSPropertyAPI75otherEv:           # @_ZN15CSSPropertyAPI75otherEv
	.cfi_startproc
# BB#0:
	addl	$8, increment_me(%rip)
	ret
.Ltmp15:
	.size	_ZN15CSSPropertyAPI75otherEv, .Ltmp15-_ZN15CSSPropertyAPI75otherEv
	.cfi_endproc

	.globl	_ZN15CSSPropertyAPI85parseEv
	.align	16, 0x90
	.type	_ZN15CSSPropertyAPI85parseEv,@function
_ZN15CSSPropertyAPI85parseEv:           # @_ZN15CSSPropertyAPI85parseEv
	.cfi_startproc
# BB#0:
	addl	$8, increment_me(%rip)
	ret
.Ltmp16:
	.size	_ZN15CSSPropertyAPI85parseEv, .Ltmp16-_ZN15CSSPropertyAPI85parseEv
	.cfi_endproc

	.globl	_ZN15CSSPropertyAPI85otherEv
	.align	16, 0x90
	.type	_ZN15CSSPropertyAPI85otherEv,@function
_ZN15CSSPropertyAPI85otherEv:           # @_ZN15CSSPropertyAPI85otherEv
	.cfi_startproc
# BB#0:
	addl	$9, increment_me(%rip)
	ret
.Ltmp17:
	.size	_ZN15CSSPropertyAPI85otherEv, .Ltmp17-_ZN15CSSPropertyAPI85otherEv
	.cfi_endproc

	.globl	_ZN15CSSPropertyAPI95parseEv
	.align	16, 0x90
	.type	_ZN15CSSPropertyAPI95parseEv,@function
_ZN15CSSPropertyAPI95parseEv:           # @_ZN15CSSPropertyAPI95parseEv
	.cfi_startproc
# BB#0:
	addl	$9, increment_me(%rip)
	ret
.Ltmp18:
	.size	_ZN15CSSPropertyAPI95parseEv, .Ltmp18-_ZN15CSSPropertyAPI95parseEv
	.cfi_endproc

	.globl	_ZN15CSSPropertyAPI95otherEv
	.align	16, 0x90
	.type	_ZN15CSSPropertyAPI95otherEv,@function
_ZN15CSSPropertyAPI95otherEv:           # @_ZN15CSSPropertyAPI95otherEv
	.cfi_startproc
# BB#0:
	addl	$10, increment_me(%rip)
	ret
.Ltmp19:
	.size	_ZN15CSSPropertyAPI95otherEv, .Ltmp19-_ZN15CSSPropertyAPI95otherEv
	.cfi_endproc

	.globl	_ZN16CSSPropertyAPI105parseEv
	.align	16, 0x90
	.type	_ZN16CSSPropertyAPI105parseEv,@function
_ZN16CSSPropertyAPI105parseEv:          # @_ZN16CSSPropertyAPI105parseEv
	.cfi_startproc
# BB#0:
	addl	$10, increment_me(%rip)
	ret
.Ltmp20:
	.size	_ZN16CSSPropertyAPI105parseEv, .Ltmp20-_ZN16CSSPropertyAPI105parseEv
	.cfi_endproc

	.globl	_ZN16CSSPropertyAPI105otherEv
	.align	16, 0x90
	.type	_ZN16CSSPropertyAPI105otherEv,@function
_ZN16CSSPropertyAPI105otherEv:          # @_ZN16CSSPropertyAPI105otherEv
	.cfi_startproc
# BB#0:
	addl	$11, increment_me(%rip)
	ret
.Ltmp21:
	.size	_ZN16CSSPropertyAPI105otherEv, .Ltmp21-_ZN16CSSPropertyAPI105otherEv
	.cfi_endproc

	.globl	_ZN21CSSPropertyDescriptor3GetEi
	.align	16, 0x90
	.type	_ZN21CSSPropertyDescriptor3GetEi,@function
_ZN21CSSPropertyDescriptor3GetEi:       # @_ZN21CSSPropertyDescriptor3GetEi
	.cfi_startproc
# BB#0:
	movslq	%edi, %rax
	movq	_ZL17descriptorIndices(,%rax,8), %rax
	shlq	$4, %rax
	leaq	_ZL11descriptors(%rax), %rax
	ret
.Ltmp22:
	.size	_ZN21CSSPropertyDescriptor3GetEi, .Ltmp22-_ZN21CSSPropertyDescriptor3GetEi
	.cfi_endproc

	.type	increment_me,@object    # @increment_me
	.bss
	.globl	increment_me
	.align	4
increment_me:
	.long	0                       # 0x0
	.size	increment_me, 4

	.type	_ZL17descriptorIndices,@object # @_ZL17descriptorIndices
	.section	.rodata,"a",@progbits
	.align	16
_ZL17descriptorIndices:
	.quad	8                       # 0x8
	.quad	10                      # 0xa
	.quad	15                      # 0xf
	.quad	2                       # 0x2
	.quad	17                      # 0x11
	.quad	4                       # 0x4
	.quad	0                       # 0x0
	.quad	5                       # 0x5
	.quad	14                      # 0xe
	.quad	7                       # 0x7
	.quad	9                       # 0x9
	.quad	1                       # 0x1
	.quad	12                      # 0xc
	.quad	3                       # 0x3
	.quad	19                      # 0x13
	.quad	6                       # 0x6
	.quad	18                      # 0x12
	.quad	13                      # 0xd
	.quad	16                      # 0x10
	.quad	11                      # 0xb
	.size	_ZL17descriptorIndices, 160

	.type	_ZL11descriptors,@object # @_ZL11descriptors
	.align	16
_ZL11descriptors:
	.quad	_ZN15CSSPropertyAPI35parseEv
	.quad	_ZN15CSSPropertyAPI35otherEv
	.quad	_ZN16CSSPropertyAPI105parseEv
	.quad	_ZN16CSSPropertyAPI105otherEv
	.quad	_ZN15CSSPropertyAPI25parseEv
	.quad	_ZN15CSSPropertyAPI25otherEv
	.quad	_ZN21CSSPropertyAPIDefault5parseEv
	.quad	_ZN21CSSPropertyAPIDefault5otherEv
	.quad	_ZN15CSSPropertyAPI75parseEv
	.quad	_ZN15CSSPropertyAPI75otherEv
	.quad	_ZN15CSSPropertyAPI85parseEv
	.quad	_ZN15CSSPropertyAPI85otherEv
	.quad	_ZN21CSSPropertyAPIDefault5parseEv
	.quad	_ZN21CSSPropertyAPIDefault5otherEv
	.quad	_ZN15CSSPropertyAPI55parseEv
	.quad	_ZN15CSSPropertyAPI55otherEv
	.quad	_ZN21CSSPropertyAPIDefault5parseEv
	.quad	_ZN21CSSPropertyAPIDefault5otherEv
	.quad	_ZN21CSSPropertyAPIDefault5parseEv
	.quad	_ZN21CSSPropertyAPIDefault5otherEv
	.quad	_ZN15CSSPropertyAPI15parseEv
	.quad	_ZN15CSSPropertyAPI15otherEv
	.quad	_ZN21CSSPropertyAPIDefault5parseEv
	.quad	_ZN21CSSPropertyAPIDefault5otherEv
	.quad	_ZN21CSSPropertyAPIDefault5parseEv
	.quad	_ZN21CSSPropertyAPIDefault5otherEv
	.quad	_ZN21CSSPropertyAPIDefault5parseEv
	.quad	_ZN21CSSPropertyAPIDefault5otherEv
	.quad	_ZN21CSSPropertyAPIDefault5parseEv
	.quad	_ZN21CSSPropertyAPIDefault5otherEv
	.quad	_ZN15CSSPropertyAPI45parseEv
	.quad	_ZN15CSSPropertyAPI45otherEv
	.quad	_ZN15CSSPropertyAPI95parseEv
	.quad	_ZN15CSSPropertyAPI95otherEv
	.quad	_ZN21CSSPropertyAPIDefault5parseEv
	.quad	_ZN21CSSPropertyAPIDefault5otherEv
	.quad	_ZN21CSSPropertyAPIDefault5parseEv
	.quad	_ZN21CSSPropertyAPIDefault5otherEv
	.quad	_ZN15CSSPropertyAPI65parseEv
	.quad	_ZN15CSSPropertyAPI65otherEv
	.size	_ZL11descriptors, 320


	.ident	"Ubuntu clang version 3.4-1ubuntu3 (tags/RELEASE_34/final) (based on LLVM 3.4)"
	.section	".note.GNU-stack","",@progbits
