	.text
	.file	"generated/table-split-10-classes-20-methods-calls-test/table-split-10-classes-20-methods-calls-test.cpp"
	.globl	_ZNK14CSSPropertyAPI5parseEv # -- Begin function _ZNK14CSSPropertyAPI5parseEv
	.p2align	4, 0x90
	.type	_ZNK14CSSPropertyAPI5parseEv,@function
_ZNK14CSSPropertyAPI5parseEv:           # @_ZNK14CSSPropertyAPI5parseEv
	.cfi_startproc
# BB#0:                                 # %entry
	incl	increment_me(%rip)
	retq
.Lfunc_end0:
	.size	_ZNK14CSSPropertyAPI5parseEv, .Lfunc_end0-_ZNK14CSSPropertyAPI5parseEv
	.cfi_endproc
                                        # -- End function
	.globl	_ZNK14CSSPropertyAPI5otherEv # -- Begin function _ZNK14CSSPropertyAPI5otherEv
	.p2align	4, 0x90
	.type	_ZNK14CSSPropertyAPI5otherEv,@function
_ZNK14CSSPropertyAPI5otherEv:           # @_ZNK14CSSPropertyAPI5otherEv
	.cfi_startproc
# BB#0:                                 # %entry
	incl	increment_me(%rip)
	retq
.Lfunc_end1:
	.size	_ZNK14CSSPropertyAPI5otherEv, .Lfunc_end1-_ZNK14CSSPropertyAPI5otherEv
	.cfi_endproc
                                        # -- End function
	.globl	_ZNK15CSSPropertyAPI15parseEv # -- Begin function _ZNK15CSSPropertyAPI15parseEv
	.p2align	4, 0x90
	.type	_ZNK15CSSPropertyAPI15parseEv,@function
_ZNK15CSSPropertyAPI15parseEv:          # @_ZNK15CSSPropertyAPI15parseEv
	.cfi_startproc
# BB#0:                                 # %entry
	incl	increment_me(%rip)
	retq
.Lfunc_end2:
	.size	_ZNK15CSSPropertyAPI15parseEv, .Lfunc_end2-_ZNK15CSSPropertyAPI15parseEv
	.cfi_endproc
                                        # -- End function
	.globl	_ZNK15CSSPropertyAPI15otherEv # -- Begin function _ZNK15CSSPropertyAPI15otherEv
	.p2align	4, 0x90
	.type	_ZNK15CSSPropertyAPI15otherEv,@function
_ZNK15CSSPropertyAPI15otherEv:          # @_ZNK15CSSPropertyAPI15otherEv
	.cfi_startproc
# BB#0:                                 # %entry
	incl	increment_me(%rip)
	retq
.Lfunc_end3:
	.size	_ZNK15CSSPropertyAPI15otherEv, .Lfunc_end3-_ZNK15CSSPropertyAPI15otherEv
	.cfi_endproc
                                        # -- End function
	.globl	_ZNK15CSSPropertyAPI25parseEv # -- Begin function _ZNK15CSSPropertyAPI25parseEv
	.p2align	4, 0x90
	.type	_ZNK15CSSPropertyAPI25parseEv,@function
_ZNK15CSSPropertyAPI25parseEv:          # @_ZNK15CSSPropertyAPI25parseEv
	.cfi_startproc
# BB#0:                                 # %entry
	addl	$2, increment_me(%rip)
	retq
.Lfunc_end4:
	.size	_ZNK15CSSPropertyAPI25parseEv, .Lfunc_end4-_ZNK15CSSPropertyAPI25parseEv
	.cfi_endproc
                                        # -- End function
	.globl	_ZNK15CSSPropertyAPI25otherEv # -- Begin function _ZNK15CSSPropertyAPI25otherEv
	.p2align	4, 0x90
	.type	_ZNK15CSSPropertyAPI25otherEv,@function
_ZNK15CSSPropertyAPI25otherEv:          # @_ZNK15CSSPropertyAPI25otherEv
	.cfi_startproc
# BB#0:                                 # %entry
	addl	$2, increment_me(%rip)
	retq
.Lfunc_end5:
	.size	_ZNK15CSSPropertyAPI25otherEv, .Lfunc_end5-_ZNK15CSSPropertyAPI25otherEv
	.cfi_endproc
                                        # -- End function
	.globl	_ZNK15CSSPropertyAPI35parseEv # -- Begin function _ZNK15CSSPropertyAPI35parseEv
	.p2align	4, 0x90
	.type	_ZNK15CSSPropertyAPI35parseEv,@function
_ZNK15CSSPropertyAPI35parseEv:          # @_ZNK15CSSPropertyAPI35parseEv
	.cfi_startproc
# BB#0:                                 # %entry
	addl	$3, increment_me(%rip)
	retq
.Lfunc_end6:
	.size	_ZNK15CSSPropertyAPI35parseEv, .Lfunc_end6-_ZNK15CSSPropertyAPI35parseEv
	.cfi_endproc
                                        # -- End function
	.globl	_ZNK15CSSPropertyAPI35otherEv # -- Begin function _ZNK15CSSPropertyAPI35otherEv
	.p2align	4, 0x90
	.type	_ZNK15CSSPropertyAPI35otherEv,@function
_ZNK15CSSPropertyAPI35otherEv:          # @_ZNK15CSSPropertyAPI35otherEv
	.cfi_startproc
# BB#0:                                 # %entry
	addl	$3, increment_me(%rip)
	retq
.Lfunc_end7:
	.size	_ZNK15CSSPropertyAPI35otherEv, .Lfunc_end7-_ZNK15CSSPropertyAPI35otherEv
	.cfi_endproc
                                        # -- End function
	.globl	_ZNK15CSSPropertyAPI45parseEv # -- Begin function _ZNK15CSSPropertyAPI45parseEv
	.p2align	4, 0x90
	.type	_ZNK15CSSPropertyAPI45parseEv,@function
_ZNK15CSSPropertyAPI45parseEv:          # @_ZNK15CSSPropertyAPI45parseEv
	.cfi_startproc
# BB#0:                                 # %entry
	addl	$4, increment_me(%rip)
	retq
.Lfunc_end8:
	.size	_ZNK15CSSPropertyAPI45parseEv, .Lfunc_end8-_ZNK15CSSPropertyAPI45parseEv
	.cfi_endproc
                                        # -- End function
	.globl	_ZNK15CSSPropertyAPI45otherEv # -- Begin function _ZNK15CSSPropertyAPI45otherEv
	.p2align	4, 0x90
	.type	_ZNK15CSSPropertyAPI45otherEv,@function
_ZNK15CSSPropertyAPI45otherEv:          # @_ZNK15CSSPropertyAPI45otherEv
	.cfi_startproc
# BB#0:                                 # %entry
	addl	$4, increment_me(%rip)
	retq
.Lfunc_end9:
	.size	_ZNK15CSSPropertyAPI45otherEv, .Lfunc_end9-_ZNK15CSSPropertyAPI45otherEv
	.cfi_endproc
                                        # -- End function
	.globl	_ZNK15CSSPropertyAPI55parseEv # -- Begin function _ZNK15CSSPropertyAPI55parseEv
	.p2align	4, 0x90
	.type	_ZNK15CSSPropertyAPI55parseEv,@function
_ZNK15CSSPropertyAPI55parseEv:          # @_ZNK15CSSPropertyAPI55parseEv
	.cfi_startproc
# BB#0:                                 # %entry
	addl	$5, increment_me(%rip)
	retq
.Lfunc_end10:
	.size	_ZNK15CSSPropertyAPI55parseEv, .Lfunc_end10-_ZNK15CSSPropertyAPI55parseEv
	.cfi_endproc
                                        # -- End function
	.globl	_ZNK15CSSPropertyAPI55otherEv # -- Begin function _ZNK15CSSPropertyAPI55otherEv
	.p2align	4, 0x90
	.type	_ZNK15CSSPropertyAPI55otherEv,@function
_ZNK15CSSPropertyAPI55otherEv:          # @_ZNK15CSSPropertyAPI55otherEv
	.cfi_startproc
# BB#0:                                 # %entry
	addl	$5, increment_me(%rip)
	retq
.Lfunc_end11:
	.size	_ZNK15CSSPropertyAPI55otherEv, .Lfunc_end11-_ZNK15CSSPropertyAPI55otherEv
	.cfi_endproc
                                        # -- End function
	.globl	_ZNK15CSSPropertyAPI65parseEv # -- Begin function _ZNK15CSSPropertyAPI65parseEv
	.p2align	4, 0x90
	.type	_ZNK15CSSPropertyAPI65parseEv,@function
_ZNK15CSSPropertyAPI65parseEv:          # @_ZNK15CSSPropertyAPI65parseEv
	.cfi_startproc
# BB#0:                                 # %entry
	addl	$6, increment_me(%rip)
	retq
.Lfunc_end12:
	.size	_ZNK15CSSPropertyAPI65parseEv, .Lfunc_end12-_ZNK15CSSPropertyAPI65parseEv
	.cfi_endproc
                                        # -- End function
	.globl	_ZNK15CSSPropertyAPI65otherEv # -- Begin function _ZNK15CSSPropertyAPI65otherEv
	.p2align	4, 0x90
	.type	_ZNK15CSSPropertyAPI65otherEv,@function
_ZNK15CSSPropertyAPI65otherEv:          # @_ZNK15CSSPropertyAPI65otherEv
	.cfi_startproc
# BB#0:                                 # %entry
	addl	$6, increment_me(%rip)
	retq
.Lfunc_end13:
	.size	_ZNK15CSSPropertyAPI65otherEv, .Lfunc_end13-_ZNK15CSSPropertyAPI65otherEv
	.cfi_endproc
                                        # -- End function
	.globl	_ZNK15CSSPropertyAPI75parseEv # -- Begin function _ZNK15CSSPropertyAPI75parseEv
	.p2align	4, 0x90
	.type	_ZNK15CSSPropertyAPI75parseEv,@function
_ZNK15CSSPropertyAPI75parseEv:          # @_ZNK15CSSPropertyAPI75parseEv
	.cfi_startproc
# BB#0:                                 # %entry
	addl	$7, increment_me(%rip)
	retq
.Lfunc_end14:
	.size	_ZNK15CSSPropertyAPI75parseEv, .Lfunc_end14-_ZNK15CSSPropertyAPI75parseEv
	.cfi_endproc
                                        # -- End function
	.globl	_ZNK15CSSPropertyAPI75otherEv # -- Begin function _ZNK15CSSPropertyAPI75otherEv
	.p2align	4, 0x90
	.type	_ZNK15CSSPropertyAPI75otherEv,@function
_ZNK15CSSPropertyAPI75otherEv:          # @_ZNK15CSSPropertyAPI75otherEv
	.cfi_startproc
# BB#0:                                 # %entry
	addl	$7, increment_me(%rip)
	retq
.Lfunc_end15:
	.size	_ZNK15CSSPropertyAPI75otherEv, .Lfunc_end15-_ZNK15CSSPropertyAPI75otherEv
	.cfi_endproc
                                        # -- End function
	.globl	_ZNK15CSSPropertyAPI85parseEv # -- Begin function _ZNK15CSSPropertyAPI85parseEv
	.p2align	4, 0x90
	.type	_ZNK15CSSPropertyAPI85parseEv,@function
_ZNK15CSSPropertyAPI85parseEv:          # @_ZNK15CSSPropertyAPI85parseEv
	.cfi_startproc
# BB#0:                                 # %entry
	addl	$8, increment_me(%rip)
	retq
.Lfunc_end16:
	.size	_ZNK15CSSPropertyAPI85parseEv, .Lfunc_end16-_ZNK15CSSPropertyAPI85parseEv
	.cfi_endproc
                                        # -- End function
	.globl	_ZNK15CSSPropertyAPI85otherEv # -- Begin function _ZNK15CSSPropertyAPI85otherEv
	.p2align	4, 0x90
	.type	_ZNK15CSSPropertyAPI85otherEv,@function
_ZNK15CSSPropertyAPI85otherEv:          # @_ZNK15CSSPropertyAPI85otherEv
	.cfi_startproc
# BB#0:                                 # %entry
	addl	$8, increment_me(%rip)
	retq
.Lfunc_end17:
	.size	_ZNK15CSSPropertyAPI85otherEv, .Lfunc_end17-_ZNK15CSSPropertyAPI85otherEv
	.cfi_endproc
                                        # -- End function
	.globl	_ZNK15CSSPropertyAPI95parseEv # -- Begin function _ZNK15CSSPropertyAPI95parseEv
	.p2align	4, 0x90
	.type	_ZNK15CSSPropertyAPI95parseEv,@function
_ZNK15CSSPropertyAPI95parseEv:          # @_ZNK15CSSPropertyAPI95parseEv
	.cfi_startproc
# BB#0:                                 # %entry
	addl	$9, increment_me(%rip)
	retq
.Lfunc_end18:
	.size	_ZNK15CSSPropertyAPI95parseEv, .Lfunc_end18-_ZNK15CSSPropertyAPI95parseEv
	.cfi_endproc
                                        # -- End function
	.globl	_ZNK15CSSPropertyAPI95otherEv # -- Begin function _ZNK15CSSPropertyAPI95otherEv
	.p2align	4, 0x90
	.type	_ZNK15CSSPropertyAPI95otherEv,@function
_ZNK15CSSPropertyAPI95otherEv:          # @_ZNK15CSSPropertyAPI95otherEv
	.cfi_startproc
# BB#0:                                 # %entry
	addl	$9, increment_me(%rip)
	retq
.Lfunc_end19:
	.size	_ZNK15CSSPropertyAPI95otherEv, .Lfunc_end19-_ZNK15CSSPropertyAPI95otherEv
	.cfi_endproc
                                        # -- End function
	.globl	_ZNK16CSSPropertyAPI105parseEv # -- Begin function _ZNK16CSSPropertyAPI105parseEv
	.p2align	4, 0x90
	.type	_ZNK16CSSPropertyAPI105parseEv,@function
_ZNK16CSSPropertyAPI105parseEv:         # @_ZNK16CSSPropertyAPI105parseEv
	.cfi_startproc
# BB#0:                                 # %entry
	addl	$10, increment_me(%rip)
	retq
.Lfunc_end20:
	.size	_ZNK16CSSPropertyAPI105parseEv, .Lfunc_end20-_ZNK16CSSPropertyAPI105parseEv
	.cfi_endproc
                                        # -- End function
	.globl	_ZNK16CSSPropertyAPI105otherEv # -- Begin function _ZNK16CSSPropertyAPI105otherEv
	.p2align	4, 0x90
	.type	_ZNK16CSSPropertyAPI105otherEv,@function
_ZNK16CSSPropertyAPI105otherEv:         # @_ZNK16CSSPropertyAPI105otherEv
	.cfi_startproc
# BB#0:                                 # %entry
	addl	$10, increment_me(%rip)
	retq
.Lfunc_end21:
	.size	_ZNK16CSSPropertyAPI105otherEv, .Lfunc_end21-_ZNK16CSSPropertyAPI105otherEv
	.cfi_endproc
                                        # -- End function
	.globl	_Z14GetPropertyAPIi     # -- Begin function _Z14GetPropertyAPIi
	.p2align	4, 0x90
	.type	_Z14GetPropertyAPIi,@function
_Z14GetPropertyAPIi:                    # @_Z14GetPropertyAPIi
	.cfi_startproc
# BB#0:                                 # %entry
	movslq	%edi, %rax
	movq	_ZL13property_apis(,%rax,8), %rax
	retq
.Lfunc_end22:
	.size	_Z14GetPropertyAPIi, .Lfunc_end22-_Z14GetPropertyAPIi
	.cfi_endproc
                                        # -- End function
	.globl	_Z16ParsePropertyAPIi   # -- Begin function _Z16ParsePropertyAPIi
	.p2align	4, 0x90
	.type	_Z16ParsePropertyAPIi,@function
_Z16ParsePropertyAPIi:                  # @_Z16ParsePropertyAPIi
	.cfi_startproc
# BB#0:                                 # %entry
	movslq	%edi, %rax
	movq	_ZL13property_apis(,%rax,8), %rdi
	movq	(%rdi), %rax
	jmpq	*(%rax)                 # TAILCALL
.Lfunc_end23:
	.size	_Z16ParsePropertyAPIi, .Lfunc_end23-_Z16ParsePropertyAPIi
	.cfi_endproc
                                        # -- End function
	.globl	_Z16OtherPropertyAPIi   # -- Begin function _Z16OtherPropertyAPIi
	.p2align	4, 0x90
	.type	_Z16OtherPropertyAPIi,@function
_Z16OtherPropertyAPIi:                  # @_Z16OtherPropertyAPIi
	.cfi_startproc
# BB#0:                                 # %entry
	movslq	%edi, %rax
	movq	_ZL13property_apis(,%rax,8), %rdi
	movq	(%rdi), %rax
	jmpq	*8(%rax)                # TAILCALL
.Lfunc_end24:
	.size	_Z16OtherPropertyAPIi, .Lfunc_end24-_Z16OtherPropertyAPIi
	.cfi_endproc
                                        # -- End function
	.type	increment_me,@object    # @increment_me
	.bss
	.globl	increment_me
	.p2align	2
increment_me:
	.long	0                       # 0x0
	.size	increment_me, 4

	.type	_ZL13property_apis,@object # @_ZL13property_apis
	.section	.rodata,"a",@progbits
	.p2align	4
_ZL13property_apis:
	.quad	_ZL5api_0
	.quad	_ZL5api_0
	.quad	_ZL5api_0
	.quad	_ZL5api_0
	.quad	_ZL5api_6
	.quad	_ZL5api_9
	.quad	_ZL5api_0
	.quad	_ZL5api_0
	.quad	_ZL5api_5
	.quad	_ZL5api_1
	.quad	_ZL5api_0
	.quad	_ZL5api_3
	.quad	_ZL5api_4
	.quad	_ZL5api_7
	.quad	_ZL5api_8
	.quad	_ZL5api_0
	.quad	_ZL5api_0
	.quad	_ZL5api_0
	.quad	_ZL5api_2
	.quad	_ZL6api_10
	.size	_ZL13property_apis, 160

	.type	_ZTV14CSSPropertyAPI,@object # @_ZTV14CSSPropertyAPI
	.globl	_ZTV14CSSPropertyAPI
	.p2align	3
_ZTV14CSSPropertyAPI:
	.quad	0
	.quad	_ZTI14CSSPropertyAPI
	.quad	_ZNK14CSSPropertyAPI5parseEv
	.quad	_ZNK14CSSPropertyAPI5otherEv
	.size	_ZTV14CSSPropertyAPI, 32

	.type	_ZTS14CSSPropertyAPI,@object # @_ZTS14CSSPropertyAPI
	.globl	_ZTS14CSSPropertyAPI
	.p2align	4
_ZTS14CSSPropertyAPI:
	.asciz	"14CSSPropertyAPI"
	.size	_ZTS14CSSPropertyAPI, 17

	.type	_ZTI14CSSPropertyAPI,@object # @_ZTI14CSSPropertyAPI
	.globl	_ZTI14CSSPropertyAPI
	.p2align	3
_ZTI14CSSPropertyAPI:
	.quad	_ZTVN10__cxxabiv117__class_type_infoE+16
	.quad	_ZTS14CSSPropertyAPI
	.size	_ZTI14CSSPropertyAPI, 16

	.type	_ZTV15CSSPropertyAPI1,@object # @_ZTV15CSSPropertyAPI1
	.globl	_ZTV15CSSPropertyAPI1
	.p2align	3
_ZTV15CSSPropertyAPI1:
	.quad	0
	.quad	_ZTI15CSSPropertyAPI1
	.quad	_ZNK15CSSPropertyAPI15parseEv
	.quad	_ZNK15CSSPropertyAPI15otherEv
	.size	_ZTV15CSSPropertyAPI1, 32

	.type	_ZTS15CSSPropertyAPI1,@object # @_ZTS15CSSPropertyAPI1
	.globl	_ZTS15CSSPropertyAPI1
	.p2align	4
_ZTS15CSSPropertyAPI1:
	.asciz	"15CSSPropertyAPI1"
	.size	_ZTS15CSSPropertyAPI1, 18

	.type	_ZTI15CSSPropertyAPI1,@object # @_ZTI15CSSPropertyAPI1
	.globl	_ZTI15CSSPropertyAPI1
	.p2align	4
_ZTI15CSSPropertyAPI1:
	.quad	_ZTVN10__cxxabiv120__si_class_type_infoE+16
	.quad	_ZTS15CSSPropertyAPI1
	.quad	_ZTI14CSSPropertyAPI
	.size	_ZTI15CSSPropertyAPI1, 24

	.type	_ZTV15CSSPropertyAPI2,@object # @_ZTV15CSSPropertyAPI2
	.globl	_ZTV15CSSPropertyAPI2
	.p2align	3
_ZTV15CSSPropertyAPI2:
	.quad	0
	.quad	_ZTI15CSSPropertyAPI2
	.quad	_ZNK15CSSPropertyAPI25parseEv
	.quad	_ZNK15CSSPropertyAPI25otherEv
	.size	_ZTV15CSSPropertyAPI2, 32

	.type	_ZTS15CSSPropertyAPI2,@object # @_ZTS15CSSPropertyAPI2
	.globl	_ZTS15CSSPropertyAPI2
	.p2align	4
_ZTS15CSSPropertyAPI2:
	.asciz	"15CSSPropertyAPI2"
	.size	_ZTS15CSSPropertyAPI2, 18

	.type	_ZTI15CSSPropertyAPI2,@object # @_ZTI15CSSPropertyAPI2
	.globl	_ZTI15CSSPropertyAPI2
	.p2align	4
_ZTI15CSSPropertyAPI2:
	.quad	_ZTVN10__cxxabiv120__si_class_type_infoE+16
	.quad	_ZTS15CSSPropertyAPI2
	.quad	_ZTI14CSSPropertyAPI
	.size	_ZTI15CSSPropertyAPI2, 24

	.type	_ZTV15CSSPropertyAPI3,@object # @_ZTV15CSSPropertyAPI3
	.globl	_ZTV15CSSPropertyAPI3
	.p2align	3
_ZTV15CSSPropertyAPI3:
	.quad	0
	.quad	_ZTI15CSSPropertyAPI3
	.quad	_ZNK15CSSPropertyAPI35parseEv
	.quad	_ZNK15CSSPropertyAPI35otherEv
	.size	_ZTV15CSSPropertyAPI3, 32

	.type	_ZTS15CSSPropertyAPI3,@object # @_ZTS15CSSPropertyAPI3
	.globl	_ZTS15CSSPropertyAPI3
	.p2align	4
_ZTS15CSSPropertyAPI3:
	.asciz	"15CSSPropertyAPI3"
	.size	_ZTS15CSSPropertyAPI3, 18

	.type	_ZTI15CSSPropertyAPI3,@object # @_ZTI15CSSPropertyAPI3
	.globl	_ZTI15CSSPropertyAPI3
	.p2align	4
_ZTI15CSSPropertyAPI3:
	.quad	_ZTVN10__cxxabiv120__si_class_type_infoE+16
	.quad	_ZTS15CSSPropertyAPI3
	.quad	_ZTI14CSSPropertyAPI
	.size	_ZTI15CSSPropertyAPI3, 24

	.type	_ZTV15CSSPropertyAPI4,@object # @_ZTV15CSSPropertyAPI4
	.globl	_ZTV15CSSPropertyAPI4
	.p2align	3
_ZTV15CSSPropertyAPI4:
	.quad	0
	.quad	_ZTI15CSSPropertyAPI4
	.quad	_ZNK15CSSPropertyAPI45parseEv
	.quad	_ZNK15CSSPropertyAPI45otherEv
	.size	_ZTV15CSSPropertyAPI4, 32

	.type	_ZTS15CSSPropertyAPI4,@object # @_ZTS15CSSPropertyAPI4
	.globl	_ZTS15CSSPropertyAPI4
	.p2align	4
_ZTS15CSSPropertyAPI4:
	.asciz	"15CSSPropertyAPI4"
	.size	_ZTS15CSSPropertyAPI4, 18

	.type	_ZTI15CSSPropertyAPI4,@object # @_ZTI15CSSPropertyAPI4
	.globl	_ZTI15CSSPropertyAPI4
	.p2align	4
_ZTI15CSSPropertyAPI4:
	.quad	_ZTVN10__cxxabiv120__si_class_type_infoE+16
	.quad	_ZTS15CSSPropertyAPI4
	.quad	_ZTI14CSSPropertyAPI
	.size	_ZTI15CSSPropertyAPI4, 24

	.type	_ZTV15CSSPropertyAPI5,@object # @_ZTV15CSSPropertyAPI5
	.globl	_ZTV15CSSPropertyAPI5
	.p2align	3
_ZTV15CSSPropertyAPI5:
	.quad	0
	.quad	_ZTI15CSSPropertyAPI5
	.quad	_ZNK15CSSPropertyAPI55parseEv
	.quad	_ZNK15CSSPropertyAPI55otherEv
	.size	_ZTV15CSSPropertyAPI5, 32

	.type	_ZTS15CSSPropertyAPI5,@object # @_ZTS15CSSPropertyAPI5
	.globl	_ZTS15CSSPropertyAPI5
	.p2align	4
_ZTS15CSSPropertyAPI5:
	.asciz	"15CSSPropertyAPI5"
	.size	_ZTS15CSSPropertyAPI5, 18

	.type	_ZTI15CSSPropertyAPI5,@object # @_ZTI15CSSPropertyAPI5
	.globl	_ZTI15CSSPropertyAPI5
	.p2align	4
_ZTI15CSSPropertyAPI5:
	.quad	_ZTVN10__cxxabiv120__si_class_type_infoE+16
	.quad	_ZTS15CSSPropertyAPI5
	.quad	_ZTI14CSSPropertyAPI
	.size	_ZTI15CSSPropertyAPI5, 24

	.type	_ZTV15CSSPropertyAPI6,@object # @_ZTV15CSSPropertyAPI6
	.globl	_ZTV15CSSPropertyAPI6
	.p2align	3
_ZTV15CSSPropertyAPI6:
	.quad	0
	.quad	_ZTI15CSSPropertyAPI6
	.quad	_ZNK15CSSPropertyAPI65parseEv
	.quad	_ZNK15CSSPropertyAPI65otherEv
	.size	_ZTV15CSSPropertyAPI6, 32

	.type	_ZTS15CSSPropertyAPI6,@object # @_ZTS15CSSPropertyAPI6
	.globl	_ZTS15CSSPropertyAPI6
	.p2align	4
_ZTS15CSSPropertyAPI6:
	.asciz	"15CSSPropertyAPI6"
	.size	_ZTS15CSSPropertyAPI6, 18

	.type	_ZTI15CSSPropertyAPI6,@object # @_ZTI15CSSPropertyAPI6
	.globl	_ZTI15CSSPropertyAPI6
	.p2align	4
_ZTI15CSSPropertyAPI6:
	.quad	_ZTVN10__cxxabiv120__si_class_type_infoE+16
	.quad	_ZTS15CSSPropertyAPI6
	.quad	_ZTI14CSSPropertyAPI
	.size	_ZTI15CSSPropertyAPI6, 24

	.type	_ZTV15CSSPropertyAPI7,@object # @_ZTV15CSSPropertyAPI7
	.globl	_ZTV15CSSPropertyAPI7
	.p2align	3
_ZTV15CSSPropertyAPI7:
	.quad	0
	.quad	_ZTI15CSSPropertyAPI7
	.quad	_ZNK15CSSPropertyAPI75parseEv
	.quad	_ZNK15CSSPropertyAPI75otherEv
	.size	_ZTV15CSSPropertyAPI7, 32

	.type	_ZTS15CSSPropertyAPI7,@object # @_ZTS15CSSPropertyAPI7
	.globl	_ZTS15CSSPropertyAPI7
	.p2align	4
_ZTS15CSSPropertyAPI7:
	.asciz	"15CSSPropertyAPI7"
	.size	_ZTS15CSSPropertyAPI7, 18

	.type	_ZTI15CSSPropertyAPI7,@object # @_ZTI15CSSPropertyAPI7
	.globl	_ZTI15CSSPropertyAPI7
	.p2align	4
_ZTI15CSSPropertyAPI7:
	.quad	_ZTVN10__cxxabiv120__si_class_type_infoE+16
	.quad	_ZTS15CSSPropertyAPI7
	.quad	_ZTI14CSSPropertyAPI
	.size	_ZTI15CSSPropertyAPI7, 24

	.type	_ZTV15CSSPropertyAPI8,@object # @_ZTV15CSSPropertyAPI8
	.globl	_ZTV15CSSPropertyAPI8
	.p2align	3
_ZTV15CSSPropertyAPI8:
	.quad	0
	.quad	_ZTI15CSSPropertyAPI8
	.quad	_ZNK15CSSPropertyAPI85parseEv
	.quad	_ZNK15CSSPropertyAPI85otherEv
	.size	_ZTV15CSSPropertyAPI8, 32

	.type	_ZTS15CSSPropertyAPI8,@object # @_ZTS15CSSPropertyAPI8
	.globl	_ZTS15CSSPropertyAPI8
	.p2align	4
_ZTS15CSSPropertyAPI8:
	.asciz	"15CSSPropertyAPI8"
	.size	_ZTS15CSSPropertyAPI8, 18

	.type	_ZTI15CSSPropertyAPI8,@object # @_ZTI15CSSPropertyAPI8
	.globl	_ZTI15CSSPropertyAPI8
	.p2align	4
_ZTI15CSSPropertyAPI8:
	.quad	_ZTVN10__cxxabiv120__si_class_type_infoE+16
	.quad	_ZTS15CSSPropertyAPI8
	.quad	_ZTI14CSSPropertyAPI
	.size	_ZTI15CSSPropertyAPI8, 24

	.type	_ZTV15CSSPropertyAPI9,@object # @_ZTV15CSSPropertyAPI9
	.globl	_ZTV15CSSPropertyAPI9
	.p2align	3
_ZTV15CSSPropertyAPI9:
	.quad	0
	.quad	_ZTI15CSSPropertyAPI9
	.quad	_ZNK15CSSPropertyAPI95parseEv
	.quad	_ZNK15CSSPropertyAPI95otherEv
	.size	_ZTV15CSSPropertyAPI9, 32

	.type	_ZTS15CSSPropertyAPI9,@object # @_ZTS15CSSPropertyAPI9
	.globl	_ZTS15CSSPropertyAPI9
	.p2align	4
_ZTS15CSSPropertyAPI9:
	.asciz	"15CSSPropertyAPI9"
	.size	_ZTS15CSSPropertyAPI9, 18

	.type	_ZTI15CSSPropertyAPI9,@object # @_ZTI15CSSPropertyAPI9
	.globl	_ZTI15CSSPropertyAPI9
	.p2align	4
_ZTI15CSSPropertyAPI9:
	.quad	_ZTVN10__cxxabiv120__si_class_type_infoE+16
	.quad	_ZTS15CSSPropertyAPI9
	.quad	_ZTI14CSSPropertyAPI
	.size	_ZTI15CSSPropertyAPI9, 24

	.type	_ZTV16CSSPropertyAPI10,@object # @_ZTV16CSSPropertyAPI10
	.globl	_ZTV16CSSPropertyAPI10
	.p2align	3
_ZTV16CSSPropertyAPI10:
	.quad	0
	.quad	_ZTI16CSSPropertyAPI10
	.quad	_ZNK16CSSPropertyAPI105parseEv
	.quad	_ZNK16CSSPropertyAPI105otherEv
	.size	_ZTV16CSSPropertyAPI10, 32

	.type	_ZTS16CSSPropertyAPI10,@object # @_ZTS16CSSPropertyAPI10
	.globl	_ZTS16CSSPropertyAPI10
	.p2align	4
_ZTS16CSSPropertyAPI10:
	.asciz	"16CSSPropertyAPI10"
	.size	_ZTS16CSSPropertyAPI10, 19

	.type	_ZTI16CSSPropertyAPI10,@object # @_ZTI16CSSPropertyAPI10
	.globl	_ZTI16CSSPropertyAPI10
	.p2align	4
_ZTI16CSSPropertyAPI10:
	.quad	_ZTVN10__cxxabiv120__si_class_type_infoE+16
	.quad	_ZTS16CSSPropertyAPI10
	.quad	_ZTI14CSSPropertyAPI
	.size	_ZTI16CSSPropertyAPI10, 24

	.type	_ZL5api_0,@object       # @_ZL5api_0
	.p2align	3
_ZL5api_0:
	.quad	_ZTV14CSSPropertyAPI+16
	.size	_ZL5api_0, 8

	.type	_ZL5api_6,@object       # @_ZL5api_6
	.p2align	3
_ZL5api_6:
	.quad	_ZTV15CSSPropertyAPI6+16
	.size	_ZL5api_6, 8

	.type	_ZL5api_9,@object       # @_ZL5api_9
	.p2align	3
_ZL5api_9:
	.quad	_ZTV15CSSPropertyAPI9+16
	.size	_ZL5api_9, 8

	.type	_ZL5api_5,@object       # @_ZL5api_5
	.p2align	3
_ZL5api_5:
	.quad	_ZTV15CSSPropertyAPI5+16
	.size	_ZL5api_5, 8

	.type	_ZL5api_1,@object       # @_ZL5api_1
	.p2align	3
_ZL5api_1:
	.quad	_ZTV15CSSPropertyAPI1+16
	.size	_ZL5api_1, 8

	.type	_ZL5api_3,@object       # @_ZL5api_3
	.p2align	3
_ZL5api_3:
	.quad	_ZTV15CSSPropertyAPI3+16
	.size	_ZL5api_3, 8

	.type	_ZL5api_4,@object       # @_ZL5api_4
	.p2align	3
_ZL5api_4:
	.quad	_ZTV15CSSPropertyAPI4+16
	.size	_ZL5api_4, 8

	.type	_ZL5api_7,@object       # @_ZL5api_7
	.p2align	3
_ZL5api_7:
	.quad	_ZTV15CSSPropertyAPI7+16
	.size	_ZL5api_7, 8

	.type	_ZL5api_8,@object       # @_ZL5api_8
	.p2align	3
_ZL5api_8:
	.quad	_ZTV15CSSPropertyAPI8+16
	.size	_ZL5api_8, 8

	.type	_ZL5api_2,@object       # @_ZL5api_2
	.p2align	3
_ZL5api_2:
	.quad	_ZTV15CSSPropertyAPI2+16
	.size	_ZL5api_2, 8

	.type	_ZL6api_10,@object      # @_ZL6api_10
	.p2align	3
_ZL6api_10:
	.quad	_ZTV16CSSPropertyAPI10+16
	.size	_ZL6api_10, 8


	.ident	"clang version 5.0.0 (trunk 307486)"
	.section	".note.GNU-stack","",@progbits
