	.file	"generated/table-split-10-classes-test/table-split-10-classes-test.cpp"
	.text
	.globl	_ZNK14CSSPropertyAPI5parseEv
	.align	16, 0x90
	.type	_ZNK14CSSPropertyAPI5parseEv,@function
_ZNK14CSSPropertyAPI5parseEv:           # @_ZNK14CSSPropertyAPI5parseEv
	.cfi_startproc
# BB#0:
	incl	increment_me(%rip)
	ret
.Ltmp0:
	.size	_ZNK14CSSPropertyAPI5parseEv, .Ltmp0-_ZNK14CSSPropertyAPI5parseEv
	.cfi_endproc

	.globl	_ZNK15CSSPropertyAPI15parseEv
	.align	16, 0x90
	.type	_ZNK15CSSPropertyAPI15parseEv,@function
_ZNK15CSSPropertyAPI15parseEv:          # @_ZNK15CSSPropertyAPI15parseEv
	.cfi_startproc
# BB#0:
	incl	increment_me(%rip)
	ret
.Ltmp1:
	.size	_ZNK15CSSPropertyAPI15parseEv, .Ltmp1-_ZNK15CSSPropertyAPI15parseEv
	.cfi_endproc

	.globl	_ZNK15CSSPropertyAPI25parseEv
	.align	16, 0x90
	.type	_ZNK15CSSPropertyAPI25parseEv,@function
_ZNK15CSSPropertyAPI25parseEv:          # @_ZNK15CSSPropertyAPI25parseEv
	.cfi_startproc
# BB#0:
	addl	$2, increment_me(%rip)
	ret
.Ltmp2:
	.size	_ZNK15CSSPropertyAPI25parseEv, .Ltmp2-_ZNK15CSSPropertyAPI25parseEv
	.cfi_endproc

	.globl	_ZNK15CSSPropertyAPI35parseEv
	.align	16, 0x90
	.type	_ZNK15CSSPropertyAPI35parseEv,@function
_ZNK15CSSPropertyAPI35parseEv:          # @_ZNK15CSSPropertyAPI35parseEv
	.cfi_startproc
# BB#0:
	addl	$3, increment_me(%rip)
	ret
.Ltmp3:
	.size	_ZNK15CSSPropertyAPI35parseEv, .Ltmp3-_ZNK15CSSPropertyAPI35parseEv
	.cfi_endproc

	.globl	_ZNK15CSSPropertyAPI45parseEv
	.align	16, 0x90
	.type	_ZNK15CSSPropertyAPI45parseEv,@function
_ZNK15CSSPropertyAPI45parseEv:          # @_ZNK15CSSPropertyAPI45parseEv
	.cfi_startproc
# BB#0:
	addl	$4, increment_me(%rip)
	ret
.Ltmp4:
	.size	_ZNK15CSSPropertyAPI45parseEv, .Ltmp4-_ZNK15CSSPropertyAPI45parseEv
	.cfi_endproc

	.globl	_ZNK15CSSPropertyAPI55parseEv
	.align	16, 0x90
	.type	_ZNK15CSSPropertyAPI55parseEv,@function
_ZNK15CSSPropertyAPI55parseEv:          # @_ZNK15CSSPropertyAPI55parseEv
	.cfi_startproc
# BB#0:
	addl	$5, increment_me(%rip)
	ret
.Ltmp5:
	.size	_ZNK15CSSPropertyAPI55parseEv, .Ltmp5-_ZNK15CSSPropertyAPI55parseEv
	.cfi_endproc

	.globl	_ZNK15CSSPropertyAPI65parseEv
	.align	16, 0x90
	.type	_ZNK15CSSPropertyAPI65parseEv,@function
_ZNK15CSSPropertyAPI65parseEv:          # @_ZNK15CSSPropertyAPI65parseEv
	.cfi_startproc
# BB#0:
	addl	$6, increment_me(%rip)
	ret
.Ltmp6:
	.size	_ZNK15CSSPropertyAPI65parseEv, .Ltmp6-_ZNK15CSSPropertyAPI65parseEv
	.cfi_endproc

	.globl	_ZNK15CSSPropertyAPI75parseEv
	.align	16, 0x90
	.type	_ZNK15CSSPropertyAPI75parseEv,@function
_ZNK15CSSPropertyAPI75parseEv:          # @_ZNK15CSSPropertyAPI75parseEv
	.cfi_startproc
# BB#0:
	addl	$7, increment_me(%rip)
	ret
.Ltmp7:
	.size	_ZNK15CSSPropertyAPI75parseEv, .Ltmp7-_ZNK15CSSPropertyAPI75parseEv
	.cfi_endproc

	.globl	_ZNK15CSSPropertyAPI85parseEv
	.align	16, 0x90
	.type	_ZNK15CSSPropertyAPI85parseEv,@function
_ZNK15CSSPropertyAPI85parseEv:          # @_ZNK15CSSPropertyAPI85parseEv
	.cfi_startproc
# BB#0:
	addl	$8, increment_me(%rip)
	ret
.Ltmp8:
	.size	_ZNK15CSSPropertyAPI85parseEv, .Ltmp8-_ZNK15CSSPropertyAPI85parseEv
	.cfi_endproc

	.globl	_ZNK15CSSPropertyAPI95parseEv
	.align	16, 0x90
	.type	_ZNK15CSSPropertyAPI95parseEv,@function
_ZNK15CSSPropertyAPI95parseEv:          # @_ZNK15CSSPropertyAPI95parseEv
	.cfi_startproc
# BB#0:
	addl	$9, increment_me(%rip)
	ret
.Ltmp9:
	.size	_ZNK15CSSPropertyAPI95parseEv, .Ltmp9-_ZNK15CSSPropertyAPI95parseEv
	.cfi_endproc

	.globl	_ZNK16CSSPropertyAPI105parseEv
	.align	16, 0x90
	.type	_ZNK16CSSPropertyAPI105parseEv,@function
_ZNK16CSSPropertyAPI105parseEv:         # @_ZNK16CSSPropertyAPI105parseEv
	.cfi_startproc
# BB#0:
	addl	$10, increment_me(%rip)
	ret
.Ltmp10:
	.size	_ZNK16CSSPropertyAPI105parseEv, .Ltmp10-_ZNK16CSSPropertyAPI105parseEv
	.cfi_endproc

	.globl	_Z14GetPropertyAPIi
	.align	16, 0x90
	.type	_Z14GetPropertyAPIi,@function
_Z14GetPropertyAPIi:                    # @_Z14GetPropertyAPIi
	.cfi_startproc
# BB#0:
	movslq	%edi, %rax
	movq	_ZL13property_apis(,%rax,8), %rax
	ret
.Ltmp11:
	.size	_Z14GetPropertyAPIi, .Ltmp11-_Z14GetPropertyAPIi
	.cfi_endproc

	.type	increment_me,@object    # @increment_me
	.bss
	.globl	increment_me
	.align	4
increment_me:
	.long	0                       # 0x0
	.size	increment_me, 4

	.type	_ZTV14CSSPropertyAPI,@object # @_ZTV14CSSPropertyAPI
	.section	.rodata,"a",@progbits
	.globl	_ZTV14CSSPropertyAPI
	.align	16
_ZTV14CSSPropertyAPI:
	.quad	0
	.quad	_ZTI14CSSPropertyAPI
	.quad	_ZNK14CSSPropertyAPI5parseEv
	.size	_ZTV14CSSPropertyAPI, 24

	.type	_ZL5api_0,@object       # @_ZL5api_0
	.align	8
_ZL5api_0:
	.quad	_ZTV14CSSPropertyAPI+16
	.size	_ZL5api_0, 8

	.type	_ZTV15CSSPropertyAPI1,@object # @_ZTV15CSSPropertyAPI1
	.globl	_ZTV15CSSPropertyAPI1
	.align	16
_ZTV15CSSPropertyAPI1:
	.quad	0
	.quad	_ZTI15CSSPropertyAPI1
	.quad	_ZNK15CSSPropertyAPI15parseEv
	.size	_ZTV15CSSPropertyAPI1, 24

	.type	_ZL5api_1,@object       # @_ZL5api_1
	.align	8
_ZL5api_1:
	.quad	_ZTV15CSSPropertyAPI1+16
	.size	_ZL5api_1, 8

	.type	_ZTV15CSSPropertyAPI2,@object # @_ZTV15CSSPropertyAPI2
	.globl	_ZTV15CSSPropertyAPI2
	.align	16
_ZTV15CSSPropertyAPI2:
	.quad	0
	.quad	_ZTI15CSSPropertyAPI2
	.quad	_ZNK15CSSPropertyAPI25parseEv
	.size	_ZTV15CSSPropertyAPI2, 24

	.type	_ZL5api_2,@object       # @_ZL5api_2
	.align	8
_ZL5api_2:
	.quad	_ZTV15CSSPropertyAPI2+16
	.size	_ZL5api_2, 8

	.type	_ZTV15CSSPropertyAPI3,@object # @_ZTV15CSSPropertyAPI3
	.globl	_ZTV15CSSPropertyAPI3
	.align	16
_ZTV15CSSPropertyAPI3:
	.quad	0
	.quad	_ZTI15CSSPropertyAPI3
	.quad	_ZNK15CSSPropertyAPI35parseEv
	.size	_ZTV15CSSPropertyAPI3, 24

	.type	_ZL5api_3,@object       # @_ZL5api_3
	.align	8
_ZL5api_3:
	.quad	_ZTV15CSSPropertyAPI3+16
	.size	_ZL5api_3, 8

	.type	_ZTV15CSSPropertyAPI4,@object # @_ZTV15CSSPropertyAPI4
	.globl	_ZTV15CSSPropertyAPI4
	.align	16
_ZTV15CSSPropertyAPI4:
	.quad	0
	.quad	_ZTI15CSSPropertyAPI4
	.quad	_ZNK15CSSPropertyAPI45parseEv
	.size	_ZTV15CSSPropertyAPI4, 24

	.type	_ZL5api_4,@object       # @_ZL5api_4
	.align	8
_ZL5api_4:
	.quad	_ZTV15CSSPropertyAPI4+16
	.size	_ZL5api_4, 8

	.type	_ZTV15CSSPropertyAPI5,@object # @_ZTV15CSSPropertyAPI5
	.globl	_ZTV15CSSPropertyAPI5
	.align	16
_ZTV15CSSPropertyAPI5:
	.quad	0
	.quad	_ZTI15CSSPropertyAPI5
	.quad	_ZNK15CSSPropertyAPI55parseEv
	.size	_ZTV15CSSPropertyAPI5, 24

	.type	_ZL5api_5,@object       # @_ZL5api_5
	.align	8
_ZL5api_5:
	.quad	_ZTV15CSSPropertyAPI5+16
	.size	_ZL5api_5, 8

	.type	_ZTV15CSSPropertyAPI6,@object # @_ZTV15CSSPropertyAPI6
	.globl	_ZTV15CSSPropertyAPI6
	.align	16
_ZTV15CSSPropertyAPI6:
	.quad	0
	.quad	_ZTI15CSSPropertyAPI6
	.quad	_ZNK15CSSPropertyAPI65parseEv
	.size	_ZTV15CSSPropertyAPI6, 24

	.type	_ZL5api_6,@object       # @_ZL5api_6
	.align	8
_ZL5api_6:
	.quad	_ZTV15CSSPropertyAPI6+16
	.size	_ZL5api_6, 8

	.type	_ZTV15CSSPropertyAPI7,@object # @_ZTV15CSSPropertyAPI7
	.globl	_ZTV15CSSPropertyAPI7
	.align	16
_ZTV15CSSPropertyAPI7:
	.quad	0
	.quad	_ZTI15CSSPropertyAPI7
	.quad	_ZNK15CSSPropertyAPI75parseEv
	.size	_ZTV15CSSPropertyAPI7, 24

	.type	_ZL5api_7,@object       # @_ZL5api_7
	.align	8
_ZL5api_7:
	.quad	_ZTV15CSSPropertyAPI7+16
	.size	_ZL5api_7, 8

	.type	_ZTV15CSSPropertyAPI8,@object # @_ZTV15CSSPropertyAPI8
	.globl	_ZTV15CSSPropertyAPI8
	.align	16
_ZTV15CSSPropertyAPI8:
	.quad	0
	.quad	_ZTI15CSSPropertyAPI8
	.quad	_ZNK15CSSPropertyAPI85parseEv
	.size	_ZTV15CSSPropertyAPI8, 24

	.type	_ZL5api_8,@object       # @_ZL5api_8
	.align	8
_ZL5api_8:
	.quad	_ZTV15CSSPropertyAPI8+16
	.size	_ZL5api_8, 8

	.type	_ZTV15CSSPropertyAPI9,@object # @_ZTV15CSSPropertyAPI9
	.globl	_ZTV15CSSPropertyAPI9
	.align	16
_ZTV15CSSPropertyAPI9:
	.quad	0
	.quad	_ZTI15CSSPropertyAPI9
	.quad	_ZNK15CSSPropertyAPI95parseEv
	.size	_ZTV15CSSPropertyAPI9, 24

	.type	_ZL5api_9,@object       # @_ZL5api_9
	.align	8
_ZL5api_9:
	.quad	_ZTV15CSSPropertyAPI9+16
	.size	_ZL5api_9, 8

	.type	_ZTV16CSSPropertyAPI10,@object # @_ZTV16CSSPropertyAPI10
	.globl	_ZTV16CSSPropertyAPI10
	.align	16
_ZTV16CSSPropertyAPI10:
	.quad	0
	.quad	_ZTI16CSSPropertyAPI10
	.quad	_ZNK16CSSPropertyAPI105parseEv
	.size	_ZTV16CSSPropertyAPI10, 24

	.type	_ZL6api_10,@object      # @_ZL6api_10
	.align	8
_ZL6api_10:
	.quad	_ZTV16CSSPropertyAPI10+16
	.size	_ZL6api_10, 8

	.type	_ZL13property_apis,@object # @_ZL13property_apis
	.align	16
_ZL13property_apis:
	.quad	_ZL5api_6
	.quad	_ZL5api_0
	.quad	_ZL5api_9
	.quad	_ZL5api_0
	.quad	_ZL5api_0
	.quad	_ZL5api_3
	.quad	_ZL5api_7
	.quad	_ZL5api_8
	.quad	_ZL5api_0
	.quad	_ZL5api_0
	.quad	_ZL5api_0
	.quad	_ZL6api_10
	.quad	_ZL5api_0
	.quad	_ZL5api_0
	.quad	_ZL5api_2
	.quad	_ZL5api_5
	.quad	_ZL5api_0
	.quad	_ZL5api_0
	.quad	_ZL5api_1
	.quad	_ZL5api_4
	.size	_ZL13property_apis, 160

	.type	_ZTS14CSSPropertyAPI,@object # @_ZTS14CSSPropertyAPI
	.globl	_ZTS14CSSPropertyAPI
	.align	16
_ZTS14CSSPropertyAPI:
	.asciz	"14CSSPropertyAPI"
	.size	_ZTS14CSSPropertyAPI, 17

	.type	_ZTI14CSSPropertyAPI,@object # @_ZTI14CSSPropertyAPI
	.globl	_ZTI14CSSPropertyAPI
	.align	8
_ZTI14CSSPropertyAPI:
	.quad	_ZTVN10__cxxabiv117__class_type_infoE+16
	.quad	_ZTS14CSSPropertyAPI
	.size	_ZTI14CSSPropertyAPI, 16

	.type	_ZTS15CSSPropertyAPI1,@object # @_ZTS15CSSPropertyAPI1
	.globl	_ZTS15CSSPropertyAPI1
	.align	16
_ZTS15CSSPropertyAPI1:
	.asciz	"15CSSPropertyAPI1"
	.size	_ZTS15CSSPropertyAPI1, 18

	.type	_ZTI15CSSPropertyAPI1,@object # @_ZTI15CSSPropertyAPI1
	.globl	_ZTI15CSSPropertyAPI1
	.align	16
_ZTI15CSSPropertyAPI1:
	.quad	_ZTVN10__cxxabiv120__si_class_type_infoE+16
	.quad	_ZTS15CSSPropertyAPI1
	.quad	_ZTI14CSSPropertyAPI
	.size	_ZTI15CSSPropertyAPI1, 24

	.type	_ZTS15CSSPropertyAPI2,@object # @_ZTS15CSSPropertyAPI2
	.globl	_ZTS15CSSPropertyAPI2
	.align	16
_ZTS15CSSPropertyAPI2:
	.asciz	"15CSSPropertyAPI2"
	.size	_ZTS15CSSPropertyAPI2, 18

	.type	_ZTI15CSSPropertyAPI2,@object # @_ZTI15CSSPropertyAPI2
	.globl	_ZTI15CSSPropertyAPI2
	.align	16
_ZTI15CSSPropertyAPI2:
	.quad	_ZTVN10__cxxabiv120__si_class_type_infoE+16
	.quad	_ZTS15CSSPropertyAPI2
	.quad	_ZTI14CSSPropertyAPI
	.size	_ZTI15CSSPropertyAPI2, 24

	.type	_ZTS15CSSPropertyAPI3,@object # @_ZTS15CSSPropertyAPI3
	.globl	_ZTS15CSSPropertyAPI3
	.align	16
_ZTS15CSSPropertyAPI3:
	.asciz	"15CSSPropertyAPI3"
	.size	_ZTS15CSSPropertyAPI3, 18

	.type	_ZTI15CSSPropertyAPI3,@object # @_ZTI15CSSPropertyAPI3
	.globl	_ZTI15CSSPropertyAPI3
	.align	16
_ZTI15CSSPropertyAPI3:
	.quad	_ZTVN10__cxxabiv120__si_class_type_infoE+16
	.quad	_ZTS15CSSPropertyAPI3
	.quad	_ZTI14CSSPropertyAPI
	.size	_ZTI15CSSPropertyAPI3, 24

	.type	_ZTS15CSSPropertyAPI4,@object # @_ZTS15CSSPropertyAPI4
	.globl	_ZTS15CSSPropertyAPI4
	.align	16
_ZTS15CSSPropertyAPI4:
	.asciz	"15CSSPropertyAPI4"
	.size	_ZTS15CSSPropertyAPI4, 18

	.type	_ZTI15CSSPropertyAPI4,@object # @_ZTI15CSSPropertyAPI4
	.globl	_ZTI15CSSPropertyAPI4
	.align	16
_ZTI15CSSPropertyAPI4:
	.quad	_ZTVN10__cxxabiv120__si_class_type_infoE+16
	.quad	_ZTS15CSSPropertyAPI4
	.quad	_ZTI14CSSPropertyAPI
	.size	_ZTI15CSSPropertyAPI4, 24

	.type	_ZTS15CSSPropertyAPI5,@object # @_ZTS15CSSPropertyAPI5
	.globl	_ZTS15CSSPropertyAPI5
	.align	16
_ZTS15CSSPropertyAPI5:
	.asciz	"15CSSPropertyAPI5"
	.size	_ZTS15CSSPropertyAPI5, 18

	.type	_ZTI15CSSPropertyAPI5,@object # @_ZTI15CSSPropertyAPI5
	.globl	_ZTI15CSSPropertyAPI5
	.align	16
_ZTI15CSSPropertyAPI5:
	.quad	_ZTVN10__cxxabiv120__si_class_type_infoE+16
	.quad	_ZTS15CSSPropertyAPI5
	.quad	_ZTI14CSSPropertyAPI
	.size	_ZTI15CSSPropertyAPI5, 24

	.type	_ZTS15CSSPropertyAPI6,@object # @_ZTS15CSSPropertyAPI6
	.globl	_ZTS15CSSPropertyAPI6
	.align	16
_ZTS15CSSPropertyAPI6:
	.asciz	"15CSSPropertyAPI6"
	.size	_ZTS15CSSPropertyAPI6, 18

	.type	_ZTI15CSSPropertyAPI6,@object # @_ZTI15CSSPropertyAPI6
	.globl	_ZTI15CSSPropertyAPI6
	.align	16
_ZTI15CSSPropertyAPI6:
	.quad	_ZTVN10__cxxabiv120__si_class_type_infoE+16
	.quad	_ZTS15CSSPropertyAPI6
	.quad	_ZTI14CSSPropertyAPI
	.size	_ZTI15CSSPropertyAPI6, 24

	.type	_ZTS15CSSPropertyAPI7,@object # @_ZTS15CSSPropertyAPI7
	.globl	_ZTS15CSSPropertyAPI7
	.align	16
_ZTS15CSSPropertyAPI7:
	.asciz	"15CSSPropertyAPI7"
	.size	_ZTS15CSSPropertyAPI7, 18

	.type	_ZTI15CSSPropertyAPI7,@object # @_ZTI15CSSPropertyAPI7
	.globl	_ZTI15CSSPropertyAPI7
	.align	16
_ZTI15CSSPropertyAPI7:
	.quad	_ZTVN10__cxxabiv120__si_class_type_infoE+16
	.quad	_ZTS15CSSPropertyAPI7
	.quad	_ZTI14CSSPropertyAPI
	.size	_ZTI15CSSPropertyAPI7, 24

	.type	_ZTS15CSSPropertyAPI8,@object # @_ZTS15CSSPropertyAPI8
	.globl	_ZTS15CSSPropertyAPI8
	.align	16
_ZTS15CSSPropertyAPI8:
	.asciz	"15CSSPropertyAPI8"
	.size	_ZTS15CSSPropertyAPI8, 18

	.type	_ZTI15CSSPropertyAPI8,@object # @_ZTI15CSSPropertyAPI8
	.globl	_ZTI15CSSPropertyAPI8
	.align	16
_ZTI15CSSPropertyAPI8:
	.quad	_ZTVN10__cxxabiv120__si_class_type_infoE+16
	.quad	_ZTS15CSSPropertyAPI8
	.quad	_ZTI14CSSPropertyAPI
	.size	_ZTI15CSSPropertyAPI8, 24

	.type	_ZTS15CSSPropertyAPI9,@object # @_ZTS15CSSPropertyAPI9
	.globl	_ZTS15CSSPropertyAPI9
	.align	16
_ZTS15CSSPropertyAPI9:
	.asciz	"15CSSPropertyAPI9"
	.size	_ZTS15CSSPropertyAPI9, 18

	.type	_ZTI15CSSPropertyAPI9,@object # @_ZTI15CSSPropertyAPI9
	.globl	_ZTI15CSSPropertyAPI9
	.align	16
_ZTI15CSSPropertyAPI9:
	.quad	_ZTVN10__cxxabiv120__si_class_type_infoE+16
	.quad	_ZTS15CSSPropertyAPI9
	.quad	_ZTI14CSSPropertyAPI
	.size	_ZTI15CSSPropertyAPI9, 24

	.type	_ZTS16CSSPropertyAPI10,@object # @_ZTS16CSSPropertyAPI10
	.globl	_ZTS16CSSPropertyAPI10
	.align	16
_ZTS16CSSPropertyAPI10:
	.asciz	"16CSSPropertyAPI10"
	.size	_ZTS16CSSPropertyAPI10, 19

	.type	_ZTI16CSSPropertyAPI10,@object # @_ZTI16CSSPropertyAPI10
	.globl	_ZTI16CSSPropertyAPI10
	.align	16
_ZTI16CSSPropertyAPI10:
	.quad	_ZTVN10__cxxabiv120__si_class_type_infoE+16
	.quad	_ZTS16CSSPropertyAPI10
	.quad	_ZTI14CSSPropertyAPI
	.size	_ZTI16CSSPropertyAPI10, 24


	.ident	"Ubuntu clang version 3.4-1ubuntu3 (tags/RELEASE_34/final) (based on LLVM 3.4)"
	.section	".note.GNU-stack","",@progbits
