	.file	"virtual-split-10-classes-test.cpp"
	.text
	.align 2
	.p2align 4,,15
	.globl	_ZNK14CSSPropertyAPI5parseEv
	.type	_ZNK14CSSPropertyAPI5parseEv, @function
_ZNK14CSSPropertyAPI5parseEv:
.LFB0:
	.cfi_startproc
	movl	increment_me(%rip), %eax
	movl	increment_me(%rip), %edx
	addl	%edx, %eax
	movl	%eax, increment_me(%rip)
	ret
	.cfi_endproc
.LFE0:
	.size	_ZNK14CSSPropertyAPI5parseEv, .-_ZNK14CSSPropertyAPI5parseEv
	.align 2
	.p2align 4,,15
	.globl	_ZNK15CSSPropertyAPI15parseEv
	.type	_ZNK15CSSPropertyAPI15parseEv, @function
_ZNK15CSSPropertyAPI15parseEv:
.LFB1:
	.cfi_startproc
	movl	increment_me(%rip), %eax
	addl	$1, %eax
	movl	%eax, increment_me(%rip)
	ret
	.cfi_endproc
.LFE1:
	.size	_ZNK15CSSPropertyAPI15parseEv, .-_ZNK15CSSPropertyAPI15parseEv
	.align 2
	.p2align 4,,15
	.globl	_ZNK15CSSPropertyAPI25parseEv
	.type	_ZNK15CSSPropertyAPI25parseEv, @function
_ZNK15CSSPropertyAPI25parseEv:
.LFB2:
	.cfi_startproc
	movl	increment_me(%rip), %eax
	addl	$2, %eax
	movl	%eax, increment_me(%rip)
	ret
	.cfi_endproc
.LFE2:
	.size	_ZNK15CSSPropertyAPI25parseEv, .-_ZNK15CSSPropertyAPI25parseEv
	.align 2
	.p2align 4,,15
	.globl	_ZNK15CSSPropertyAPI35parseEv
	.type	_ZNK15CSSPropertyAPI35parseEv, @function
_ZNK15CSSPropertyAPI35parseEv:
.LFB3:
	.cfi_startproc
	movl	increment_me(%rip), %eax
	addl	$3, %eax
	movl	%eax, increment_me(%rip)
	ret
	.cfi_endproc
.LFE3:
	.size	_ZNK15CSSPropertyAPI35parseEv, .-_ZNK15CSSPropertyAPI35parseEv
	.align 2
	.p2align 4,,15
	.globl	_ZNK15CSSPropertyAPI45parseEv
	.type	_ZNK15CSSPropertyAPI45parseEv, @function
_ZNK15CSSPropertyAPI45parseEv:
.LFB4:
	.cfi_startproc
	movl	increment_me(%rip), %eax
	addl	$4, %eax
	movl	%eax, increment_me(%rip)
	ret
	.cfi_endproc
.LFE4:
	.size	_ZNK15CSSPropertyAPI45parseEv, .-_ZNK15CSSPropertyAPI45parseEv
	.align 2
	.p2align 4,,15
	.globl	_ZNK15CSSPropertyAPI55parseEv
	.type	_ZNK15CSSPropertyAPI55parseEv, @function
_ZNK15CSSPropertyAPI55parseEv:
.LFB5:
	.cfi_startproc
	movl	increment_me(%rip), %eax
	addl	$5, %eax
	movl	%eax, increment_me(%rip)
	ret
	.cfi_endproc
.LFE5:
	.size	_ZNK15CSSPropertyAPI55parseEv, .-_ZNK15CSSPropertyAPI55parseEv
	.align 2
	.p2align 4,,15
	.globl	_ZNK15CSSPropertyAPI65parseEv
	.type	_ZNK15CSSPropertyAPI65parseEv, @function
_ZNK15CSSPropertyAPI65parseEv:
.LFB6:
	.cfi_startproc
	movl	increment_me(%rip), %eax
	addl	$6, %eax
	movl	%eax, increment_me(%rip)
	ret
	.cfi_endproc
.LFE6:
	.size	_ZNK15CSSPropertyAPI65parseEv, .-_ZNK15CSSPropertyAPI65parseEv
	.align 2
	.p2align 4,,15
	.globl	_ZNK15CSSPropertyAPI75parseEv
	.type	_ZNK15CSSPropertyAPI75parseEv, @function
_ZNK15CSSPropertyAPI75parseEv:
.LFB7:
	.cfi_startproc
	movl	increment_me(%rip), %eax
	addl	$7, %eax
	movl	%eax, increment_me(%rip)
	ret
	.cfi_endproc
.LFE7:
	.size	_ZNK15CSSPropertyAPI75parseEv, .-_ZNK15CSSPropertyAPI75parseEv
	.align 2
	.p2align 4,,15
	.globl	_ZNK15CSSPropertyAPI85parseEv
	.type	_ZNK15CSSPropertyAPI85parseEv, @function
_ZNK15CSSPropertyAPI85parseEv:
.LFB8:
	.cfi_startproc
	movl	increment_me(%rip), %eax
	addl	$8, %eax
	movl	%eax, increment_me(%rip)
	ret
	.cfi_endproc
.LFE8:
	.size	_ZNK15CSSPropertyAPI85parseEv, .-_ZNK15CSSPropertyAPI85parseEv
	.align 2
	.p2align 4,,15
	.globl	_ZNK15CSSPropertyAPI95parseEv
	.type	_ZNK15CSSPropertyAPI95parseEv, @function
_ZNK15CSSPropertyAPI95parseEv:
.LFB9:
	.cfi_startproc
	movl	increment_me(%rip), %eax
	addl	$9, %eax
	movl	%eax, increment_me(%rip)
	ret
	.cfi_endproc
.LFE9:
	.size	_ZNK15CSSPropertyAPI95parseEv, .-_ZNK15CSSPropertyAPI95parseEv
	.align 2
	.p2align 4,,15
	.globl	_ZNK16CSSPropertyAPI105parseEv
	.type	_ZNK16CSSPropertyAPI105parseEv, @function
_ZNK16CSSPropertyAPI105parseEv:
.LFB10:
	.cfi_startproc
	movl	increment_me(%rip), %eax
	addl	$10, %eax
	movl	%eax, increment_me(%rip)
	ret
	.cfi_endproc
.LFE10:
	.size	_ZNK16CSSPropertyAPI105parseEv, .-_ZNK16CSSPropertyAPI105parseEv
	.p2align 4,,15
	.globl	_Z14GetPropertyAPIi
	.type	_Z14GetPropertyAPIi, @function
_Z14GetPropertyAPIi:
.LFB11:
	.cfi_startproc
	subl	$1, %edi
	movl	$_ZZ14GetPropertyAPIiE11default_api, %eax
	cmpl	$19, %edi
	ja	.L13
	movq	CSWTCH.34(,%rdi,8), %rax
.L13:
	rep ret
	.cfi_endproc
.LFE11:
	.size	_Z14GetPropertyAPIi, .-_Z14GetPropertyAPIi
	.section	.rodata
	.align 32
	.type	CSWTCH.34, @object
	.size	CSWTCH.34, 160
CSWTCH.34:
	.quad	_ZZ14GetPropertyAPIiE5api_6
	.quad	_ZZ14GetPropertyAPIiE11default_api
	.quad	_ZZ14GetPropertyAPIiE11default_api
	.quad	_ZZ14GetPropertyAPIiE5api_5
	.quad	_ZZ14GetPropertyAPIiE5api_4
	.quad	_ZZ14GetPropertyAPIiE11default_api
	.quad	_ZZ14GetPropertyAPIiE11default_api
	.quad	_ZZ14GetPropertyAPIiE5api_8
	.quad	_ZZ14GetPropertyAPIiE11default_api
	.quad	_ZZ14GetPropertyAPIiE5api_1
	.quad	_ZZ14GetPropertyAPIiE5api_3
	.quad	_ZZ14GetPropertyAPIiE11default_api
	.quad	_ZZ14GetPropertyAPIiE5api_2
	.quad	_ZZ14GetPropertyAPIiE6api_10
	.quad	_ZZ14GetPropertyAPIiE11default_api
	.quad	_ZZ14GetPropertyAPIiE5api_9
	.quad	_ZZ14GetPropertyAPIiE11default_api
	.quad	_ZZ14GetPropertyAPIiE11default_api
	.quad	_ZZ14GetPropertyAPIiE11default_api
	.quad	_ZZ14GetPropertyAPIiE5api_7
	.align 8
	.type	_ZZ14GetPropertyAPIiE5api_7, @object
	.size	_ZZ14GetPropertyAPIiE5api_7, 8
_ZZ14GetPropertyAPIiE5api_7:
	.quad	_ZTV15CSSPropertyAPI7+16
	.align 8
	.type	_ZZ14GetPropertyAPIiE5api_9, @object
	.size	_ZZ14GetPropertyAPIiE5api_9, 8
_ZZ14GetPropertyAPIiE5api_9:
	.quad	_ZTV15CSSPropertyAPI9+16
	.align 8
	.type	_ZZ14GetPropertyAPIiE6api_10, @object
	.size	_ZZ14GetPropertyAPIiE6api_10, 8
_ZZ14GetPropertyAPIiE6api_10:
	.quad	_ZTV16CSSPropertyAPI10+16
	.align 8
	.type	_ZZ14GetPropertyAPIiE5api_2, @object
	.size	_ZZ14GetPropertyAPIiE5api_2, 8
_ZZ14GetPropertyAPIiE5api_2:
	.quad	_ZTV15CSSPropertyAPI2+16
	.align 8
	.type	_ZZ14GetPropertyAPIiE5api_3, @object
	.size	_ZZ14GetPropertyAPIiE5api_3, 8
_ZZ14GetPropertyAPIiE5api_3:
	.quad	_ZTV15CSSPropertyAPI3+16
	.align 8
	.type	_ZZ14GetPropertyAPIiE5api_1, @object
	.size	_ZZ14GetPropertyAPIiE5api_1, 8
_ZZ14GetPropertyAPIiE5api_1:
	.quad	_ZTV15CSSPropertyAPI1+16
	.align 8
	.type	_ZZ14GetPropertyAPIiE5api_8, @object
	.size	_ZZ14GetPropertyAPIiE5api_8, 8
_ZZ14GetPropertyAPIiE5api_8:
	.quad	_ZTV15CSSPropertyAPI8+16
	.align 8
	.type	_ZZ14GetPropertyAPIiE5api_4, @object
	.size	_ZZ14GetPropertyAPIiE5api_4, 8
_ZZ14GetPropertyAPIiE5api_4:
	.quad	_ZTV15CSSPropertyAPI4+16
	.align 8
	.type	_ZZ14GetPropertyAPIiE5api_5, @object
	.size	_ZZ14GetPropertyAPIiE5api_5, 8
_ZZ14GetPropertyAPIiE5api_5:
	.quad	_ZTV15CSSPropertyAPI5+16
	.align 8
	.type	_ZZ14GetPropertyAPIiE11default_api, @object
	.size	_ZZ14GetPropertyAPIiE11default_api, 8
_ZZ14GetPropertyAPIiE11default_api:
	.quad	_ZTV14CSSPropertyAPI+16
	.align 8
	.type	_ZZ14GetPropertyAPIiE5api_6, @object
	.size	_ZZ14GetPropertyAPIiE5api_6, 8
_ZZ14GetPropertyAPIiE5api_6:
	.quad	_ZTV15CSSPropertyAPI6+16
	.weak	_ZTS14CSSPropertyAPI
	.section	.rodata._ZTS14CSSPropertyAPI,"aG",@progbits,_ZTS14CSSPropertyAPI,comdat
	.align 16
	.type	_ZTS14CSSPropertyAPI, @object
	.size	_ZTS14CSSPropertyAPI, 17
_ZTS14CSSPropertyAPI:
	.string	"14CSSPropertyAPI"
	.weak	_ZTI14CSSPropertyAPI
	.section	.rodata._ZTI14CSSPropertyAPI,"aG",@progbits,_ZTI14CSSPropertyAPI,comdat
	.align 16
	.type	_ZTI14CSSPropertyAPI, @object
	.size	_ZTI14CSSPropertyAPI, 16
_ZTI14CSSPropertyAPI:
	.quad	_ZTVN10__cxxabiv117__class_type_infoE+16
	.quad	_ZTS14CSSPropertyAPI
	.weak	_ZTS15CSSPropertyAPI1
	.section	.rodata._ZTS15CSSPropertyAPI1,"aG",@progbits,_ZTS15CSSPropertyAPI1,comdat
	.align 16
	.type	_ZTS15CSSPropertyAPI1, @object
	.size	_ZTS15CSSPropertyAPI1, 18
_ZTS15CSSPropertyAPI1:
	.string	"15CSSPropertyAPI1"
	.weak	_ZTI15CSSPropertyAPI1
	.section	.rodata._ZTI15CSSPropertyAPI1,"aG",@progbits,_ZTI15CSSPropertyAPI1,comdat
	.align 16
	.type	_ZTI15CSSPropertyAPI1, @object
	.size	_ZTI15CSSPropertyAPI1, 24
_ZTI15CSSPropertyAPI1:
	.quad	_ZTVN10__cxxabiv120__si_class_type_infoE+16
	.quad	_ZTS15CSSPropertyAPI1
	.quad	_ZTI14CSSPropertyAPI
	.weak	_ZTS15CSSPropertyAPI2
	.section	.rodata._ZTS15CSSPropertyAPI2,"aG",@progbits,_ZTS15CSSPropertyAPI2,comdat
	.align 16
	.type	_ZTS15CSSPropertyAPI2, @object
	.size	_ZTS15CSSPropertyAPI2, 18
_ZTS15CSSPropertyAPI2:
	.string	"15CSSPropertyAPI2"
	.weak	_ZTI15CSSPropertyAPI2
	.section	.rodata._ZTI15CSSPropertyAPI2,"aG",@progbits,_ZTI15CSSPropertyAPI2,comdat
	.align 16
	.type	_ZTI15CSSPropertyAPI2, @object
	.size	_ZTI15CSSPropertyAPI2, 24
_ZTI15CSSPropertyAPI2:
	.quad	_ZTVN10__cxxabiv120__si_class_type_infoE+16
	.quad	_ZTS15CSSPropertyAPI2
	.quad	_ZTI14CSSPropertyAPI
	.weak	_ZTS15CSSPropertyAPI3
	.section	.rodata._ZTS15CSSPropertyAPI3,"aG",@progbits,_ZTS15CSSPropertyAPI3,comdat
	.align 16
	.type	_ZTS15CSSPropertyAPI3, @object
	.size	_ZTS15CSSPropertyAPI3, 18
_ZTS15CSSPropertyAPI3:
	.string	"15CSSPropertyAPI3"
	.weak	_ZTI15CSSPropertyAPI3
	.section	.rodata._ZTI15CSSPropertyAPI3,"aG",@progbits,_ZTI15CSSPropertyAPI3,comdat
	.align 16
	.type	_ZTI15CSSPropertyAPI3, @object
	.size	_ZTI15CSSPropertyAPI3, 24
_ZTI15CSSPropertyAPI3:
	.quad	_ZTVN10__cxxabiv120__si_class_type_infoE+16
	.quad	_ZTS15CSSPropertyAPI3
	.quad	_ZTI14CSSPropertyAPI
	.weak	_ZTS15CSSPropertyAPI4
	.section	.rodata._ZTS15CSSPropertyAPI4,"aG",@progbits,_ZTS15CSSPropertyAPI4,comdat
	.align 16
	.type	_ZTS15CSSPropertyAPI4, @object
	.size	_ZTS15CSSPropertyAPI4, 18
_ZTS15CSSPropertyAPI4:
	.string	"15CSSPropertyAPI4"
	.weak	_ZTI15CSSPropertyAPI4
	.section	.rodata._ZTI15CSSPropertyAPI4,"aG",@progbits,_ZTI15CSSPropertyAPI4,comdat
	.align 16
	.type	_ZTI15CSSPropertyAPI4, @object
	.size	_ZTI15CSSPropertyAPI4, 24
_ZTI15CSSPropertyAPI4:
	.quad	_ZTVN10__cxxabiv120__si_class_type_infoE+16
	.quad	_ZTS15CSSPropertyAPI4
	.quad	_ZTI14CSSPropertyAPI
	.weak	_ZTS15CSSPropertyAPI5
	.section	.rodata._ZTS15CSSPropertyAPI5,"aG",@progbits,_ZTS15CSSPropertyAPI5,comdat
	.align 16
	.type	_ZTS15CSSPropertyAPI5, @object
	.size	_ZTS15CSSPropertyAPI5, 18
_ZTS15CSSPropertyAPI5:
	.string	"15CSSPropertyAPI5"
	.weak	_ZTI15CSSPropertyAPI5
	.section	.rodata._ZTI15CSSPropertyAPI5,"aG",@progbits,_ZTI15CSSPropertyAPI5,comdat
	.align 16
	.type	_ZTI15CSSPropertyAPI5, @object
	.size	_ZTI15CSSPropertyAPI5, 24
_ZTI15CSSPropertyAPI5:
	.quad	_ZTVN10__cxxabiv120__si_class_type_infoE+16
	.quad	_ZTS15CSSPropertyAPI5
	.quad	_ZTI14CSSPropertyAPI
	.weak	_ZTS15CSSPropertyAPI6
	.section	.rodata._ZTS15CSSPropertyAPI6,"aG",@progbits,_ZTS15CSSPropertyAPI6,comdat
	.align 16
	.type	_ZTS15CSSPropertyAPI6, @object
	.size	_ZTS15CSSPropertyAPI6, 18
_ZTS15CSSPropertyAPI6:
	.string	"15CSSPropertyAPI6"
	.weak	_ZTI15CSSPropertyAPI6
	.section	.rodata._ZTI15CSSPropertyAPI6,"aG",@progbits,_ZTI15CSSPropertyAPI6,comdat
	.align 16
	.type	_ZTI15CSSPropertyAPI6, @object
	.size	_ZTI15CSSPropertyAPI6, 24
_ZTI15CSSPropertyAPI6:
	.quad	_ZTVN10__cxxabiv120__si_class_type_infoE+16
	.quad	_ZTS15CSSPropertyAPI6
	.quad	_ZTI14CSSPropertyAPI
	.weak	_ZTS15CSSPropertyAPI7
	.section	.rodata._ZTS15CSSPropertyAPI7,"aG",@progbits,_ZTS15CSSPropertyAPI7,comdat
	.align 16
	.type	_ZTS15CSSPropertyAPI7, @object
	.size	_ZTS15CSSPropertyAPI7, 18
_ZTS15CSSPropertyAPI7:
	.string	"15CSSPropertyAPI7"
	.weak	_ZTI15CSSPropertyAPI7
	.section	.rodata._ZTI15CSSPropertyAPI7,"aG",@progbits,_ZTI15CSSPropertyAPI7,comdat
	.align 16
	.type	_ZTI15CSSPropertyAPI7, @object
	.size	_ZTI15CSSPropertyAPI7, 24
_ZTI15CSSPropertyAPI7:
	.quad	_ZTVN10__cxxabiv120__si_class_type_infoE+16
	.quad	_ZTS15CSSPropertyAPI7
	.quad	_ZTI14CSSPropertyAPI
	.weak	_ZTS15CSSPropertyAPI8
	.section	.rodata._ZTS15CSSPropertyAPI8,"aG",@progbits,_ZTS15CSSPropertyAPI8,comdat
	.align 16
	.type	_ZTS15CSSPropertyAPI8, @object
	.size	_ZTS15CSSPropertyAPI8, 18
_ZTS15CSSPropertyAPI8:
	.string	"15CSSPropertyAPI8"
	.weak	_ZTI15CSSPropertyAPI8
	.section	.rodata._ZTI15CSSPropertyAPI8,"aG",@progbits,_ZTI15CSSPropertyAPI8,comdat
	.align 16
	.type	_ZTI15CSSPropertyAPI8, @object
	.size	_ZTI15CSSPropertyAPI8, 24
_ZTI15CSSPropertyAPI8:
	.quad	_ZTVN10__cxxabiv120__si_class_type_infoE+16
	.quad	_ZTS15CSSPropertyAPI8
	.quad	_ZTI14CSSPropertyAPI
	.weak	_ZTS15CSSPropertyAPI9
	.section	.rodata._ZTS15CSSPropertyAPI9,"aG",@progbits,_ZTS15CSSPropertyAPI9,comdat
	.align 16
	.type	_ZTS15CSSPropertyAPI9, @object
	.size	_ZTS15CSSPropertyAPI9, 18
_ZTS15CSSPropertyAPI9:
	.string	"15CSSPropertyAPI9"
	.weak	_ZTI15CSSPropertyAPI9
	.section	.rodata._ZTI15CSSPropertyAPI9,"aG",@progbits,_ZTI15CSSPropertyAPI9,comdat
	.align 16
	.type	_ZTI15CSSPropertyAPI9, @object
	.size	_ZTI15CSSPropertyAPI9, 24
_ZTI15CSSPropertyAPI9:
	.quad	_ZTVN10__cxxabiv120__si_class_type_infoE+16
	.quad	_ZTS15CSSPropertyAPI9
	.quad	_ZTI14CSSPropertyAPI
	.weak	_ZTS16CSSPropertyAPI10
	.section	.rodata._ZTS16CSSPropertyAPI10,"aG",@progbits,_ZTS16CSSPropertyAPI10,comdat
	.align 16
	.type	_ZTS16CSSPropertyAPI10, @object
	.size	_ZTS16CSSPropertyAPI10, 19
_ZTS16CSSPropertyAPI10:
	.string	"16CSSPropertyAPI10"
	.weak	_ZTI16CSSPropertyAPI10
	.section	.rodata._ZTI16CSSPropertyAPI10,"aG",@progbits,_ZTI16CSSPropertyAPI10,comdat
	.align 16
	.type	_ZTI16CSSPropertyAPI10, @object
	.size	_ZTI16CSSPropertyAPI10, 24
_ZTI16CSSPropertyAPI10:
	.quad	_ZTVN10__cxxabiv120__si_class_type_infoE+16
	.quad	_ZTS16CSSPropertyAPI10
	.quad	_ZTI14CSSPropertyAPI
	.weak	_ZTV14CSSPropertyAPI
	.section	.rodata._ZTV14CSSPropertyAPI,"aG",@progbits,_ZTV14CSSPropertyAPI,comdat
	.align 16
	.type	_ZTV14CSSPropertyAPI, @object
	.size	_ZTV14CSSPropertyAPI, 24
_ZTV14CSSPropertyAPI:
	.quad	0
	.quad	_ZTI14CSSPropertyAPI
	.quad	_ZNK14CSSPropertyAPI5parseEv
	.weak	_ZTV15CSSPropertyAPI1
	.section	.rodata._ZTV15CSSPropertyAPI1,"aG",@progbits,_ZTV15CSSPropertyAPI1,comdat
	.align 16
	.type	_ZTV15CSSPropertyAPI1, @object
	.size	_ZTV15CSSPropertyAPI1, 24
_ZTV15CSSPropertyAPI1:
	.quad	0
	.quad	_ZTI15CSSPropertyAPI1
	.quad	_ZNK15CSSPropertyAPI15parseEv
	.weak	_ZTV15CSSPropertyAPI2
	.section	.rodata._ZTV15CSSPropertyAPI2,"aG",@progbits,_ZTV15CSSPropertyAPI2,comdat
	.align 16
	.type	_ZTV15CSSPropertyAPI2, @object
	.size	_ZTV15CSSPropertyAPI2, 24
_ZTV15CSSPropertyAPI2:
	.quad	0
	.quad	_ZTI15CSSPropertyAPI2
	.quad	_ZNK15CSSPropertyAPI25parseEv
	.weak	_ZTV15CSSPropertyAPI3
	.section	.rodata._ZTV15CSSPropertyAPI3,"aG",@progbits,_ZTV15CSSPropertyAPI3,comdat
	.align 16
	.type	_ZTV15CSSPropertyAPI3, @object
	.size	_ZTV15CSSPropertyAPI3, 24
_ZTV15CSSPropertyAPI3:
	.quad	0
	.quad	_ZTI15CSSPropertyAPI3
	.quad	_ZNK15CSSPropertyAPI35parseEv
	.weak	_ZTV15CSSPropertyAPI4
	.section	.rodata._ZTV15CSSPropertyAPI4,"aG",@progbits,_ZTV15CSSPropertyAPI4,comdat
	.align 16
	.type	_ZTV15CSSPropertyAPI4, @object
	.size	_ZTV15CSSPropertyAPI4, 24
_ZTV15CSSPropertyAPI4:
	.quad	0
	.quad	_ZTI15CSSPropertyAPI4
	.quad	_ZNK15CSSPropertyAPI45parseEv
	.weak	_ZTV15CSSPropertyAPI5
	.section	.rodata._ZTV15CSSPropertyAPI5,"aG",@progbits,_ZTV15CSSPropertyAPI5,comdat
	.align 16
	.type	_ZTV15CSSPropertyAPI5, @object
	.size	_ZTV15CSSPropertyAPI5, 24
_ZTV15CSSPropertyAPI5:
	.quad	0
	.quad	_ZTI15CSSPropertyAPI5
	.quad	_ZNK15CSSPropertyAPI55parseEv
	.weak	_ZTV15CSSPropertyAPI6
	.section	.rodata._ZTV15CSSPropertyAPI6,"aG",@progbits,_ZTV15CSSPropertyAPI6,comdat
	.align 16
	.type	_ZTV15CSSPropertyAPI6, @object
	.size	_ZTV15CSSPropertyAPI6, 24
_ZTV15CSSPropertyAPI6:
	.quad	0
	.quad	_ZTI15CSSPropertyAPI6
	.quad	_ZNK15CSSPropertyAPI65parseEv
	.weak	_ZTV15CSSPropertyAPI7
	.section	.rodata._ZTV15CSSPropertyAPI7,"aG",@progbits,_ZTV15CSSPropertyAPI7,comdat
	.align 16
	.type	_ZTV15CSSPropertyAPI7, @object
	.size	_ZTV15CSSPropertyAPI7, 24
_ZTV15CSSPropertyAPI7:
	.quad	0
	.quad	_ZTI15CSSPropertyAPI7
	.quad	_ZNK15CSSPropertyAPI75parseEv
	.weak	_ZTV15CSSPropertyAPI8
	.section	.rodata._ZTV15CSSPropertyAPI8,"aG",@progbits,_ZTV15CSSPropertyAPI8,comdat
	.align 16
	.type	_ZTV15CSSPropertyAPI8, @object
	.size	_ZTV15CSSPropertyAPI8, 24
_ZTV15CSSPropertyAPI8:
	.quad	0
	.quad	_ZTI15CSSPropertyAPI8
	.quad	_ZNK15CSSPropertyAPI85parseEv
	.weak	_ZTV15CSSPropertyAPI9
	.section	.rodata._ZTV15CSSPropertyAPI9,"aG",@progbits,_ZTV15CSSPropertyAPI9,comdat
	.align 16
	.type	_ZTV15CSSPropertyAPI9, @object
	.size	_ZTV15CSSPropertyAPI9, 24
_ZTV15CSSPropertyAPI9:
	.quad	0
	.quad	_ZTI15CSSPropertyAPI9
	.quad	_ZNK15CSSPropertyAPI95parseEv
	.weak	_ZTV16CSSPropertyAPI10
	.section	.rodata._ZTV16CSSPropertyAPI10,"aG",@progbits,_ZTV16CSSPropertyAPI10,comdat
	.align 16
	.type	_ZTV16CSSPropertyAPI10, @object
	.size	_ZTV16CSSPropertyAPI10, 24
_ZTV16CSSPropertyAPI10:
	.quad	0
	.quad	_ZTI16CSSPropertyAPI10
	.quad	_ZNK16CSSPropertyAPI105parseEv
	.globl	increment_me
	.bss
	.align 4
	.type	increment_me, @object
	.size	increment_me, 4
increment_me:
	.zero	4
	.ident	"GCC: (Ubuntu 4.8.4-2ubuntu1~14.04.3) 4.8.4"
	.section	.note.GNU-stack,"",@progbits
